EXPORTS
 "_openmp"
 "_Z11IndependentN8tmbutils6vectorIdEE"
 "_Z12logspace_addIdET_S0_S0_"
 "_Z12logspace_addIN5TMBad6global6ad_augEET_S3_S3_"
 "_Z14eigen_REprintfPKc"
 "_Z14getListElementP7SEXPRECPKcPF8RbooleanS0_E"
 "_Z14getListIntegerP7SEXPRECPKci"
 "_Z15isNumericScalarP7SEXPREC"
 "_Z16MakeADFunObject_P7SEXPRECS0_S0_S0_iRS0_"
 "_Z17MakeADGradObject_P7SEXPRECS0_S0_S0_i"
 "_Z18MakeADHessObject2_P7SEXPRECS0_S0_S0_i"
 "_Z19isValidSparseMatrixP7SEXPREC"
 "_Z23EvalADFunObjectTemplateI13parallelADFunIdEEP7SEXPRECS3_S3_S3_"
 "_Z23EvalADFunObjectTemplateIN5TMBad5ADFunINS0_6global6ad_augEEEEP7SEXPRECS6_S6_S6_"
 "_Z23RObjectTestExpectedTypeP7SEXPRECPF8RbooleanS0_EPKc"
 "_Z5dnormIdET_S0_S0_S0_i"
 "_Z5dnormIN5TMBad6global6ad_augEET_S3_S3_S3_i"
 "_Z6asSEXPIdEP7SEXPRECRKN8tmbutils6matrixIT_EE"
 "_Z6asSEXPIN5TMBad5ADFunINS0_6global6ad_augEEEEP7SEXPRECRK8sphess_tIT_EPKc"
 "_Z6asSEXPIN8tmbutils6vectorIiEEEP7SEXPRECRKNS1_IT_EE"
 "_Z6asSEXPRKd"
 "_Z6asSEXPRKi"
 "_Z6asSEXPRKN5TMBad6global6ad_augE"
 "_Z6asSEXPRKN8tmbutils6vectorIdEE"
 "_Z6asSEXPRKN8tmbutils6vectorIiEE"
 "_Z6asSEXPRKN8tmbutils6vectorIN5TMBad6global6ad_augEEE"
 "_Z6asSEXPRKSt6vectorIdSaIdEE"
 "_Z7patternIddEN5Eigen12SparseMatrixIT_Li0EiEERKNS1_IT0_Li0EiEESt6vectorIS2_SaIS2_EE"
 "_Z7patternIdN5TMBad6global6ad_augEEN5Eigen12SparseMatrixIT_Li0EiEERKNS4_IT0_Li0EiEESt6vectorIS5_SaIS5_EE"
 "_Z7ptrListP7SEXPREC"
 "_Z8asDoubled"
 "_Z8asDoublei"
 "_Z8asDoubleN5CppAD2ADIdEE"
 "_Z8asDoubleN5CppAD2ADINS0_IdEEEE"
 "_Z8asDoubleN5CppAD2ADINS0_INS0_IdEEEEEE"
 "_Z8asDoubleN5TMBad6global6ad_augE"
 "_Z8asMatrixIdEN8tmbutils6matrixIT_EEP7SEXPREC"
 "_Z8asMatrixIN5TMBad6global6ad_augEEN8tmbutils6matrixIT_EEP7SEXPREC"
 "_Z8asVectorIdEN8tmbutils6vectorIT_EEP7SEXPREC"
 "_Z8asVectorIN5TMBad6global6ad_augEEN8tmbutils6vectorIT_EEP7SEXPREC"
 "_Z8finalizeIN5TMBad5ADFunINS0_6global6ad_augEEEEvP7SEXPREC"
 "_Z9segment_1IdEN8tmbutils6vectorIT_EES3_S3_NS0_6matrixIS2_EES3_S3_S3_S3_i"
 "_Z9segment_1IN5TMBad6global6ad_augEEN8tmbutils6vectorIT_EES6_S6_NS3_6matrixIS5_EES6_S6_S6_S6_i"
 "_Z9segment_2IdET_N8tmbutils6vectorIS0_EES3_NS1_6matrixIS0_EES3_S3_S3_S3_ii"
 "_Z9segment_2IN5TMBad6global6ad_augEET_N8tmbutils6vectorIS3_EES6_NS4_6matrixIS3_EES6_S6_S6_S6_ii"
 "_ZGVZN5CppAD12thread_alloc11thread_infoEybE9zero_info"
 "_ZGVZN5CppAD12thread_alloc13capacity_infoEvE8capacity"
 "_ZGVZN5Eigen8internal20manage_caching_sizesENS_6ActionEPxS2_S2_E12m_cacheSizes"
 "_ZGVZN5Eigen8internal4pexpIDv2_dEET_RKS3_E10p4i_1023_0"
 "_ZGVZN5TMBad6global8CompleteIN6atomic8logdetOpIvEEE10identifierEvE2id"
 "_ZGVZN5TMBad6global8CompleteIN6atomic8matinvOpIvEEE10identifierEvE2id"
 "_ZGVZN5TMBad6global8CompleteIN6atomic8matmulOpIvEEE10identifierEvE2id"
 "_ZN10RstreambufILb0EE4syncEv"
 "_ZN10RstreambufILb0EE6xsputnEPKcx"
 "_ZN10RstreambufILb0EE8overflowEi"
 "_ZN10RstreambufILb0EED0Ev"
 "_ZN10RstreambufILb0EED1Ev"
 "_ZN10RstreambufILb1EE4syncEv"
 "_ZN10RstreambufILb1EE6xsputnEPKcx"
 "_ZN10RstreambufILb1EE8overflowEi"
 "_ZN10RstreambufILb1EED0Ev"
 "_ZN10RstreambufILb1EED1Ev"
 "_ZN12report_stackIdE10reportdimsEv"
 "_ZN12report_stackIdE4pushIN8tmbutils6matrixIdEEEEvT_PKc"
 "_ZN12report_stackIdE4pushIN8tmbutils6vectorIdEEEEvT_PKc"
 "_ZN12report_stackIN5TMBad6global6ad_augEE4pushIN8tmbutils6matrixIS2_EEEEvT_PKc"
 "_ZN12report_stackIN5TMBad6global6ad_augEE4pushIN8tmbutils6vectorIS2_EEEEvT_PKc"
 "_ZN13config_struct3setEv"
 "_ZN13config_struct3setIbEEvPKcRT_S3_"
 "_ZN13parallelADFunIdE6subsetISt6vectorIbSaIbEEEET_RKS5_yi"
 "_ZN13parallelADFunIdE7forwardIN5Eigen6MatrixIdLin1ELi1ELi0ELin1ELi1EEEEET_RKS5_"
 "_ZN13parallelADFunIdE7reverseIN5Eigen6MatrixIdLin1ELi1ELi0ELin1ELi1EEEEET_RKS5_"
 "_ZN13parallelADFunIdE8JacobianERKSt6vectorIdSaIdEE"
 "_ZN13parallelADFunIdE8JacobianERKSt6vectorIdSaIdEERKN8tmbutils6vectorIdEE"
 "_ZN13parallelADFunIdE8JacobianERKSt6vectorIdSaIdEERKS1_IbSaIbEES9_"
 "_ZN13parallelADFunIdE9addinsertIN8tmbutils6vectorIdEEEEvRT_RKS5_yi"
 "_ZN13parallelADFunIdEC1ERKSt6vectorIN5TMBad5ADFunINS2_6global6ad_augEEESaIS6_EE"
 "_ZN13parallelADFunIdEclERKSt6vectorIdSaIdEE"
 "_ZN13parallelADFunIdED1Ev"
 "_ZN18objective_functionIdE10defaultparEv"
 "_ZN18objective_functionIdE11pushParnameEPKc"
 "_ZN18objective_functionIdE7fillmapIN8tmbutils6matrixIdEEEEvRT_PKc"
 "_ZN18objective_functionIdE7fillmapIN8tmbutils6vectorIdEEEEvRT_PKc"
 "_ZN18objective_functionIdE8getShapeEPKcPF8RbooleanP7SEXPRECE"
 "_ZN18objective_functionIdE9fillShapeIN8tmbutils6vectorIdEEEET_S5_PKc"
 "_ZN18objective_functionIdEC1EP7SEXPRECS2_S2_"
 "_ZN18objective_functionIdEclEv"
 "_ZN18objective_functionIdED1Ev"
 "_ZN18objective_functionIN5TMBad6global6ad_augEE11pushParnameEPKc"
 "_ZN18objective_functionIN5TMBad6global6ad_augEE16evalUserTemplateEv"
 "_ZN18objective_functionIN5TMBad6global6ad_augEE7fillmapIN8tmbutils6matrixIS2_EEEEvRT_PKc"
 "_ZN18objective_functionIN5TMBad6global6ad_augEE7fillmapIN8tmbutils6vectorIS2_EEEEvRT_PKc"
 "_ZN18objective_functionIN5TMBad6global6ad_augEE8getShapeEPKcPF8RbooleanP7SEXPRECE"
 "_ZN18objective_functionIN5TMBad6global6ad_augEE9fillShapeIN8tmbutils6vectorIS2_EEEET_S8_PKc"
 "_ZN18objective_functionIN5TMBad6global6ad_augEEC1EP7SEXPRECS5_S5_"
 "_ZN18objective_functionIN5TMBad6global6ad_augEEclEv"
 "_ZN18objective_functionIN5TMBad6global6ad_augEED1Ev"
 "_ZN21memory_manager_struct14CallCFinalizerEP7SEXPREC"
 "_ZN21memory_manager_struct18RegisterCFinalizerEP7SEXPREC"
 "_ZN21memory_manager_struct5clearEv"
 "_ZN21memory_manager_structC1Ev"
 "_ZN21memory_manager_structC2Ev"
 "_ZN5CppAD12thread_alloc10get_memoryEyRy"
 "_ZN5CppAD12thread_alloc11thread_infoEyb"
 "_ZN5CppAD12thread_alloc12delete_arrayIN5TMBad6global6ad_augEEEvPT_"
 "_ZN5CppAD12thread_alloc13return_memoryEPv"
 "_ZN5CppAD18traceforward0sweepEi"
 "_ZN5CppAD3absERKN5TMBad6global6ad_augE"
 "_ZN5CppAD7IntegerERKN5TMBad6global6ad_augE"
 "_ZN5CppAD8VariableEd"
 "_ZN5CppAD8VariableERKN5TMBad6global6ad_augE"
 "_ZN5CppAD9CondExpEqERKN5TMBad6global6ad_augES4_S4_S4_"
 "_ZN5CppAD9CondExpGeERKN5TMBad6global6ad_augES4_S4_S4_"
 "_ZN5CppAD9CondExpGtERKN5TMBad6global6ad_augES4_S4_S4_"
 "_ZN5CppAD9CondExpLeERKN5TMBad6global6ad_augES4_S4_S4_"
 "_ZN5CppAD9CondExpLtERKN5TMBad6global6ad_augES4_S4_S4_"
 "_ZN5CppAD9CondExpNeERKN5TMBad6global6ad_augES4_S4_S4_"
 "_ZN5Eigen12DenseStorageIdLin1ELin1ELi1ELi0EEC1ERKS1_"
 "_ZN5Eigen12DenseStorageIdLin1ELin1ELin1ELi0EEC1ERKS1_"
 "_ZN5Eigen12DenseStorageIN5TMBad6global6ad_augELin1ELin1ELi1ELi0EEC1ERKS4_"
 "_ZN5Eigen12DenseStorageIN5TMBad6global6ad_augELin1ELin1ELin1ELi0EEC1ERKS4_"
 "_ZN5Eigen12DenseStorageIN8tmbutils6matrixIdEELin1ELin1ELi1ELi0EEC1ERKS4_"
 "_ZN5Eigen12DenseStorageIN8tmbutils6matrixIdEELin1ELin1ELi1ELi0EED1Ev"
 "_ZN5Eigen12DenseStorageIN8tmbutils6vectorIdEELin1ELin1ELi1ELi0EED1Ev"
 "_ZN5Eigen12DenseStorageIN8tmbutils6vectorIiEELin1ELin1ELi1ELi0EED1Ev"
 "_ZN5Eigen12DenseStorageIN8tmbutils6vectorIyEELin1ELin1ELi1ELi0EED1Ev"
 "_ZN5Eigen12DenseStorageINS_6MatrixIdLin1ELi1ELi0ELin1ELi1EEELin1ELin1ELi1ELi0EED1Ev"
 "_ZN5Eigen12PartialPivLUINS_6MatrixIdLin1ELin1ELi0ELin1ELin1EEEE7computeEv"
 "_ZN5Eigen12PartialPivLUINS_6MatrixIdLin1ELin1ELi0ELin1ELin1EEEEC1IS2_EERKNS_9EigenBaseIT_EE"
 "_ZN5Eigen12PartialPivLUINS_6MatrixIdLin1ELin1ELi0ELin1ELin1EEEED1Ev"
 "_ZN5Eigen12SparseMatrixIdLi0EiE6resizeExx"
 "_ZN5Eigen12SparseMatrixIdLi0EiE7reserveEx"
 "_ZN5Eigen12SparseMatrixIdLi0EiE8finalizeEv"
 "_ZN5Eigen12SparseMatrixIdLi0EiE8startVecEx"
 "_ZN5Eigen12SparseMatrixIdLi0EiEaSERKS1_"
 "_ZN5Eigen12SparseMatrixIdLi0EiEaSINS_13CwiseBinaryOpINS_8internal13scalar_sum_opIddEEKS1_S7_EEEERS1_RKNS_16SparseMatrixBaseIT_EE"
 "_ZN5Eigen12SparseMatrixIdLi0EiEaSINS_13CwiseBinaryOpINS_8internal17scalar_product_opIddEEKS1_KNS_14CwiseNullaryOpINS4_18scalar_constant_opIdEEKNS_6MatrixIdLin1ELin1ELi0ELin1ELin1EEEEEEEEERS1_RKNS_16SparseMatrixBaseIT_EE"
 "_ZN5Eigen12SparseMatrixIdLi0EiEaSINS_9TransposeIKS1_EEEERS1_RKNS_16SparseMatrixBaseIT_EE"
 "_ZN5Eigen12SparseMatrixIdLi0EiEaSINS0_IdLi1EiEEEERS1_RKNS_16SparseMatrixBaseIT_EE"
 "_ZN5Eigen12SparseMatrixIdLi0EiED1Ev"
 "_ZN5Eigen12SparseMatrixIdLi1EiE18collapseDuplicatesINS_8internal13scalar_sum_opIddEEEEvT_"
 "_ZN5Eigen12SparseMatrixIdLi1EiE19reserveInnerVectorsINS_6MatrixIiLin1ELi1ELi0ELin1ELi1EEEEEvRKT_"
 "_ZN5Eigen12SparseMatrixIiLi0EiE6resizeExx"
 "_ZN5Eigen12SparseMatrixIiLi0EiE7reserveEx"
 "_ZN5Eigen12SparseMatrixIiLi0EiEaSERKS1_"
 "_ZN5Eigen12SparseMatrixIiLi0EiEaSINS_9TransposeIS1_EEEERS1_RKNS_16SparseMatrixBaseIT_EE"
 "_ZN5Eigen12SparseMatrixIiLi0EiED1Ev"
 "_ZN5Eigen12SparseMatrixIN5TMBad6global6ad_augELi0EiE6resizeExx"
 "_ZN5Eigen12SparseMatrixIN5TMBad6global6ad_augELi0EiE7reserveEx"
 "_ZN5Eigen12SparseMatrixIN5TMBad6global6ad_augELi0EiEaSERKS4_"
 "_ZN5Eigen12SparseMatrixIN5TMBad6global6ad_augELi0EiEaSINS_13CwiseBinaryOpINS_8internal13scalar_sum_opIS3_S3_EEKS4_SA_EEEERS4_RKNS_16SparseMatrixBaseIT_EE"
 "_ZN5Eigen12SparseMatrixIN5TMBad6global6ad_augELi0EiEaSINS_9TransposeIKS4_EEEERS4_RKNS_16SparseMatrixBaseIT_EE"
 "_ZN5Eigen12SparseMatrixIN5TMBad6global6ad_augELi0EiEaSINS0_IS3_Li1EiEEEERS4_RKNS_16SparseMatrixBaseIT_EE"
 "_ZN5Eigen12SparseMatrixIN5TMBad6global6ad_augELi0EiED1Ev"
 "_ZN5Eigen12SparseMatrixIN5TMBad6global6ad_augELi1EiE18collapseDuplicatesINS_8internal13scalar_sum_opIS3_S3_EEEEvT_"
 "_ZN5Eigen12SparseMatrixIN5TMBad6global6ad_augELi1EiE19reserveInnerVectorsINS_6MatrixIiLin1ELi1ELi0ELin1ELi1EEEEEvRKT_"
 "_ZN5Eigen12SparseMatrixIN6atomic7tiny_ad8variableILi1ELi1EdEELi0EiE22insertBackByOuterInnerExx"
 "_ZN5Eigen12SparseMatrixIN6atomic7tiny_ad8variableILi1ELi1EdEELi0EiE6resizeExx"
 "_ZN5Eigen12SparseMatrixIN6atomic7tiny_ad8variableILi1ELi1EdEELi0EiE7reserveEx"
 "_ZN5Eigen12SparseMatrixIN6atomic7tiny_ad8variableILi1ELi1EdEELi0EiE8finalizeEv"
 "_ZN5Eigen12SparseMatrixIN6atomic7tiny_ad8variableILi1ELi1EdEELi0EiE8startVecEx"
 "_ZN5Eigen12SparseMatrixIN6atomic7tiny_ad8variableILi1ELi1EdEELi0EiEaSERKS5_"
 "_ZN5Eigen12SparseMatrixIN6atomic7tiny_ad8variableILi1ELi1EdEELi0EiEaSINS_13CwiseBinaryOpINS_8internal13scalar_sum_opIS4_S4_EEKS5_SB_EEEERS5_RKNS_16SparseMatrixBaseIT_EE"
 "_ZN5Eigen12SparseMatrixIN6atomic7tiny_ad8variableILi1ELi1EdEELi0EiEaSINS_13CwiseBinaryOpINS_8internal17scalar_product_opIS4_S4_EEKS5_KNS_14CwiseNullaryOpINS8_18scalar_constant_opIS4_EEKNS_6MatrixIS4_Lin1ELin1ELi0ELin1ELin1EEEEEEEEERS5_RKNS_16SparseMatrixBaseIT_EE"
 "_ZN5Eigen12SparseMatrixIN6atomic7tiny_ad8variableILi1ELi1EdEELi0EiEaSINS_9TransposeIKS5_EEEERS5_RKNS_16SparseMatrixBaseIT_EE"
 "_ZN5Eigen12SparseMatrixIN6atomic7tiny_ad8variableILi1ELi1EdEELi0EiED1Ev"
 "_ZN5Eigen14CwiseNullaryOpINS_8internal18scalar_constant_opIdEEKNS_5ArrayIdLin1ELi1ELi0ELin1ELi1EEEEC1ExxRKS3_"
 "_ZN5Eigen15DenseCoeffsBaseINS_5ArrayIdLin1ELi1ELi0ELin1ELi1EEELi1EEclEx"
 "_ZN5Eigen15DenseCoeffsBaseINS_5ArrayIdLin1ELi1ELi0ELin1ELi1EEELi1EEixEx"
 "_ZN5Eigen15DenseCoeffsBaseINS_5ArrayIN5TMBad6global6ad_augELin1ELi1ELi0ELin1ELi1EEELi1EEclEx"
 "_ZN5Eigen15DenseCoeffsBaseINS_5ArrayIN5TMBad6global6ad_augELin1ELi1ELi0ELin1ELi1EEELi1EEixEx"
 "_ZN5Eigen15DenseCoeffsBaseINS_5ArrayIPKcLin1ELi1ELi0ELin1ELi1EEELi1EEixEx"
 "_ZN5Eigen15DenseCoeffsBaseINS_5ArrayIPN5TMBad5ADFunINS2_6global6ad_augEEELin1ELi1ELi0ELin1ELi1EEELi1EEixEx"
 "_ZN5Eigen15DenseCoeffsBaseINS_6MatrixIdLin1ELin1ELi0ELin1ELin1EEELi1EEclEx"
 "_ZN5Eigen15DenseCoeffsBaseINS_6MatrixIdLin1ELin1ELi0ELin1ELin1EEELi1EEclExx"
 "_ZN5Eigen15DenseCoeffsBaseINS_6MatrixIN5TMBad6global6ad_augELin1ELin1ELi0ELin1ELin1EEELi1EEclEx"
 "_ZN5Eigen15DenseCoeffsBaseINS_6MatrixIN5TMBad6global6ad_augELin1ELin1ELi0ELin1ELin1EEELi1EEclExx"
 "_ZN5Eigen15PlainObjectBaseINS_5ArrayIdLin1ELi1ELi0ELin1ELi1EEEE6resizeEx"
 "_ZN5Eigen15PlainObjectBaseINS_5ArrayIdLin1ELi1ELi0ELin1ELi1EEEE6resizeExx"
 "_ZN5Eigen15PlainObjectBaseINS_5ArrayIN5TMBad6global6ad_augELin1ELi1ELi0ELin1ELi1EEEE6resizeExx"
 "_ZN5Eigen15PlainObjectBaseINS_6MatrixIdLin1ELin1ELi0ELin1ELin1EEEE6resizeExx"
 "_ZN5Eigen15PlainObjectBaseINS_6MatrixIiLin1ELi1ELi0ELin1ELi1EEEE6resizeEx"
 "_ZN5Eigen15PlainObjectBaseINS_6MatrixIN5TMBad6global6ad_augELin1ELin1ELi0ELin1ELin1EEEE6resizeExx"
 "_ZN5Eigen15PlainObjectBaseINS_6MatrixIN5TMBad6global6ad_augELin1ELin1ELi0ELin1ELin1EEEEC2INS_3MapIKS5_Li0ENS_6StrideILi0ELi0EEEEEEERKNS_9DenseBaseIT_EE"
 "_ZN5Eigen15SelfAdjointViewINS_5BlockINS_6MatrixIdLin1ELin1ELi0ELin1ELin1EEELin1ELin1ELb0EEELj1EE10rankUpdateIS4_EERS5_RKNS_10MatrixBaseIT_EERKd"
 "_ZN5Eigen16CommaInitializerINS_5ArrayIiLin1ELi1ELi0ELin1ELi1EEEE8finishedEv"
 "_ZN5Eigen22SimplicialCholeskyBaseINS_13SimplicialLLTINS_12SparseMatrixIdLi0EiEELi1ENS_11AMDOrderingIiEEEEE20factorize_preorderedILb0EEEvRKS3_"
 "_ZN5Eigen22SimplicialCholeskyBaseINS_13SimplicialLLTINS_12SparseMatrixIdLi0EiEELi1ENS_11AMDOrderingIiEEEEE25analyzePattern_preorderedERKS3_b"
 "_ZN5Eigen22SimplicialCholeskyBaseINS_13SimplicialLLTINS_12SparseMatrixIdLi0EiEELi1ENS_11AMDOrderingIiEEEEE8orderingERKS3_RPS8_RS3_"
 "_ZN5Eigen22SimplicialCholeskyBaseINS_13SimplicialLLTINS_12SparseMatrixIdLi0EiEELi1ENS_11AMDOrderingIiEEEEE9factorizeILb0EEEvRKS3_"
 "_ZN5Eigen22SimplicialCholeskyBaseINS_13SimplicialLLTINS_12SparseMatrixIN6atomic7tiny_ad8variableILi1ELi1EdEELi0EiEELi1ENS_11AMDOrderingIiEEEEE20factorize_preorderedILb0EEEvRKS7_"
 "_ZN5Eigen22SimplicialCholeskyBaseINS_13SimplicialLLTINS_12SparseMatrixIN6atomic7tiny_ad8variableILi1ELi1EdEELi0EiEELi1ENS_11AMDOrderingIiEEEEE25analyzePattern_preorderedERKS7_b"
 "_ZN5Eigen22SimplicialCholeskyBaseINS_13SimplicialLLTINS_12SparseMatrixIN6atomic7tiny_ad8variableILi1ELi1EdEELi0EiEELi1ENS_11AMDOrderingIiEEEEE8orderingERKS7_RPSC_RS7_"
 "_ZN5Eigen22SimplicialCholeskyBaseINS_14SimplicialLDLTINS_12SparseMatrixIN5TMBad6global6ad_augELi0EiEELi1ENS_11AMDOrderingIiEEEEE20factorize_preorderedILb1EEEvRKS6_"
 "_ZN5Eigen22SimplicialCholeskyBaseINS_14SimplicialLDLTINS_12SparseMatrixIN5TMBad6global6ad_augELi0EiEELi1ENS_11AMDOrderingIiEEEEE25analyzePattern_preorderedERKS6_b"
 "_ZN5Eigen22SimplicialCholeskyBaseINS_14SimplicialLDLTINS_12SparseMatrixIN5TMBad6global6ad_augELi0EiEELi1ENS_11AMDOrderingIiEEEEE8orderingERKS6_RPSB_RS6_"
 "_ZN5Eigen23SimplicialInverseSubsetIdE12index_gatherERKNS_12SparseMatrixIdLi0EiEE"
 "_ZN5Eigen23SimplicialInverseSubsetIdE8chol2invEv"
 "_ZN5Eigen23SimplicialInverseSubsetIdEclENS_12SparseMatrixIdLi0EiEE"
 "_ZN5Eigen23SimplicialInverseSubsetIdED1Ev"
 "_ZN5Eigen23SimplicialInverseSubsetIN6atomic7tiny_ad8variableILi1ELi1EdEEE12index_gatherERKNS_12SparseMatrixIS4_Li0EiEE"
 "_ZN5Eigen23SimplicialInverseSubsetIN6atomic7tiny_ad8variableILi1ELi1EdEEE8chol2invEv"
 "_ZN5Eigen23SimplicialInverseSubsetIN6atomic7tiny_ad8variableILi1ELi1EdEEEclENS_12SparseMatrixIS4_Li0EiEE"
 "_ZN5Eigen3LLTINS_6MatrixIdLin1ELin1ELi0ELin1ELin1EEELi1EE7computeIS2_EERS3_RKNS_9EigenBaseIT_EE"
 "_ZN5Eigen4LDLTINS_6MatrixIdLin1ELin1ELi0ELin1ELin1EEELi1EE7computeIS2_EERS3_RKNS_9EigenBaseIT_EE"
 "_ZN5Eigen5ArrayIdLin1ELi1ELi0ELin1ELi1EEC2INS_13CwiseBinaryOpINS_8internal18scalar_quotient_opIddEEKNS_14CwiseNullaryOpINS4_18scalar_constant_opIdEEKS1_EEKNS3_INS4_13scalar_sum_opIddEESC_KNS_12CwiseUnaryOpINS4_13scalar_exp_opIdEEKNSF_INS4_18scalar_opposite_opIdEESA_EEEEEEEEEERKT_"
 "_ZN5Eigen5ArrayIdLin1ELi1ELi0ELin1ELi1EEC2INS_9ArrayBaseINS_13CwiseBinaryOpINS_8internal20scalar_difference_opIddEEKS1_KNS_12ArrayWrapperINS_6MatrixIdLin1ELin1ELi0ELin1ELin1EEEEEEEEEEERKT_"
 "_ZN5Eigen5ArrayIN8tmbutils6matrixIdEELin1ELi1ELi0ELin1ELi1EEC2INS_11VectorBlockIS4_Lin1EEEEERKT_"
 "_ZN5Eigen5BlockINS_5ArrayIdLin1ELi1ELi0ELin1ELi1EEELin1ELi1ELb0EEC2ERS2_xxxx"
 "_ZN5Eigen5BlockINS_5ArrayIN5TMBad6global6ad_augELin1ELi1ELi0ELin1ELi1EEELin1ELi1ELb0EEC2ERS5_xxxx"
 "_ZN5Eigen5BlockINS_5ArrayIN8tmbutils6matrixIdEELin1ELi1ELi0ELin1ELi1EEELin1ELi1ELb0EEC2ERS5_xxxx"
 "_ZN5Eigen5BlockINS_6MatrixIdLin1ELi1ELi0ELin1ELi1EEELin1ELi1ELb0EEC2ERS2_xxxx"
 "_ZN5Eigen5BlockINS_6MatrixIdLin1ELin1ELi0ELin1ELin1EEELi1ELin1ELb0EEC1ERS2_x"
 "_ZN5Eigen5BlockINS_6MatrixIdLin1ELin1ELi0ELin1ELin1EEELin1ELi1ELb1EEC1ERS2_x"
 "_ZN5Eigen5BlockINS_8DiagonalINS_6MatrixIdLin1ELin1ELi0ELin1ELin1EEELi0EEELin1ELi1ELb0EEC2ERS4_xxxx"
 "_ZN5Eigen5BlockINS0_INS_3MapINS_6MatrixIdLin1ELin1ELi0ELin1ELin1EEELi0ENS_6StrideILi0ELi0EEEEELin1ELin1ELb0EEELin1ELin1ELb0EEC1ERS7_xxxx"
 "_ZN5Eigen5BlockINS0_INS_6MatrixIdLin1ELin1ELi0ELin1ELin1EEELi1ELin1ELb0EEELi1ELin1ELb0EEC2ERS3_xxxx"
 "_ZN5Eigen5BlockINS0_INS_6MatrixIdLin1ELin1ELi0ELin1ELin1EEELin1ELi1ELb1EEELin1ELi1ELb0EEC2ERS3_xxxx"
 "_ZN5Eigen5BlockINS0_INS0_INS_3MapINS_6MatrixIdLin1ELin1ELi0ELin1ELin1EEELi0ENS_6StrideILi0ELi0EEEEELin1ELin1ELb0EEELi1ELin1ELb0EEELi1ELin1ELb0EEC2ERS8_xxxx"
 "_ZN5Eigen5BlockINS0_INS0_INS_3MapINS_6MatrixIdLin1ELin1ELi0ELin1ELin1EEELi0ENS_6StrideILi0ELi0EEEEELin1ELin1ELb0EEELin1ELi1ELb1EEELin1ELi1ELb0EEC2ERS8_xxxx"
 "_ZN5Eigen6MatrixIdLin1ELin1ELi0ELin1ELin1EEC1INS_7ProductINS_3MapIKS1_Li0ENS_6StrideILi0ELi0EEEEENS_9TransposeIS8_EELi0EEEEERKT_"
 "_ZN5Eigen6MatrixIdLin1ELin1ELi0ELin1ELin1EEC1INS_7ProductINS_9TransposeINS_3MapIKS1_Li0ENS_6StrideILi0ELi0EEEEEEES9_Li0EEEEERKT_"
 "_ZN5Eigen6MatrixIdLin1ELin1ELi0ELin1ELin1EEC2INS_10MatrixBaseINS_13CwiseBinaryOpINS_8internal20scalar_difference_opIddEEKS1_S8_EEEEEERKT_"
 "_ZN5Eigen6MatrixIdLin1ELin1ELi0ELin1ELin1EEC2INS_12ArrayWrapperIS1_EEEERKT_"
 "_ZN5Eigen6MatrixIdLin1ELin1ELi0ELin1ELin1EEC2INS_13CwiseBinaryOpINS_8internal17scalar_product_opIddEEKS1_KNS_14CwiseNullaryOpINS4_18scalar_constant_opIdEES7_EEEEEERKT_"
 "_ZN5Eigen6MatrixIdLin1ELin1ELi0ELin1ELin1EEC2INS_3MapIKS1_Li0ENS_6StrideILi0ELi0EEEEEEERKT_"
 "_ZN5Eigen6MatrixIN5TMBad6global6ad_augELin1ELin1ELi0ELin1ELin1EEC2INS_9TransposeINS_3MapIKS4_Li0ENS_6StrideILi0ELi0EEEEEEEEERKT_"
 "_ZN5Eigen6StrideILi0ELi0EEC1ERKS1_"
 "_ZN5Eigen7MapBaseINS_3MapIKNS_6MatrixIdLin1ELin1ELi0ELin1ELin1EEELi0ENS_6StrideILi0ELi0EEEEELi0EEC2EPKdxx"
 "_ZN5Eigen7MapBaseINS_3MapIKNS_6MatrixIN5TMBad6global6ad_augELin1ELin1ELi0ELin1ELin1EEELi0ENS_6StrideILi0ELi0EEEEELi0EEC2EPKS5_xx"
 "_ZN5Eigen7MapBaseINS_3MapINS_6MatrixIdLin1ELin1ELi0ELin1ELin1EEELi0ENS_6StrideILi0ELi0EEEEELi0EEC2EPdxx"
 "_ZN5Eigen7MapBaseINS_3MapINS_6MatrixIN5TMBad6global6ad_augELin1ELin1ELi0ELin1ELin1EEELi0ENS_6StrideILi0ELi0EEEEELi0EEC2EPS5_xx"
 "_ZN5Eigen8DiagonalINS_6MatrixIdLin1ELin1ELi0ELin1ELin1EEELi0EEC1ERS2_x"
 "_ZN5Eigen8internal10AssignmentINS_5BlockINS2_INS_3MapINS_6MatrixIdLin1ELin1ELi0ELin1ELin1EEELi0ENS_6StrideILi0ELi0EEEEELin1ELin1ELb0EEELin1ELin1ELb0EEENS_7ProductISA_SA_Li0EEENS0_13sub_assign_opIddEENS0_11Dense2DenseEvE3runERSA_RKSC_RKSE_"
 "_ZN5Eigen8internal10AssignmentINS_6MatrixIdLin1ELin1ELi0ELin1ELin1EEENS_7ProductIS3_NS_9TransposeIKS3_EELi0EEENS0_9assign_opIddEENS0_11Dense2DenseEvE3runERS3_RKS8_RKSA_"
 "_ZN5Eigen8internal10AssignmentINS_6MatrixIdLin1ELin1ELi0ELin1ELin1EEENS_7ProductIS3_NS_9TransposeIS3_EELi0EEENS0_9assign_opIddEENS0_11Dense2DenseEvE3runERS3_RKS7_RKS9_"
 "_ZN5Eigen8internal10AssignmentINS_6MatrixIdLin1ELin1ELi0ELin1ELin1EEENS_7ProductIS3_S3_Li0EEENS0_9assign_opIddEENS0_11Dense2DenseEvE3runERS3_RKS5_RKS7_"
 "_ZN5Eigen8internal10redux_implINS0_13scalar_max_opIddEENS0_15redux_evaluatorINS_16PartialReduxExprIKNS_12CwiseUnaryOpINS0_13scalar_abs_opIdEEKNS_6MatrixIdLin1ELin1ELi0ELin1ELin1EEEEENS0_10member_sumIdEELi0EEEEELi0ELi0EE3runERKSH_RKS3_"
 "_ZN5Eigen8internal10redux_implINS0_13scalar_sum_opIiiEENS0_15redux_evaluatorINS_3MapIKNS_6MatrixIiLin1ELi1ELi0ELin1ELi1EEELi0ENS_6StrideILi0ELi0EEEEEEELi3ELi0EE3runERKSC_RKS3_"
 "_ZN5Eigen8internal10smart_copyIdEEvPKT_S4_PS2_"
 "_ZN5Eigen8internal10smart_copyIiEEvPKT_S4_PS2_"
 "_ZN5Eigen8internal10smart_copyIN5TMBad6global6ad_augEEEvPKT_S7_PS5_"
 "_ZN5Eigen8internal10smart_copyIN6atomic7tiny_ad8variableILi1ELi1EdEEEEvPKT_S8_PS6_"
 "_ZN5Eigen8internal10smart_copyIN8tmbutils6matrixIdEEEEvPKT_S7_PS5_"
 "_ZN5Eigen8internal11gebp_kernelIddxNS0_16blas_data_mapperIdxLi0ELi0ELi1EEELi4ELi4ELb0ELb0EEclERKS3_PKdS8_xxxdxxxx"
 "_ZN5Eigen8internal11llt_inplaceIdLi1EE7blockedINS_6MatrixIdLin1ELin1ELi0ELin1ELin1EEEEExRT_"
 "_ZN5Eigen8internal11llt_inplaceIdLi1EE9unblockedINS_5BlockINS_6MatrixIdLin1ELin1ELi0ELin1ELin1EEELin1ELin1ELb0EEEEExRT_"
 "_ZN5Eigen8internal11llt_inplaceIdLi1EE9unblockedINS_6MatrixIdLin1ELin1ELi0ELin1ELin1EEEEExRT_"
 "_ZN5Eigen8internal11plain_arrayIdLi16ELi0ELi16EEC1Ev"
 "_ZN5Eigen8internal11plain_arrayIN5TMBad6global6ad_augELi16ELi0ELi16EEC1Ev"
 "_ZN5Eigen8internal11plain_arrayIN5TMBad6global6ad_augELi2ELi0ELi16EEC1Ev"
 "_ZN5Eigen8internal12extract_dataINS_9TransposeINS_3MapIKNS_6MatrixIdLin1ELin1ELi0ELin1ELin1EEELi0ENS_6StrideILi0ELi0EEEEEEEEEPKNT_6ScalarERKSB_"
 "_ZN5Eigen8internal12extract_dataINS_9TransposeINS_3MapIKNS_6MatrixIN5TMBad6global6ad_augELin1ELin1ELi0ELin1ELin1EEELi0ENS_6StrideILi0ELi0EEEEEEEEEPKNT_6ScalarERKSE_"
 "_ZN5Eigen8internal12extract_dataINS_9TransposeINS_3MapINS_6MatrixIdLin1ELin1ELi0ELin1ELin1EEELi0ENS_6StrideILi0ELi0EEEEEEEEEPKNT_6ScalarERKSA_"
 "_ZN5Eigen8internal12ldlt_inplaceILi1EE9unblockedINS_6MatrixIdLin1ELin1ELi0ELin1ELin1EEENS_14TranspositionsILin1ELin1EiEENS4_IdLin1ELi1ELi0ELin1ELi1EEEEEbRT_RT0_RT1_RNS0_10SignMatrixE"
 "_ZN5Eigen8internal12tribb_kernelIddxLi4ELi4ELb0ELb0ELi1ELi1EEclEPdxxPKdS5_xxRS4_"
 "_ZN5Eigen8internal13gemm_pack_lhsIdxNS0_16blas_data_mapperIdxLi0ELi0ELi1EEELi4ELi2ELi0ELb0ELb1EEclEPdRKS3_xxxx"
 "_ZN5Eigen8internal13gemm_pack_lhsIdxNS0_22const_blas_data_mapperIdxLi0EEELi4ELi2ELi0ELb0ELb0EEclEPdRKS3_xxxx"
 "_ZN5Eigen8internal13gemm_pack_lhsIdxNS0_22const_blas_data_mapperIdxLi1EEELi4ELi2ELi1ELb0ELb0EEclEPdRKS3_xxxx"
 "_ZN5Eigen8internal13gemm_pack_rhsIdxNS0_16blas_data_mapperIdxLi0ELi0ELi1EEELi4ELi0ELb0ELb1EEclEPdRKS3_xxxx"
 "_ZN5Eigen8internal13gemm_pack_rhsIdxNS0_22const_blas_data_mapperIdxLi0EEELi4ELi0ELb0ELb0EEclEPdRKS3_xxxx"
 "_ZN5Eigen8internal13gemm_pack_rhsIdxNS0_22const_blas_data_mapperIdxLi1EEELi4ELi1ELb0ELb0EEclEPdRKS3_xxxx"
 "_ZN5Eigen8internal13gemm_pack_rhsIdxNS0_22const_blas_data_mapperIdxLi1EEELi4ELi1ELb0ELb1EEclEPdRKS3_xxxx"
 "_ZN5Eigen8internal14aligned_mallocEy"
 "_ZN5Eigen8internal15call_assignmentINS_3MapINS_6MatrixIdLin1ELin1ELi0ELin1ELin1EEELi0ENS_6StrideILi0ELi0EEEEENS_7ProductINS2_IKS4_Li0ES6_EESA_Li0EEENS0_9assign_opIddEEEEvRT_RKT0_RKT1_NS0_9enable_ifIXsrNS0_25evaluator_assume_aliasingISG_NS0_16evaluator_traitsISG_E5ShapeEEE5valueEPvE4typeE"
 "_ZN5Eigen8internal15compute_inverseINS_3MapIKNS_6MatrixIdLin1ELin1ELi0ELin1ELin1EEELi0ENS_6StrideILi0ELi0EEEEENS2_IS4_Li0ES7_EELin1EE3runERKS8_RS9_"
 "_ZN5Eigen8internal15compute_inverseINS_6MatrixIdLin1ELin1ELi0ELin1ELin1EEES3_Lin1EE3runERKS3_RS3_"
 "_ZN5Eigen8internal15partial_lu_implIdLi0EiE10blocked_luExxPdxPiRix"
 "_ZN5Eigen8internal15partial_lu_implIdLi0EiE12unblocked_luERNS_5BlockINS_3MapINS_6MatrixIdLin1ELin1ELi0ELin1ELin1EEELi0ENS_6StrideILi0ELi0EEEEELin1ELin1ELb0EEEPiRi"
 "_ZN5Eigen8internal15queryCacheSizesERiS1_S1_"
 "_ZN5Eigen8internal16binary_evaluatorINS_13CwiseBinaryOpINS0_13scalar_sum_opIddEEKNS_12SparseMatrixIdLi0EiEES7_EENS0_13IteratorBasedES9_ddE13InnerIteratorppEv"
 "_ZN5Eigen8internal16binary_evaluatorINS_13CwiseBinaryOpINS0_13scalar_sum_opIN5TMBad6global6ad_augES6_EEKNS_12SparseMatrixIS6_Li0EiEESA_EENS0_13IteratorBasedESC_S6_S6_E13InnerIteratorppEv"
 "_ZN5Eigen8internal16binary_evaluatorINS_13CwiseBinaryOpINS0_13scalar_sum_opIN6atomic7tiny_ad8variableILi1ELi1EdEES7_EEKNS_12SparseMatrixIS7_Li0EiEESB_EENS0_13IteratorBasedESD_S7_S7_E13InnerIteratorppEv"
 "_ZN5Eigen8internal16parallelize_gemmILb1ENS0_12gemm_functorIdxNS0_29general_matrix_matrix_productIxdLi0ELb0EdLi0ELb0ELi0ELi1EEENS_6MatrixIdLin1ELin1ELi0ELin1ELin1EEES6_S6_NS0_19gemm_blocking_spaceILi0EddLin1ELin1ELin1ELi1ELb0EEEEExEEvRKT0_T1_SD_SD_b"
 "_ZN5Eigen8internal16parallelize_gemmILb1ENS0_12gemm_functorIdxNS0_29general_matrix_matrix_productIxdLi0ELb0EdLi1ELb0ELi0ELi1EEENS_6MatrixIdLin1ELin1ELi0ELin1ELin1EEENS_9TransposeIKS6_EES6_NS0_19gemm_blocking_spaceILi0EddLin1ELin1ELin1ELi1ELb0EEEEExEEvRKT0_T1_SG_SG_b"
 "_ZN5Eigen8internal17CompressedStorageIdiE10reallocateEx"
 "_ZN5Eigen8internal17CompressedStorageIdiE6resizeExd"
 "_ZN5Eigen8internal17CompressedStorageIdiED1Ev"
 "_ZN5Eigen8internal17CompressedStorageIiiE10reallocateEx"
 "_ZN5Eigen8internal17CompressedStorageIiiED1Ev"
 "_ZN5Eigen8internal17CompressedStorageIN5TMBad6global6ad_augEiE10reallocateEx"
 "_ZN5Eigen8internal17CompressedStorageIN5TMBad6global6ad_augEiE6resizeExd"
 "_ZN5Eigen8internal17CompressedStorageIN5TMBad6global6ad_augEiED1Ev"
 "_ZN5Eigen8internal17CompressedStorageIN6atomic7tiny_ad8variableILi1ELi1EdEEiE6resizeExd"
 "_ZN5Eigen8internal17CompressedStorageIN6atomic7tiny_ad8variableILi1ELi1EdEEiED1Ev"
 "_ZN5Eigen8internal17set_from_tripletsIN9__gnu_cxx17__normal_iteratorIPNS_7TripletIdiEESt6vectorIS5_SaIS5_EEEENS_12SparseMatrixIdLi0EiEENS0_13scalar_sum_opIddEEEEvRKT_SH_RT0_T1_"
 "_ZN5Eigen8internal17set_from_tripletsIN9__gnu_cxx17__normal_iteratorIPNS_7TripletIN5TMBad6global6ad_augEiEESt6vectorIS8_SaIS8_EEEENS_12SparseMatrixIS7_Li0EiEENS0_13scalar_sum_opIS7_S7_EEEEvRKT_SK_RT0_T1_"
 "_ZN5Eigen8internal18check_for_aliasingINS_6MatrixIdLin1ELin1ELi0ELin1ELin1EEENS_9TransposeINS_3MapIKS3_Li0ENS_6StrideILi0ELi0EEEEEEEEEvRKT_RKT0_"
 "_ZN5Eigen8internal18check_for_aliasingINS_6MatrixIdLin1ELin1ELi0ELin1ELin1EEENS_9TransposeIS3_EEEEvRKT_RKT0_"
 "_ZN5Eigen8internal18check_for_aliasingINS_6MatrixIN5TMBad6global6ad_augELin1ELin1ELi0ELin1ELin1EEENS_9TransposeIS6_EEEEvRKT_RKT0_"
 "_ZN5Eigen8internal18check_for_aliasingINS_9TransposeINS_3MapINS_6MatrixIdLin1ELin1ELi0ELin1ELin1EEELi0ENS_6StrideILi0ELi0EEEEEEES5_EEvRKT_RKT0_"
 "_ZN5Eigen8internal18check_for_aliasingINS_9TransposeINS_5ArrayIdLin1ELi1ELi0ELin1ELi1EEEEENS_5BlockINS_6MatrixIdLin1ELin1ELi0ELin1ELin1EEELi1ELin1ELb0EEEEEvRKT_RKT0_"
 "_ZN5Eigen8internal18check_for_aliasingINS_9TransposeINS_5ArrayIN5TMBad6global6ad_augELin1ELi1ELi0ELin1ELi1EEEEENS_5BlockINS_6MatrixIS6_Lin1ELin1ELi0ELin1ELin1EEELi1ELin1ELb0EEEEEvRKT_RKT0_"
 "_ZN5Eigen8internal19gemm_blocking_spaceILi0EddLin1ELin1ELin1ELi1ELb0EEC1Exxxxb"
 "_ZN5Eigen8internal19gemm_blocking_spaceILi0EddLin1ELin1ELin1ELi1ELb0EED1Ev"
 "_ZN5Eigen8internal19gemm_blocking_spaceILi0EddLin1ELin1ELin1ELi4ELb0EED1Ev"
 "_ZN5Eigen8internal19throw_std_bad_allocEv"
 "_ZN5Eigen8internal19variable_if_dynamicIxLi1EEC1Ex"
 "_ZN5Eigen8internal19variable_if_dynamicIxLi2EEC1Ex"
 "_ZN5Eigen8internal20generic_product_implINS_3MapIKNS_6MatrixIdLin1ELin1ELi0ELin1ELin1EEELi0ENS_6StrideILi0ELi0EEEEENS_9TransposeIS8_EENS_10DenseShapeESB_Li3EE12eval_dynamicIS4_S8_NS0_9assign_opIddEEEEvRT_RKT0_RKSA_RKT1_"
 "_ZN5Eigen8internal20generic_product_implINS_5BlockINS2_INS_3MapINS_6MatrixIdLin1ELin1ELi0ELin1ELin1EEELi0ENS_6StrideILi0ELi0EEEEELin1ELin1ELb0EEELin1ELin1ELb0EEESA_NS_10DenseShapeESB_Li3EE12eval_dynamicISA_SA_NS0_13sub_assign_opIddEEEEvRT_RKT0_RKSA_RKT1_"
 "_ZN5Eigen8internal20generic_product_implINS_6MatrixIdLin1ELin1ELi0ELin1ELin1EEENS_5SolveINS_4LDLTIS3_Li1EEENS_7ProductINS7_IS3_NS_9TransposeIS3_EELi0EEES3_Li0EEEEENS_10DenseShapeESD_Li8EE13scaleAndAddToIS3_EEvRT_RKS3_RKSC_RKd"
 "_ZN5Eigen8internal20generic_product_implINS_7ProductINS_6MatrixIdLin1ELin1ELi0ELin1ELin1EEENS_9TransposeIKS4_EELi0EEES4_NS_10DenseShapeES9_Li8EE13scaleAndAddToIS4_EEvRT_RKS8_RS6_RKd"
 "_ZN5Eigen8internal20generic_product_implINS_7ProductINS_6MatrixIdLin1ELin1ELi0ELin1ELin1EEENS_9TransposeIS4_EELi0EEES4_NS_10DenseShapeES8_Li8EE13scaleAndAddToIS4_EEvRT_RKS7_RKS4_RKd"
 "_ZN5Eigen8internal20manage_caching_sizesENS_6ActionEPxS2_S2_"
 "_ZN5Eigen8internal20permute_symm_to_symmILi1ELi2ENS_12SparseMatrixIdLi0EiEELi0EEEvRKT1_RNS2_INS4_6ScalarEXT2_ENS4_12StorageIndexEEEPKS8_"
 "_ZN5Eigen8internal20permute_symm_to_symmILi1ELi2ENS_12SparseMatrixIN5TMBad6global6ad_augELi0EiEELi0EEEvRKT1_RNS2_INS7_6ScalarEXT2_ENS7_12StorageIndexEEEPKSB_"
 "_ZN5Eigen8internal20permute_symm_to_symmILi1ELi2ENS_12SparseMatrixIN6atomic7tiny_ad8variableILi1ELi1EdEELi0EiEELi0EEEvRKT1_RNS2_INS8_6ScalarEXT2_ENS8_12StorageIndexEEEPKSC_"
 "_ZN5Eigen8internal21dense_assignment_loopINS0_31generic_dense_assignment_kernelINS0_9evaluatorINS_5BlockINS4_INS_3MapINS_6MatrixIdLin1ELin1ELi0ELin1ELin1EEELi0ENS_6StrideILi0ELi0EEEEELin1ELin1ELb0EEELin1ELin1ELb0EEEEENS3_INS_7ProductISC_SC_Li1EEEEENS0_13sub_assign_opIddEELi0EEELi4ELi0EE3runERSJ_"
 "_ZN5Eigen8internal21dense_assignment_loopINS0_31generic_dense_assignment_kernelINS0_9evaluatorINS_6MatrixIdLin1ELin1ELi0ELin1ELin1EEEEENS3_INS_7ProductINS_15DiagonalWrapperIKNS_12CwiseUnaryOpINS0_17scalar_inverse_opIdEEKNS4_IdLin1ELi1ELi0ELin1ELi1EEEEEEES5_Li1EEEEENS0_9assign_opIddEELi0EEELi4ELi0EE3runERSL_"
 "_ZN5Eigen8internal21dense_assignment_loopINS0_31generic_dense_assignment_kernelINS0_9evaluatorINS_6MatrixIdLin1ELin1ELi0ELin1ELin1EEEEENS3_INS_7ProductINS_3MapIKS5_Li0ENS_6StrideILi0ELi0EEEEENS_9TransposeISC_EELi1EEEEENS0_9assign_opIddEELi0EEELi4ELi0EE3runERSJ_"
 "_ZN5Eigen8internal21dense_assignment_loopINS0_31generic_dense_assignment_kernelINS0_9evaluatorINS_6MatrixIdLin1ELin1ELi0ELin1ELin1EEEEENS3_INS_7ProductINS_3MapIKS5_Li0ENS_6StrideILi0ELi0EEEEESC_Li1EEEEENS0_9assign_opIddEELi0EEELi4ELi0EE3runERSH_"
 "_ZN5Eigen8internal21dense_assignment_loopINS0_31generic_dense_assignment_kernelINS0_9evaluatorINS_6MatrixIdLin1ELin1ELi0ELin1ELin1EEEEENS3_INS_7ProductINS7_IS5_NS_9TransposeIKS5_EELi0EEES5_Li1EEEEENS0_9assign_opIddEELi0EEELi4ELi0EE3runERSG_"
 "_ZN5Eigen8internal21dense_assignment_loopINS0_31generic_dense_assignment_kernelINS0_9evaluatorINS_6MatrixIdLin1ELin1ELi0ELin1ELin1EEEEENS3_INS_7ProductINS7_IS5_NS_9TransposeIS5_EELi0EEES5_Li1EEEEENS0_9assign_opIddEELi0EEELi4ELi0EE3runERSF_"
 "_ZN5Eigen8internal21dense_assignment_loopINS0_31generic_dense_assignment_kernelINS0_9evaluatorINS_6MatrixIdLin1ELin1ELi0ELin1ELin1EEEEENS3_INS_7ProductIS5_NS_5SolveINS_4LDLTIS5_Li1EEENS7_INS7_IS5_NS_9TransposeIS5_EELi0EEES5_Li0EEEEELi1EEEEENS0_9assign_opIddEELi0EEELi4ELi0EE3runERSK_"
 "_ZN5Eigen8internal21dense_assignment_loopINS0_31generic_dense_assignment_kernelINS0_9evaluatorINS_6MatrixIdLin1ELin1ELi0ELin1ELin1EEEEENS3_INS_7ProductIS5_NS_9TransposeIKS5_EELi1EEEEENS0_9assign_opIddEELi0EEELi4ELi0EE3runERSF_"
 "_ZN5Eigen8internal21dense_assignment_loopINS0_31generic_dense_assignment_kernelINS0_9evaluatorINS_6MatrixIdLin1ELin1ELi0ELin1ELin1EEEEENS3_INS_7ProductIS5_NS_9TransposeIS5_EELi1EEEEENS0_9assign_opIddEELi0EEELi4ELi0EE3runERSE_"
 "_ZN5Eigen8internal21dense_assignment_loopINS0_31generic_dense_assignment_kernelINS0_9evaluatorINS_6MatrixIdLin1ELin1ELi0ELin1ELin1EEEEENS3_INS_7ProductIS5_S5_Li1EEEEENS0_9assign_opIddEELi0EEELi4ELi0EE3runERSC_"
 "_ZN5Eigen8internal23assign_sparse_to_sparseINS_12SparseMatrixIdLi0EiEENS_13CwiseBinaryOpINS0_13scalar_sum_opIddEEKS3_S7_EEEEvRT_RKT0_"
 "_ZN5Eigen8internal23assign_sparse_to_sparseINS_12SparseMatrixIdLi0EiEENS_13CwiseBinaryOpINS0_17scalar_product_opIddEEKS3_KNS_14CwiseNullaryOpINS0_18scalar_constant_opIdEEKNS_6MatrixIdLin1ELin1ELi0ELin1ELin1EEEEEEEEEvRT_RKT0_"
 "_ZN5Eigen8internal23assign_sparse_to_sparseINS_12SparseMatrixIdLi0EiEENS_14TriangularViewIKS3_Lj1EEEEEvRT_RKT0_"
 "_ZN5Eigen8internal23assign_sparse_to_sparseINS_12SparseMatrixIdLi0EiEENS_3MapIKS3_Li0ENS_6StrideILi0ELi0EEEEEEEvRT_RKT0_"
 "_ZN5Eigen8internal23assign_sparse_to_sparseINS_12SparseMatrixIdLi0EiEES3_EEvRT_RKT0_"
 "_ZN5Eigen8internal23assign_sparse_to_sparseINS_12SparseMatrixIiLi0EiEENS_3MapIKS3_Li0ENS_6StrideILi0ELi0EEEEEEEvRT_RKT0_"
 "_ZN5Eigen8internal23assign_sparse_to_sparseINS_12SparseMatrixIiLi0EiEES3_EEvRT_RKT0_"
 "_ZN5Eigen8internal23assign_sparse_to_sparseINS_12SparseMatrixIN5TMBad6global6ad_augELi0EiEENS_13CwiseBinaryOpINS0_13scalar_sum_opIS5_S5_EEKS6_SA_EEEEvRT_RKT0_"
 "_ZN5Eigen8internal23assign_sparse_to_sparseINS_12SparseMatrixIN5TMBad6global6ad_augELi0EiEENS_3MapIKS6_Li0ENS_6StrideILi0ELi0EEEEEEEvRT_RKT0_"
 "_ZN5Eigen8internal23assign_sparse_to_sparseINS_12SparseMatrixIN5TMBad6global6ad_augELi0EiEES6_EEvRT_RKT0_"
 "_ZN5Eigen8internal23assign_sparse_to_sparseINS_12SparseMatrixIN6atomic7tiny_ad8variableILi1ELi1EdEELi0EiEENS_13CwiseBinaryOpINS0_13scalar_sum_opIS6_S6_EEKS7_SB_EEEEvRT_RKT0_"
 "_ZN5Eigen8internal23assign_sparse_to_sparseINS_12SparseMatrixIN6atomic7tiny_ad8variableILi1ELi1EdEELi0EiEENS_13CwiseBinaryOpINS0_17scalar_product_opIS6_S6_EEKS7_KNS_14CwiseNullaryOpINS0_18scalar_constant_opIS6_EEKNS_6MatrixIS6_Lin1ELin1ELi0ELin1ELin1EEEEEEEEEvRT_RKT0_"
 "_ZN5Eigen8internal23assign_sparse_to_sparseINS_12SparseMatrixIN6atomic7tiny_ad8variableILi1ELi1EdEELi0EiEENS_14TriangularViewIKS7_Lj1EEEEEvRT_RKT0_"
 "_ZN5Eigen8internal23assign_sparse_to_sparseINS_12SparseMatrixIN6atomic7tiny_ad8variableILi1ELi1EdEELi0EiEENS_3MapIKS7_Li0ENS_6StrideILi0ELi0EEEEEEEvRT_RKT0_"
 "_ZN5Eigen8internal23assign_sparse_to_sparseINS_12SparseMatrixIN6atomic7tiny_ad8variableILi1ELi1EdEELi0EiEES7_EEvRT_RKT0_"
 "_ZN5Eigen8internal23minimum_degree_orderingIdiEEvRNS_12SparseMatrixIT_Li0ET0_EERNS_17PermutationMatrixILin1ELin1ES4_EE"
 "_ZN5Eigen8internal23minimum_degree_orderingIN5TMBad6global6ad_augEiEEvRNS_12SparseMatrixIT_Li0ET0_EERNS_17PermutationMatrixILin1ELin1ES7_EE"
 "_ZN5Eigen8internal23minimum_degree_orderingIN6atomic7tiny_ad8variableILi1ELi1EdEEiEEvRNS_12SparseMatrixIT_Li0ET0_EERNS_17PermutationMatrixILin1ELin1ES8_EE"
 "_ZN5Eigen8internal23triangular_solve_matrixIdxLi1ELi1ELb0ELi0ELi0ELi1EE3runExxPKdxPdxxRNS0_15level3_blockingIddEE"
 "_ZN5Eigen8internal23triangular_solve_matrixIdxLi1ELi2ELb0ELi0ELi0ELi1EE3runExxPKdxPdxxRNS0_15level3_blockingIddEE"
 "_ZN5Eigen8internal23triangular_solve_matrixIdxLi1ELi2ELb0ELi1ELi0ELi1EE3runExxPKdxPdxxRNS0_15level3_blockingIddEE"
 "_ZN5Eigen8internal23triangular_solve_matrixIdxLi1ELi5ELb0ELi0ELi0ELi1EE3runExxPKdxPdxxRNS0_15level3_blockingIddEE"
 "_ZN5Eigen8internal23triangular_solve_matrixIdxLi1ELi6ELb0ELi1ELi0ELi1EE3runExxPKdxPdxxRNS0_15level3_blockingIddEE"
 "_ZN5Eigen8internal23triangular_solve_matrixIdxLi2ELi2ELb0ELi1ELi0ELi1EE3runExxPKdxPdxxRNS0_15level3_blockingIddEE"
 "_ZN5Eigen8internal24permute_symm_to_fullsymmILi1ENS_12SparseMatrixIdLi0EiEELi0EEEvRKT0_RNS2_INS4_6ScalarEXT1_ENS4_12StorageIndexEEEPKS8_"
 "_ZN5Eigen8internal24permute_symm_to_fullsymmILi1ENS_12SparseMatrixIN5TMBad6global6ad_augELi0EiEELi0EEEvRKT0_RNS2_INS7_6ScalarEXT1_ENS7_12StorageIndexEEEPKSB_"
 "_ZN5Eigen8internal24permute_symm_to_fullsymmILi1ENS_12SparseMatrixIN6atomic7tiny_ad8variableILi1ELi1EdEELi0EiEELi0EEEvRKT0_RNS2_INS8_6ScalarEXT1_ENS8_12StorageIndexEEEPKSC_"
 "_ZN5Eigen8internal25ordering_helper_at_plus_aINS_12SparseMatrixIdLi0EiEEEEvRKT_RS4_"
 "_ZN5Eigen8internal25ordering_helper_at_plus_aINS_12SparseMatrixIN5TMBad6global6ad_augELi0EiEEEEvRKT_RS7_"
 "_ZN5Eigen8internal25ordering_helper_at_plus_aINS_12SparseMatrixIN6atomic7tiny_ad8variableILi1ELi1EdEELi0EiEEEEvRKT_RS8_"
 "_ZN5Eigen8internal26call_dense_assignment_loopINS_12ArrayWrapperINS_8DiagonalINS_12SparseMatrixIdLi0EiEELi0EEEEENS_5ArrayIdLin1ELi1ELi0ELin1ELi1EEENS0_9assign_opIddEEEEvRT_RKT0_RKT1_"
 "_ZN5Eigen8internal26call_dense_assignment_loopINS_3MapINS_6MatrixIdLin1ELin1ELi0ELin1ELin1EEELi0ENS_6StrideILi0ELi0EEEEES4_NS0_9assign_opIddEEEEvRT_RKT0_RKT1_"
 "_ZN5Eigen8internal26call_dense_assignment_loopINS_3MapINS_6MatrixIdLin1ELin1ELi0ELin1ELin1EEELi0ENS_6StrideILi0ELi0EEEEES7_NS0_13add_assign_opIddEEEEvRT_RKT0_RKT1_"
 "_ZN5Eigen8internal26call_dense_assignment_loopINS_3MapINS_6MatrixIN5TMBad6global6ad_augELin1ELin1ELi0ELin1ELin1EEELi0ENS_6StrideILi0ELi0EEEEESA_NS0_13add_assign_opIS6_S6_EEEEvRT_RKT0_RKT1_"
 "_ZN5Eigen8internal26call_dense_assignment_loopINS_5ArrayIdLin1ELi1ELi0ELin1ELi1EEES3_NS0_9assign_opIddEEEEvRT_RKT0_RKT1_"
 "_ZN5Eigen8internal26call_dense_assignment_loopINS_6MatrixIdLin1ELin1ELi0ELin1ELin1EEENS_12CwiseUnaryOpINS0_13scalar_exp_opIdEEKNS_12ArrayWrapperIS3_EEEENS0_9assign_opIddEEEEvRT_RKT0_RKT1_"
 "_ZN5Eigen8internal26call_dense_assignment_loopINS_6MatrixIdLin1ELin1ELi0ELin1ELin1EEENS_13CwiseBinaryOpINS0_13scalar_sum_opIddEEKS3_S7_EENS0_9assign_opIddEEEEvRT_RKT0_RKT1_"
 "_ZN5Eigen8internal26call_dense_assignment_loopINS_6MatrixIdLin1ELin1ELi0ELin1ELin1EEENS_7ProductINS_9TransposeINS_3MapIKS3_Li0ENS_6StrideILi0ELi0EEEEEEESA_Li1EEENS0_9assign_opIddEEEEvRT_RKT0_RKT1_"
 "_ZN5Eigen8internal26call_dense_assignment_loopINS_6MatrixIdLin1ELin1ELi0ELin1ELin1EEENS_7ProductINS_9TransposeINS_3MapIKS3_Li0ENS_6StrideILi0ELi0EEEEEEESB_Li1EEENS0_9assign_opIddEEEEvRT_RKT0_RKT1_"
 "_ZN5Eigen8internal26call_dense_assignment_loopINS_6MatrixIdLin1ELin1ELi0ELin1ELin1EEES3_NS0_9assign_opIddEEEEvRT_RKT0_RKT1_"
 "_ZN5Eigen8internal26outer_product_selector_runINS_5BlockINS2_INS_3MapINS_6MatrixIdLin1ELin1ELi0ELin1ELin1EEELi0ENS_6StrideILi0ELi0EEEEELin1ELin1ELb0EEELin1ELin1ELb0EEENS2_INS2_IS9_Lin1ELi1ELb1EEELin1ELi1ELb0EEENS2_INS2_IS9_Li1ELin1ELb0EEELi1ELin1ELb0EEENS0_20generic_product_implISC_SE_NS_10DenseShapeESG_Li5EE3subEEEvRT_RKT0_RKT1_RKT2_RKNS0_10false_typeE"
 "_ZN5Eigen8internal26outer_product_selector_runINS_6MatrixIdLin1ELin1ELi0ELin1ELin1EEENS_13MatrixWrapperIKNS_5ArrayIdLin1ELi1ELi0ELin1ELi1EEEEENS_9TransposeIKS8_EENS0_20generic_product_implIS8_SB_NS_10DenseShapeESD_Li5EE3setEEEvRT_RKT0_RKT1_RKT2_RKNS0_10false_typeE"
 "_ZN5Eigen8internal26outer_product_selector_runINS_6MatrixIN5TMBad6global6ad_augELin1ELin1ELi0ELin1ELin1EEENS_13MatrixWrapperIKNS_5ArrayIS5_Lin1ELi1ELi0ELin1ELi1EEEEENS_9TransposeIKSB_EENS0_20generic_product_implISB_SE_NS_10DenseShapeESG_Li5EE3setEEEvRT_RKT0_RKT1_RKT2_RKNS0_10false_typeE"
 "_ZN5Eigen8internal26permutation_matrix_productINS_14CwiseNullaryOpINS0_18scalar_identity_opIdEENS_6MatrixIdLin1ELin1ELi0ELin1ELin1EEEEELi1ELb0ENS_10DenseShapeEE3runINS_3MapIS6_Li0ENS_6StrideILi0ELi0EEEEENS_17PermutationMatrixILin1ELin1EiEEEEvRT_RKT0_RKS7_"
 "_ZN5Eigen8internal26permutation_matrix_productINS_14CwiseNullaryOpINS0_18scalar_identity_opIdEENS_6MatrixIdLin1ELin1ELi0ELin1ELin1EEEEELi1ELb0ENS_10DenseShapeEE3runIS6_NS_17PermutationMatrixILin1ELin1EiEEEEvRT_RKT0_RKS7_"
 "_ZN5Eigen8internal26permutation_matrix_productINS_6MatrixIdLin1ELin1ELi0ELin1ELin1EEELi1ELb0ENS_10DenseShapeEE3runIS3_NS_17PermutationMatrixILin1ELin1EiEEEEvRT_RKT0_RKS3_"
 "_ZN5Eigen8internal27queryCacheSizes_intel_codesERiS1_S1_"
 "_ZN5Eigen8internal28transposition_matrix_productINS_7ProductINS2_INS_6MatrixIdLin1ELin1ELi0ELin1ELin1EEENS_9TransposeIS4_EELi0EEES4_Li0EEELi1ELb0ENS_10DenseShapeEE3runIS4_NS_14TranspositionsILin1ELin1EiEEEEvRT_RKT0_RKS8_"
 "_ZN5Eigen8internal29general_matrix_matrix_productIxdLi0ELb0EdLi0ELb0ELi0ELi1EE3runExxxPKdxS4_xPdxxdRNS0_15level3_blockingIddEEPNS0_16GemmParallelInfoIxEE"
 "_ZN5Eigen8internal29general_matrix_matrix_productIxdLi0ELb0EdLi1ELb0ELi0ELi1EE3runExxxPKdxS4_xPdxxdRNS0_15level3_blockingIddEEPNS0_16GemmParallelInfoIxEE"
 "_ZN5Eigen8internal29general_matrix_matrix_productIxdLi1ELb0EdLi0ELb0ELi0ELi1EE3runExxxPKdxS4_xPdxxdRNS0_15level3_blockingIddEEPNS0_16GemmParallelInfoIxEE"
 "_ZN5Eigen8internal29general_matrix_matrix_productIxdLi1ELb0EdLi1ELb0ELi0ELi1EE3runExxxPKdxS4_xPdxxdRNS0_15level3_blockingIddEEPNS0_16GemmParallelInfoIxEE"
 "_ZN5Eigen8internal29general_matrix_vector_productIxdNS0_22const_blas_data_mapperIdxLi0EEELi0ELb0EdNS2_IdxLi1EEELb0ELi0EE3runExxRKS3_RKS4_Pdxd"
 "_ZN5Eigen8internal31conditional_aligned_delete_autoIPKcLb1EEEvPT_y"
 "_ZN5Eigen8internal31conditional_aligned_delete_autoIPN5TMBad5ADFunINS2_6global6ad_augEEELb1EEEvPT_y"
 "_ZN5Eigen8internal31conditional_aligned_delete_autoIyLb1EEEvPT_y"
 "_ZN5Eigen8internal31generic_dense_assignment_kernelINS0_9evaluatorINS_6MatrixIN5TMBad6global6ad_augELi2ELi1ELi0ELi2ELi1EEEEENS2_INS_7ProductINS3_IS6_Li2ELi2ELi0ELi2ELi2EEES7_Li1EEEEENS0_9assign_opIS6_S6_EELi0EE11assignCoeffEx"
 "_ZN5Eigen8internal31generic_dense_assignment_kernelINS0_9evaluatorINS_6MatrixIN5TMBad6global6ad_augELi2ELi1ELi0ELi2ELi1EEEEENS2_INS_7ProductINS3_IS6_Li2ELi4ELi0ELi2ELi4EEENS3_IS6_Li4ELi1ELi0ELi4ELi1EEELi1EEEEENS0_9assign_opIS6_S6_EELi0EE11assignCoeffEx"
 "_ZN5Eigen8internal31generic_dense_assignment_kernelINS0_9evaluatorINS_6MatrixIN5TMBad6global6ad_augELi2ELi1ELi0ELi2ELi1EEEEENS2_INS_7ProductIS7_NS3_IS6_Li1ELi1ELi0ELi1ELi1EEELi1EEEEENS0_9assign_opIS6_S6_EELi0EE11assignCoeffEx"
 "_ZN5Eigen8internal32sparse_solve_triangular_selectorIKNS_12SparseMatrixIdLi0EiEENS_6MatrixIdLin1ELin1ELi0ELin1ELin1EEELi1ELi1ELi0EE3runERS4_RS6_"
 "_ZN5Eigen8internal32sparse_solve_triangular_selectorIKNS_9TransposeIKNS_12SparseMatrixIdLi0EiEEEENS_6MatrixIdLin1ELin1ELi0ELin1ELin1EEELi2ELi2ELi1EE3runERS7_RS9_"
 "_ZN5Eigen8internal37evaluateProductBlockingSizesHeuristicIddLi1ExEEvRT2_S3_S3_S2_"
 "_ZN5Eigen8internal37evaluateProductBlockingSizesHeuristicIddLi4ExEEvRT2_S3_S3_S2_"
 "_ZN5Eigen8internal40general_matrix_matrix_triangular_productIxdLi0ELb0EdLi1ELb0ELi0ELi1ELi1ELi0EE3runExxPKdxS4_xPdxxRS3_RNS0_15level3_blockingIddEE"
 "_ZN5Eigen8internal7cs_tdfsIiEET_S2_S2_PS2_PKS2_S3_S3_"
 "_ZN5Eigen9ArrayBaseINS_12ArrayWrapperINS_8DiagonalINS_6MatrixIdLin1ELin1ELi0ELin1ELin1EEELi0EEEEEEpLERKd"
 "_ZN5Eigen9ArrayBaseINS_12ArrayWrapperINS_8DiagonalINS_6MatrixIN5TMBad6global6ad_augELin1ELin1ELi0ELin1ELin1EEELi0EEEEEEpLERKS6_"
 "_ZN5Eigen9DenseBaseINS_3MapINS_6MatrixIiLin1ELi1ELi0ELin1ELi1EEELi0ENS_6StrideILi0ELi0EEEEEE11setConstantERKi"
 "_ZN5Eigen9DenseBaseINS_5ArrayIdLin1ELi1ELi0ELin1ELi1EEEE11setConstantERKd"
 "_ZN5Eigen9DenseBaseINS_5BlockINS_6MatrixIdLin1ELin1ELi0ELin1ELin1EEELin1ELi1ELb0EEEEdVERKd"
 "_ZN5Eigen9DenseBaseINS_6MatrixIbLin1ELi1ELi0ELin1ELi1EEEE11setConstantERKb"
 "_ZN5Eigen9DenseBaseINS_6MatrixIdLin1ELin1ELi0ELin1ELin1EEEE11setConstantERKd"
 "_ZN5Eigen9DenseBaseINS_6MatrixIiLin1ELi1ELi0ELin1ELi1EEEE11setConstantERKi"
 "_ZN5Eigen9DenseBaseINS_8DiagonalINS_12SparseMatrixIdLi0EiEELi0EEEEmLERKd"
 "_ZN5Eigen9DenseBaseINS_8DiagonalINS_12SparseMatrixIN5TMBad6global6ad_augELi0EiEELi0EEEEmLERKS5_"
 "_ZN5Eigen9DenseBaseINS_8DiagonalINS_12SparseMatrixIN6atomic7tiny_ad8variableILi1ELi1EdEELi0EiEELi0EEEEmLERKS6_"
 "_ZN5EigenmlINS_17PermutationMatrixILin1ELin1EiEENS_14CwiseNullaryOpINS_8internal18scalar_identity_opIdEENS_6MatrixIdLin1ELin1ELi0ELin1ELin1EEEEEEEKNS_7ProductIT_T0_Li2EEERKNS_15PermutationBaseISB_EERKNS_10MatrixBaseISC_EE"
 "_ZN5EigenmlINS_17PermutationMatrixILin1ELin1EiEENS_6MatrixIdLin1ELin1ELi0ELin1ELin1EEEEEKNS_7ProductIT_T0_Li2EEERKNS_15PermutationBaseIS6_EERKNS_10MatrixBaseIS7_EE"
 "_ZN5radix15first_occuranceIjjEESt6vectorIT_SaIS2_EERKS1_IT0_SaIS5_EE"
 "_ZN5radix15first_occuranceIjyEESt6vectorIT_SaIS2_EERKS1_IT0_SaIS5_EE"
 "_ZN5radix5orderIjjEESt6vectorIT_SaIS2_EERKS1_IT0_SaIS5_EE"
 "_ZN5radix5radixIjjE8run_sortILb1EEEvv"
 "_ZN5radix5radixIjjED1Ev"
 "_ZN5radix5radixIyjE8run_sortILb1EEEvv"
 "_ZN5radix6factorIjjEESt6vectorIT_SaIS2_EERKS1_IT0_SaIS5_EE"
 "_ZN5TMBad10global_ptrE"
 "_ZN5TMBad10substituteERNS_6globalEPKcbb"
 "_ZN5TMBad10substituteERNS_6globalERKSt6vectorIjSaIjEEbb"
 "_ZN5TMBad11code_config20write_header_commentEv"
 "_ZN5TMBad11code_config8void_strB5cxx11Ev"
 "_ZN5TMBad11code_config9float_ptrB5cxx11Ev"
 "_ZN5TMBad11code_config9init_codeEv"
 "_ZN5TMBad11code_configC1ERKS0_"
 "_ZN5TMBad11code_configC1Ev"
 "_ZN5TMBad11code_configC2Ev"
 "_ZN5TMBad11code_configD1Ev"
 "_ZN5TMBad11CondExpEqOp7forwardERNS_11ForwardArgsIdEE"
 "_ZN5TMBad11CondExpEqOp7forwardERNS_11ForwardArgsINS_6global6ad_augEEE"
 "_ZN5TMBad11CondExpEqOp7forwardERNS_11ForwardArgsINS_6WriterEEE"
 "_ZN5TMBad11CondExpEqOp7op_nameEv"
 "_ZN5TMBad11CondExpEqOp7reverseERNS_11ReverseArgsIdEE"
 "_ZN5TMBad11CondExpEqOp7reverseERNS_11ReverseArgsINS_6global6ad_augEEE"
 "_ZN5TMBad11CondExpEqOp7reverseERNS_11ReverseArgsINS_6WriterEEE"
 "_ZN5TMBad11CondExpGeOp7forwardERNS_11ForwardArgsIdEE"
 "_ZN5TMBad11CondExpGeOp7forwardERNS_11ForwardArgsINS_6global6ad_augEEE"
 "_ZN5TMBad11CondExpGeOp7forwardERNS_11ForwardArgsINS_6WriterEEE"
 "_ZN5TMBad11CondExpGeOp7op_nameEv"
 "_ZN5TMBad11CondExpGeOp7reverseERNS_11ReverseArgsIdEE"
 "_ZN5TMBad11CondExpGeOp7reverseERNS_11ReverseArgsINS_6global6ad_augEEE"
 "_ZN5TMBad11CondExpGeOp7reverseERNS_11ReverseArgsINS_6WriterEEE"
 "_ZN5TMBad11CondExpGtOp7forwardERNS_11ForwardArgsIdEE"
 "_ZN5TMBad11CondExpGtOp7forwardERNS_11ForwardArgsINS_6global6ad_augEEE"
 "_ZN5TMBad11CondExpGtOp7forwardERNS_11ForwardArgsINS_6WriterEEE"
 "_ZN5TMBad11CondExpGtOp7op_nameEv"
 "_ZN5TMBad11CondExpGtOp7reverseERNS_11ReverseArgsIdEE"
 "_ZN5TMBad11CondExpGtOp7reverseERNS_11ReverseArgsINS_6global6ad_augEEE"
 "_ZN5TMBad11CondExpGtOp7reverseERNS_11ReverseArgsINS_6WriterEEE"
 "_ZN5TMBad11CondExpLeOp7forwardERNS_11ForwardArgsIdEE"
 "_ZN5TMBad11CondExpLeOp7forwardERNS_11ForwardArgsINS_6global6ad_augEEE"
 "_ZN5TMBad11CondExpLeOp7forwardERNS_11ForwardArgsINS_6WriterEEE"
 "_ZN5TMBad11CondExpLeOp7op_nameEv"
 "_ZN5TMBad11CondExpLeOp7reverseERNS_11ReverseArgsIdEE"
 "_ZN5TMBad11CondExpLeOp7reverseERNS_11ReverseArgsINS_6global6ad_augEEE"
 "_ZN5TMBad11CondExpLeOp7reverseERNS_11ReverseArgsINS_6WriterEEE"
 "_ZN5TMBad11CondExpLtOp7forwardERNS_11ForwardArgsIdEE"
 "_ZN5TMBad11CondExpLtOp7forwardERNS_11ForwardArgsINS_6global6ad_augEEE"
 "_ZN5TMBad11CondExpLtOp7forwardERNS_11ForwardArgsINS_6WriterEEE"
 "_ZN5TMBad11CondExpLtOp7op_nameEv"
 "_ZN5TMBad11CondExpLtOp7reverseERNS_11ReverseArgsIdEE"
 "_ZN5TMBad11CondExpLtOp7reverseERNS_11ReverseArgsINS_6global6ad_augEEE"
 "_ZN5TMBad11CondExpLtOp7reverseERNS_11ReverseArgsINS_6WriterEEE"
 "_ZN5TMBad11CondExpNeOp7forwardERNS_11ForwardArgsIdEE"
 "_ZN5TMBad11CondExpNeOp7forwardERNS_11ForwardArgsINS_6global6ad_augEEE"
 "_ZN5TMBad11CondExpNeOp7forwardERNS_11ForwardArgsINS_6WriterEEE"
 "_ZN5TMBad11CondExpNeOp7op_nameEv"
 "_ZN5TMBad11CondExpNeOp7reverseERNS_11ReverseArgsIdEE"
 "_ZN5TMBad11CondExpNeOp7reverseERNS_11ReverseArgsINS_6global6ad_augEEE"
 "_ZN5TMBad11CondExpNeOp7reverseERNS_11ReverseArgsINS_6WriterEEE"
 "_ZN5TMBad11ForwardArgsINS_6WriterEE1xEj"
 "_ZN5TMBad11ForwardArgsINS_6WriterEE1yEj"
 "_ZN5TMBad11IndependentINS_6global6ad_augEEEvRSt6vectorIT_SaIS4_EE"
 "_ZN5TMBad11ReverseArgsINS_6WriterEE1xEj"
 "_ZN5TMBad11ReverseArgsINS_6WriterEE1yEj"
 "_ZN5TMBad11ReverseArgsINS_6WriterEE2dxEj"
 "_ZN5TMBad11ReverseArgsINS_6WriterEE2dyEj"
 "_ZN5TMBad11segment_refINS_11ForwardArgsIdEELNS_11ArrayAccessE0EEcvT_IN6newton6vectorIdEEEEv"
 "_ZN5TMBad11segment_refINS_11ReverseArgsIdEELNS_11ArrayAccessE5EEcvT_IN6newton6vectorIdEEEEv"
 "_ZN5TMBad11segment_refINS_11ReverseArgsINS_6global6ad_augEEELNS_11ArrayAccessE5EEcvT_IN6newton6vectorIS3_EEEEv"
 "_ZN5TMBad12ad_aug_indexC1ERKj"
 "_ZN5TMBad12ad_aug_indexC1ERKNS_6global6ad_augE"
 "_ZN5TMBad12ad_aug_indexC1ERKNS_6global8ad_plainE"
 "_ZN5TMBad12ad_aug_indexC2ERKj"
 "_ZN5TMBad12ad_aug_indexC2ERKNS_6global6ad_augE"
 "_ZN5TMBad12ad_aug_indexC2ERKNS_6global8ad_plainE"
 "_ZN5TMBad12Dependencies11add_segmentEjj"
 "_ZN5TMBad12Dependencies12add_intervalEjj"
 "_ZN5TMBad12Dependencies26monotone_transform_inplaceERKSt6vectorIjSaIjEE"
 "_ZN5TMBad12Dependencies5clearEv"
 "_ZN5TMBad12DependenciesC1Ev"
 "_ZN5TMBad12DependenciesC2Ev"
 "_ZN5TMBad12DependenciesD1Ev"
 "_ZN5TMBad12logspace_sumERKSt6vectorINS_6global8ad_plainESaIS2_EE"
 "_ZN5TMBad12sort_inplaceISt4pairIjyEEEvRSt6vectorIT_SaIS4_EE"
 "_ZN5TMBad12sort_inplaceISt4pairIyyEEEvRSt6vectorIT_SaIS4_EE"
 "_ZN5TMBad12split_periodEPNS_6globalENS_6periodEy"
 "_ZN5TMBad12write_commonERNSt7__cxx1119basic_ostringstreamIcSt11char_traitsIcESaIcEEENS_11code_configEy"
 "_ZN5TMBad13getContiguousINS_6global6ad_augEEESt6vectorIT_SaIS4_EERKS6_"
 "_ZN5TMBad13getContiguousINS_6global8ad_plainEEESt6vectorIT_SaIS4_EERKS6_"
 "_ZN5TMBad13inv_positionsERNS_6globalE"
 "_ZN5TMBad13LogSpaceSumOp7forwardERNS_11ForwardArgsIdEE"
 "_ZN5TMBad13LogSpaceSumOp7forwardERNS_11ForwardArgsINS_6global6ad_augEEE"
 "_ZN5TMBad13LogSpaceSumOp7op_nameEv"
 "_ZN5TMBad13LogSpaceSumOp7reverseINS_6WriterEEEvRNS_11ReverseArgsIT_EE"
 "_ZN5TMBad13LogSpaceSumOpC1Ey"
 "_ZN5TMBad13LogSpaceSumOpC2Ey"
 "_ZN5TMBad13reorder_graphERNS_6globalESt6vectorIjSaIjEE"
 "_ZN5TMBad13searchReplaceERNSt7__cxx1112basic_stringIcSt11char_traitsIcESaIcEEERKS5_S8_"
 "_ZN5TMBad13write_forwardERNS_6globalENS_11code_configE"
 "_ZN5TMBad13write_reverseERNS_6globalENS_11code_configE"
 "_ZN5TMBad14ad_plain_indexC1ERKj"
 "_ZN5TMBad14ad_plain_indexC1ERKNS_6global8ad_plainE"
 "_ZN5TMBad14ad_plain_indexC2ERKj"
 "_ZN5TMBad14ad_plain_indexC2ERKNS_6global8ad_plainE"
 "_ZN5TMBad14logIntegrate_tINS_8adaptiveINS_6global6ad_augEEEE17rescale_integrandERKSt6vectorINS2_8ad_plainESaIS7_EE"
 "_ZN5TMBad14logIntegrate_tINS_8adaptiveINS_6global6ad_augEEEEclERKSt6vectorINS2_8ad_plainESaIS7_EE"
 "_ZN5TMBad15all_allow_remapERKNS_6globalE"
 "_ZN5TMBad15contiguousBlockIN5Eigen6MatrixINS_6global6ad_augELin1ELin1ELi0ELin1ELin1EEEEENS3_8ad_rangeERKT_"
 "_ZN5TMBad15find_op_by_nameERNS_6globalEPKc"
 "_ZN5TMBad15forceContiguousINS_6global6ad_augEEEvRSt6vectorIT_SaIS4_EE"
 "_ZN5TMBad15forceContiguousINS_6global8ad_plainEEEvRSt6vectorIT_SaIS4_EE"
 "_ZN5TMBad15SpJacFun_configC1Ev"
 "_ZN5TMBad15SpJacFun_configC2Ev"
 "_ZN5TMBad16compressed_input11test_periodERSt6vectorIxSaIxEEy"
 "_ZN5TMBad16compressed_input12reverse_initERNS_4ArgsIvEE"
 "_ZN5TMBad16compressed_input13find_shortestERSt6vectorIxSaIxEE"
 "_ZN5TMBad16compressed_inputC1ERSt6vectorIjSaIjEEyyyyy"
 "_ZN5TMBad16compressed_inputC1Ev"
 "_ZN5TMBad16compressed_inputC2ERSt6vectorIjSaIjEEyyyyy"
 "_ZN5TMBad16compressed_inputC2Ev"
 "_ZN5TMBad16reverse_boundaryERNS_6globalERKSt6vectorIbSaIbEE"
 "_ZN5TMBad18integrate_subgraph22try_integrate_variableEj"
 "_ZN5TMBad18integrate_subgraph2gkEv"
 "_ZN5TMBad18integrate_subgraphC1ERNS_6globalESt6vectorIjSaIjEENS_9gk_configE"
 "_ZN5TMBad18integrate_subgraphC2ERNS_6globalESt6vectorIjSaIjEENS_9gk_configE"
 "_ZN5TMBad18integrate_subgraphD1Ev"
 "_ZN5TMBad18make_space_inplaceIPNS_6global12OperatorPureEjEEvRSt6vectorIT_SaIS5_EERS4_IT0_SaIS9_EES5_"
 "_ZN5TMBad18multivariate_index4flipEv"
 "_ZN5TMBad18multivariate_index4maskEy"
 "_ZN5TMBad18multivariate_index5countEv"
 "_ZN5TMBad18multivariate_index5indexEv"
 "_ZN5TMBad18multivariate_index5indexEy"
 "_ZN5TMBad18multivariate_index8set_maskERKSt6vectorIbSaIbEE"
 "_ZN5TMBad18multivariate_indexC1ESt6vectorIySaIyEEb"
 "_ZN5TMBad18multivariate_indexC1Eyyb"
 "_ZN5TMBad18multivariate_indexC2ESt6vectorIySaIyEEb"
 "_ZN5TMBad18multivariate_indexC2Eyyb"
 "_ZN5TMBad18multivariate_indexcvyEv"
 "_ZN5TMBad18multivariate_indexD1Ev"
 "_ZN5TMBad18multivariate_indexppEv"
 "_ZN5TMBad19logspace_sum_strideERKSt6vectorINS_6global8ad_plainESaIS2_EERKS0_IjSaIjEEy"
 "_ZN5TMBad19LogSpaceSumStrideOp7forwardERNS_11ForwardArgsIdEE"
 "_ZN5TMBad19LogSpaceSumStrideOp7forwardERNS_11ForwardArgsINS_6global6ad_augEEE"
 "_ZN5TMBad19LogSpaceSumStrideOp7forwardERNS_11ForwardArgsINS_6WriterEEE"
 "_ZN5TMBad19LogSpaceSumStrideOp7op_nameEv"
 "_ZN5TMBad19LogSpaceSumStrideOp7reverseERNS_11ReverseArgsINS_6WriterEEE"
 "_ZN5TMBad19LogSpaceSumStrideOp7reverseIdEEvRNS_11ReverseArgsIT_EE"
 "_ZN5TMBad19LogSpaceSumStrideOp7reverseINS_6global6ad_augEEEvRNS_11ReverseArgsIT_EE"
 "_ZN5TMBad19LogSpaceSumStrideOpC1ESt6vectorIjSaIjEEy"
 "_ZN5TMBad19LogSpaceSumStrideOpC2ESt6vectorIjSaIjEEy"
 "_ZN5TMBad19reorder_depth_firstERNS_6globalE"
 "_ZN5TMBad19reorder_temporariesERNS_6globalE"
 "_ZN5TMBad19sort_unique_inplaceIjEEvRSt6vectorIT_SaIS2_EE"
 "_ZN5TMBad20sequential_reduction10get_resultEv"
 "_ZN5TMBad20sequential_reduction10update_allEv"
 "_ZN5TMBad20sequential_reduction12show_cliquesEv"
 "_ZN5TMBad20sequential_reduction14reorder_randomEv"
 "_ZN5TMBad20sequential_reduction15get_grid_boundsESt6vectorIjSaIjEE"
 "_ZN5TMBad20sequential_reduction5mergeEj"
 "_ZN5TMBad20sequential_reduction6updateEj"
 "_ZN5TMBad20sequential_reduction8get_gridESt6vectorIjSaIjEE"
 "_ZN5TMBad20sequential_reduction8marginalEv"
 "_ZN5TMBad20sequential_reduction8tabulateESt6vectorIjSaIjEEj"
 "_ZN5TMBad20sequential_reductionC1ERNS_6globalESt6vectorIjSaIjEES3_INS_7sr_gridESaIS6_EES5_b"
 "_ZN5TMBad20sequential_reductionC2ERNS_6globalESt6vectorIjSaIjEES3_INS_7sr_gridESaIS6_EES5_b"
 "_ZN5TMBad20sequential_reductionD1Ev"
 "_ZN5TMBad21get_accumulation_treeERNS_6globalEb"
 "_ZN5TMBad23accumulation_tree_splitENS_6globalEb"
 "_ZN5TMBad23reorder_sub_expressionsERNS_6globalE"
 "_ZN5TMBad31remap_identical_sub_expressionsERNS_6globalE"
 "_ZN5TMBad31remap_identical_sub_expressionsERNS_6globalESt6vectorIjSaIjEE"
 "_ZN5TMBad32get_likely_expression_duplicatesERKNS_6globalESt6vectorIjSaIjEE"
 "_ZN5TMBad3cosERKNS_6global6ad_augE"
 "_ZN5TMBad3cosERKNS_6global8ad_plainE"
 "_ZN5TMBad3cosERKNS_6WriterE"
 "_ZN5TMBad3cosERKNS_8adaptiveINS_6global6ad_augEEE"
 "_ZN5TMBad3expERKNS_6global6ad_augE"
 "_ZN5TMBad3expERKNS_6global8ad_plainE"
 "_ZN5TMBad3expERKNS_6WriterE"
 "_ZN5TMBad3expERKNS_8adaptiveINS_6global6ad_augEEE"
 "_ZN5TMBad3ge0ERKd"
 "_ZN5TMBad3ge0ERKNS_6global6ad_augE"
 "_ZN5TMBad3ge0ERKNS_6global8ad_plainE"
 "_ZN5TMBad3ge0ERKNS_6WriterE"
 "_ZN5TMBad3logERKNS_6global6ad_augE"
 "_ZN5TMBad3logERKNS_6global8ad_plainE"
 "_ZN5TMBad3logERKNS_6WriterE"
 "_ZN5TMBad3logERKNS_8adaptiveINS_6global6ad_augEEE"
 "_ZN5TMBad3lt0ERKd"
 "_ZN5TMBad3lt0ERKNS_6global6ad_augE"
 "_ZN5TMBad3lt0ERKNS_6global8ad_plainE"
 "_ZN5TMBad3lt0ERKNS_6WriterE"
 "_ZN5TMBad3maxERKNS_6global6ad_augES3_"
 "_ZN5TMBad3maxERKNS_6global8ad_plainES3_"
 "_ZN5TMBad3maxERKNS_6WriterES2_"
 "_ZN5TMBad3maxERKNS_8adaptiveINS_6global6ad_augEEES5_"
 "_ZN5TMBad3minERKNS_6global6ad_augES3_"
 "_ZN5TMBad3minERKNS_6global8ad_plainES3_"
 "_ZN5TMBad3minERKNS_6WriterES2_"
 "_ZN5TMBad3minERKNS_8adaptiveINS_6global6ad_augEEES5_"
 "_ZN5TMBad3powERKNS_6global6ad_augES3_"
 "_ZN5TMBad3powERKNS_6global8ad_plainES3_"
 "_ZN5TMBad3powERKNS_6WriterES2_"
 "_ZN5TMBad3powERKNS_8adaptiveINS_6global6ad_augEEES5_"
 "_ZN5TMBad3sinERKNS_6global6ad_augE"
 "_ZN5TMBad3sinERKNS_6global8ad_plainE"
 "_ZN5TMBad3sinERKNS_6WriterE"
 "_ZN5TMBad3sinERKNS_8adaptiveINS_6global6ad_augEEE"
 "_ZN5TMBad3tanERKNS_6global6ad_augE"
 "_ZN5TMBad3tanERKNS_6global8ad_plainE"
 "_ZN5TMBad3tanERKNS_6WriterE"
 "_ZN5TMBad3tanERKNS_8adaptiveINS_6global6ad_augEEE"
 "_ZN5TMBad4acosERKNS_6global6ad_augE"
 "_ZN5TMBad4acosERKNS_6global8ad_plainE"
 "_ZN5TMBad4acosERKNS_6WriterE"
 "_ZN5TMBad4acosERKNS_8adaptiveINS_6global6ad_augEEE"
 "_ZN5TMBad4asinERKNS_6global6ad_augE"
 "_ZN5TMBad4asinERKNS_6global8ad_plainE"
 "_ZN5TMBad4asinERKNS_6WriterE"
 "_ZN5TMBad4asinERKNS_8adaptiveINS_6global6ad_augEEE"
 "_ZN5TMBad4atanERKNS_6global6ad_augE"
 "_ZN5TMBad4atanERKNS_6global8ad_plainE"
 "_ZN5TMBad4atanERKNS_6WriterE"
 "_ZN5TMBad4atanERKNS_8adaptiveINS_6global6ad_augEEE"
 "_ZN5TMBad4ceilERKNS_6global6ad_augE"
 "_ZN5TMBad4ceilERKNS_6global8ad_plainE"
 "_ZN5TMBad4ceilERKNS_6WriterE"
 "_ZN5TMBad4coshERKNS_6global6ad_augE"
 "_ZN5TMBad4coshERKNS_6global8ad_plainE"
 "_ZN5TMBad4coshERKNS_6WriterE"
 "_ZN5TMBad4coshERKNS_8adaptiveINS_6global6ad_augEEE"
 "_ZN5TMBad4fabsERKNS_6global6ad_augE"
 "_ZN5TMBad4fabsERKNS_6global8ad_plainE"
 "_ZN5TMBad4fabsERKNS_6WriterE"
 "_ZN5TMBad4fabsERKNS_8adaptiveINS_6global6ad_augEEE"
 "_ZN5TMBad4fillIN5Eigen3MapINS1_6MatrixINS_6global6ad_augELin1ELin1ELi0ELin1ELin1EEELi0ENS1_6StrideILi0ELi0EEEEEEEvRT_NS4_8ad_rangeE"
 "_ZN5TMBad4signERKd"
 "_ZN5TMBad4signERKNS_6global6ad_augE"
 "_ZN5TMBad4signERKNS_6global8ad_plainE"
 "_ZN5TMBad4signERKNS_6WriterE"
 "_ZN5TMBad4sinhERKNS_6global6ad_augE"
 "_ZN5TMBad4sinhERKNS_6global8ad_plainE"
 "_ZN5TMBad4sinhERKNS_6WriterE"
 "_ZN5TMBad4sinhERKNS_8adaptiveINS_6global6ad_augEEE"
 "_ZN5TMBad4sqrtERKNS_6global6ad_augE"
 "_ZN5TMBad4sqrtERKNS_6global8ad_plainE"
 "_ZN5TMBad4sqrtERKNS_6WriterE"
 "_ZN5TMBad4sqrtERKNS_8adaptiveINS_6global6ad_augEEE"
 "_ZN5TMBad4tanhERKNS_6global6ad_augE"
 "_ZN5TMBad4tanhERKNS_6global8ad_plainE"
 "_ZN5TMBad4tanhERKNS_6WriterE"
 "_ZN5TMBad4tanhERKNS_8adaptiveINS_6global6ad_augEEE"
 "_ZN5TMBad5AbsOp7op_nameEv"
 "_ZN5TMBad5AbsOp7reverseERNS_11ReverseArgsIdEE"
 "_ZN5TMBad5AbsOp7reverseINS_6WriterEEEvRNS_11ReverseArgsIT_EE"
 "_ZN5TMBad5ADFunINS_6global6ad_augEE11marginal_gkERKSt6vectorIjSaIjEENS_9gk_configE"
 "_ZN5TMBad5ADFunINS_6global6ad_augEE11marginal_srERKSt6vectorIjSaIjEES4_INS_7sr_gridESaIS9_EES8_b"
 "_ZN5TMBad5ADFunINS_6global6ad_augEE11parallelizeEy"
 "_ZN5TMBad5ADFunINS_6global6ad_augEE12activeDomainEv"
 "_ZN5TMBad5ADFunINS_6global6ad_augEE12DomainReduceERKSt6vectorIbSaIbEE"
 "_ZN5TMBad5ADFunINS_6global6ad_augEE12DomainVecSetERKSt6vectorIdSaIdEE"
 "_ZN5TMBad5ADFunINS_6global6ad_augEE12get_keep_varESt6vectorIbSaIbEES6_"
 "_ZN5TMBad5ADFunINS_6global6ad_augEE12resolve_refsEv"
 "_ZN5TMBad5ADFunINS_6global6ad_augEE14decompose_refsEv"
 "_ZN5TMBad5ADFunINS_6global6ad_augEE15set_inner_outerERS3_"
 "_ZN5TMBad5ADFunINS_6global6ad_augEE15set_inner_outerERS3_RKSt6vectorIbSaIbEE"
 "_ZN5TMBad5ADFunINS_6global6ad_augEE19parallel_accumulateEy"
 "_ZN5TMBad5ADFunINS_6global6ad_augEE6atomicEv"
 "_ZN5TMBad5ADFunINS_6global6ad_augEE6JacFunESt6vectorIbSaIbEES6_"
 "_ZN5TMBad5ADFunINS_6global6ad_augEE7forwardIN5Eigen6MatrixIdLin1ELi1ELi0ELin1ELi1EEEEET_RKS8_"
 "_ZN5TMBad5ADFunINS_6global6ad_augEE7JacFun_ILb0EEES3_St6vectorIbSaIbEES7_"
 "_ZN5TMBad5ADFunINS_6global6ad_augEE7JacFun_ILb1EEES3_St6vectorIbSaIbEES7_"
 "_ZN5TMBad5ADFunINS_6global6ad_augEE7reorderESt6vectorIjSaIjEE"
 "_ZN5TMBad5ADFunINS_6global6ad_augEE7reverseIN5Eigen6MatrixIdLin1ELi1ELi0ELin1ELi1EEEEET_RKS8_"
 "_ZN5TMBad5ADFunINS_6global6ad_augEE8JacobianERKSt6vectorIdSaIdEE"
 "_ZN5TMBad5ADFunINS_6global6ad_augEE8JacobianERKSt6vectorIdSaIdEES4_IbSaIbEESA_"
 "_ZN5TMBad5ADFunINS_6global6ad_augEE8JacobianERKSt6vectorIdSaIdEES8_"
 "_ZN5TMBad5ADFunINS_6global6ad_augEE8JacobianERKSt6vectorIS2_SaIS2_EES8_"
 "_ZN5TMBad5ADFunINS_6global6ad_augEE8optimizeEv"
 "_ZN5TMBad5ADFunINS_6global6ad_augEE8SpJacFunESt6vectorIbSaIbEES6_NS_15SpJacFun_configE"
 "_ZN5TMBad5ADFunINS_6global6ad_augEE9decomposeESt6vectorIjSaIjEE"
 "_ZN5TMBad5ADFunINS_6global6ad_augEE9DomainVecEv"
 "_ZN5TMBad5ADFunINS_6global6ad_augEEaSEOS3_"
 "_ZN5TMBad5ADFunINS_6global6ad_augEEC1ERKS3_"
 "_ZN5TMBad5ADFunINS_6global6ad_augEEC1INS_7StdWrapIN6newton5sliceIS3_EENS6_6vectorIS2_EEEESA_EET_RKT0_"
 "_ZN5TMBad5ADFunINS_6global6ad_augEEC1INS1_8CompleteINS_7ParalOpEEESt6vectorIdSaIdEEEET_RKT0_"
 "_ZN5TMBad5ADFunINS_6global6ad_augEEC2ERKS3_"
 "_ZN5TMBad5ADFunINS_6global6ad_augEEclERKSt6vectorIdSaIdEE"
 "_ZN5TMBad5ADFunINS_6global6ad_augEED1Ev"
 "_ZN5TMBad5ADFunINS_6global6ad_augEED2Ev"
 "_ZN5TMBad5CosOp7op_nameEv"
 "_ZN5TMBad5CosOp7reverseERNS_11ReverseArgsIdEE"
 "_ZN5TMBad5CosOp7reverseINS_6WriterEEEvRNS_11ReverseArgsIT_EE"
 "_ZN5TMBad5Expm17op_nameEv"
 "_ZN5TMBad5Expm17reverseERNS_11ReverseArgsIdEE"
 "_ZN5TMBad5Expm17reverseINS_6WriterEEEvRNS_11ReverseArgsIT_EE"
 "_ZN5TMBad5expm1ERKNS_6global6ad_augE"
 "_ZN5TMBad5expm1ERKNS_6global8ad_plainE"
 "_ZN5TMBad5expm1ERKNS_6WriterE"
 "_ZN5TMBad5expm1ERKNS_8adaptiveINS_6global6ad_augEEE"
 "_ZN5TMBad5ExpOp7op_nameEv"
 "_ZN5TMBad5ExpOp7reverseERNS_11ReverseArgsIdEE"
 "_ZN5TMBad5floorERKNS_6global6ad_augE"
 "_ZN5TMBad5floorERKNS_6global8ad_plainE"
 "_ZN5TMBad5floorERKNS_6WriterE"
 "_ZN5TMBad5fmax2INS_8adaptiveINS_6global6ad_augEEES4_EEdT_T0_"
 "_ZN5TMBad5Ge0Op7op_nameEv"
 "_ZN5TMBad5graph13num_neighborsEj"
 "_ZN5TMBad5graph3bfsERKSt6vectorIjSaIjEERS1_IbSaIbEERS3_"
 "_ZN5TMBad5graph5emptyEv"
 "_ZN5TMBad5graph5printEv"
 "_ZN5TMBad5graph6searchERSt6vectorIjSaIjEEbb"
 "_ZN5TMBad5graph6searchERSt6vectorIjSaIjEERS1_IbSaIbEEbb"
 "_ZN5TMBad5graph8boundaryERKSt6vectorIjSaIjEE"
 "_ZN5TMBad5graph9colcountsEv"
 "_ZN5TMBad5graph9neighborsEj"
 "_ZN5TMBad5graph9num_nodesEv"
 "_ZN5TMBad5graph9rowcountsEv"
 "_ZN5TMBad5graphC1Ev"
 "_ZN5TMBad5graphC1EyRKSt6vectorISt4pairIjjESaIS3_EE"
 "_ZN5TMBad5graphC2Ev"
 "_ZN5TMBad5graphC2EyRKSt6vectorISt4pairIjjESaIS3_EE"
 "_ZN5TMBad5graphD1Ev"
 "_ZN5TMBad5isinfERKNS_6global6ad_augE"
 "_ZN5TMBad5isnanERKNS_6global6ad_augE"
 "_ZN5TMBad5Log1p7op_nameEv"
 "_ZN5TMBad5Log1p7reverseERNS_11ReverseArgsIdEE"
 "_ZN5TMBad5Log1p7reverseINS_6WriterEEEvRNS_11ReverseArgsIT_EE"
 "_ZN5TMBad5log1pERKNS_6global6ad_augE"
 "_ZN5TMBad5log1pERKNS_6global8ad_plainE"
 "_ZN5TMBad5log1pERKNS_6WriterE"
 "_ZN5TMBad5log1pERKNS_8adaptiveINS_6global6ad_augEEE"
 "_ZN5TMBad5LogOp7op_nameEv"
 "_ZN5TMBad5LogOp7reverseERNS_11ReverseArgsIdEE"
 "_ZN5TMBad5LogOp7reverseINS_6WriterEEEvRNS_11ReverseArgsIT_EE"
 "_ZN5TMBad5Lt0Op7op_nameEv"
 "_ZN5TMBad5MaxOp7op_nameEv"
 "_ZN5TMBad5MaxOp7reverseINS_6global6ad_augEEEvRNS_11ReverseArgsIT_EE"
 "_ZN5TMBad5MaxOp7reverseINS_6WriterEEEvRNS_11ReverseArgsIT_EE"
 "_ZN5TMBad5MinOp7op_nameEv"
 "_ZN5TMBad5MinOp7reverseINS_6global6ad_augEEEvRNS_11ReverseArgsIT_EE"
 "_ZN5TMBad5MinOp7reverseINS_6WriterEEEvRNS_11ReverseArgsIT_EE"
 "_ZN5TMBad5orderIjEESt6vectorIySaIyEES1_IT_SaIS4_EE"
 "_ZN5TMBad5orderIyEESt6vectorIySaIyEES1_IT_SaIS4_EE"
 "_ZN5TMBad5PowOp7op_nameEv"
 "_ZN5TMBad5PowOp7reverseINS_6global6ad_augEEEvRNS_11ReverseArgsIT_EE"
 "_ZN5TMBad5PowOp7reverseINS_6WriterEEEvRNS_11ReverseArgsIT_EE"
 "_ZN5TMBad5roundERKNS_6global6ad_augE"
 "_ZN5TMBad5roundERKNS_6global8ad_plainE"
 "_ZN5TMBad5roundERKNS_6WriterE"
 "_ZN5TMBad5SinOp7op_nameEv"
 "_ZN5TMBad5SinOp7reverseERNS_11ReverseArgsIdEE"
 "_ZN5TMBad5SinOp7reverseINS_6WriterEEEvRNS_11ReverseArgsIT_EE"
 "_ZN5TMBad5SumOp7forwardINS_6WriterEEEvRNS_11ForwardArgsIT_EE"
 "_ZN5TMBad5SumOp7op_nameEv"
 "_ZN5TMBad5SumOpC1Ey"
 "_ZN5TMBad5SumOpC2Ey"
 "_ZN5TMBad5TanOp7op_nameEv"
 "_ZN5TMBad5TanOp7reverseERNS_11ReverseArgsIdEE"
 "_ZN5TMBad5TanOp7reverseINS_6WriterEEEvRNS_11ReverseArgsIT_EE"
 "_ZN5TMBad5tostrB5cxx11ERKd"
 "_ZN5TMBad5tostrB5cxx11ERKj"
 "_ZN5TMBad5truncERKNS_6global6ad_augE"
 "_ZN5TMBad5truncERKNS_6global8ad_plainE"
 "_ZN5TMBad5truncERKNS_6WriterE"
 "_ZN5TMBad5valueEd"
 "_ZN5TMBad5ValueEd"
 "_ZN5TMBad5whichERKSt6vectorIbSaIbEE"
 "_ZN5TMBad5whichIjEESt6vectorIT_SaIS2_EERKS1_IbSaIbEE"
 "_ZN5TMBad6AcosOp7op_nameEv"
 "_ZN5TMBad6AcosOp7reverseERNS_11ReverseArgsIdEE"
 "_ZN5TMBad6AcosOp7reverseINS_6WriterEEEvRNS_11ReverseArgsIT_EE"
 "_ZN5TMBad6AsinOp7op_nameEv"
 "_ZN5TMBad6AsinOp7reverseERNS_11ReverseArgsIdEE"
 "_ZN5TMBad6AsinOp7reverseINS_6WriterEEEvRNS_11ReverseArgsIT_EE"
 "_ZN5TMBad6AtanOp7op_nameEv"
 "_ZN5TMBad6AtanOp7reverseERNS_11ReverseArgsIdEE"
 "_ZN5TMBad6AtanOp7reverseINS_6WriterEEEvRNS_11ReverseArgsIT_EE"
 "_ZN5TMBad6CallOpC1ENS_6globalE"
 "_ZN5TMBad6CallOpC2ENS_6globalE"
 "_ZN5TMBad6CallOpclENS_6global8ad_plainE"
 "_ZN5TMBad6CallOpclENS_6global8ad_plainES2_"
 "_ZN5TMBad6CallOpclENS_6global8ad_plainES2_S2_"
 "_ZN5TMBad6CallOpclERKSt6vectorINS_6global8ad_plainESaIS3_EE"
 "_ZN5TMBad6CallOpD1Ev"
 "_ZN5TMBad6CallOpD2Ev"
 "_ZN5TMBad6CeilOp7op_nameEv"
 "_ZN5TMBad6clique10get_strideERKS0_jRSt6vectorINS_6global8ad_plainESaIS5_EERj"
 "_ZN5TMBad6clique11clique_sizeEv"
 "_ZN5TMBad6clique11logsum_initEv"
 "_ZN5TMBad6clique14subset_inplaceERKSt6vectorIbSaIbEE"
 "_ZN5TMBad6clique8containsEj"
 "_ZN5TMBad6cliqueC1Ev"
 "_ZN5TMBad6cliqueC2Ev"
 "_ZN5TMBad6cliqueD1Ev"
 "_ZN5TMBad6CoshOp7op_nameEv"
 "_ZN5TMBad6CoshOp7reverseERNS_11ReverseArgsIdEE"
 "_ZN5TMBad6CoshOp7reverseINS_6WriterEEEvRNS_11ReverseArgsIT_EE"
 "_ZN5TMBad6global10mark_spaceEySt6vectorIjSaIjEE"
 "_ZN5TMBad6global11build_graphEbRKSt6vectorIbSaIbEE"
 "_ZN5TMBad6global11clear_derivENS_8PositionE"
 "_ZN5TMBad6global11extract_subERSt6vectorIjSaIjEES0_"
 "_ZN5TMBad6global11extract_subEv"
 "_ZN5TMBad6global11forward_subERSt6vectorIbSaIbEERKS3_"
 "_ZN5TMBad6global11forward_subEv"
 "_ZN5TMBad6global11IndependentERSt6vectorINS0_6ad_augESaIS2_EE"
 "_ZN5TMBad6global11IndependentERSt6vectorINS0_8ad_plainESaIS2_EE"
 "_ZN5TMBad6global11reverse_subERSt6vectorIbSaIbEERKS3_"
 "_ZN5TMBad6global11reverse_subEv"
 "_ZN5TMBad6global12add_to_stackIN6atomic14logspace_addOpILi0ELi2ELi1ELl9EEEEESt6vectorINS0_8ad_plainESaIS6_EEPNS0_12OperatorPureERKS8_"
 "_ZN5TMBad6global12add_to_stackIN6atomic14logspace_addOpILi1ELi2ELi2ELl9EEEEESt6vectorINS0_8ad_plainESaIS6_EEPNS0_12OperatorPureERKS8_"
 "_ZN5TMBad6global12add_to_stackIN6atomic14logspace_addOpILi2ELi2ELi4ELl9EEEEESt6vectorINS0_8ad_plainESaIS6_EEPNS0_12OperatorPureERKS8_"
 "_ZN5TMBad6global12add_to_stackIN6atomic14logspace_addOpILi3ELi2ELi8ELl9EEEEESt6vectorINS0_8ad_plainESaIS6_EEPNS0_12OperatorPureERKS8_"
 "_ZN5TMBad6global12add_to_stackIN6atomic8logdetOpIvEEEESt6vectorINS0_8ad_plainESaIS6_EEPNS0_12OperatorPureERKS8_"
 "_ZN5TMBad6global12add_to_stackIN6atomic8matinvOpIvEEEESt6vectorINS0_8ad_plainESaIS6_EEPNS0_12OperatorPureERKS8_"
 "_ZN5TMBad6global12add_to_stackIN6atomic8matmulOpIvEEEESt6vectorINS0_8ad_plainESaIS6_EEPNS0_12OperatorPureERKS8_"
 "_ZN5TMBad6global12add_to_stackIN6newton14InvSubOperatorIN5Eigen13SimplicialLLTINS4_12SparseMatrixIdLi0EiEELi1ENS4_11AMDOrderingIiEEEEEEEESt6vectorINS0_8ad_plainESaISD_EEPNS0_12OperatorPureERKSF_"
 "_ZN5TMBad6global12add_to_stackIN6newton14LogDetOperatorIN5Eigen13SimplicialLLTINS4_12SparseMatrixIdLi0EiEELi1ENS4_11AMDOrderingIiEEEEEEEESt6vectorINS0_8ad_plainESaISD_EEPNS0_12OperatorPureERKSF_"
 "_ZN5TMBad6global12add_to_stackIN6newton14NewtonOperatorINS2_5sliceINS_5ADFunINS0_6ad_augEEEEENS2_16jacobian_dense_tIN5Eigen3LLTINSA_6MatrixIdLin1ELin1ELi0ELin1ELin1EEELi1EEEEEEEEESt6vectorINS0_8ad_plainESaISI_EEPNS0_12OperatorPureERKSK_"
 "_ZN5TMBad6global12add_to_stackIN6newton14NewtonOperatorINS2_5sliceINS_5ADFunINS0_6ad_augEEEEENS2_17jacobian_sparse_tIN5Eigen13SimplicialLLTINSA_12SparseMatrixIdLi0EiEELi1ENSA_11AMDOrderingIiEEEEEEEEEESt6vectorINS0_8ad_plainESaISK_EEPNS0_12OperatorPureERKSM_"
 "_ZN5TMBad6global12add_to_stackIN6newton14NewtonOperatorINS2_5sliceINS_5ADFunINS0_6ad_augEEEEENS2_30jacobian_sparse_plus_lowrank_tIvEEEEEESt6vectorINS0_8ad_plainESaISD_EEPNS0_12OperatorPureERKSF_"
 "_ZN5TMBad6global12add_to_stackIN6newton18HessianSolveVectorINS2_16jacobian_dense_tIN5Eigen3LLTINS5_6MatrixIdLin1ELin1ELi0ELin1ELin1EEELi1EEEEEEEEESt6vectorINS0_8ad_plainESaISD_EEPNS0_12OperatorPureERKSF_"
 "_ZN5TMBad6global12add_to_stackIN6newton18HessianSolveVectorINS2_17jacobian_sparse_tIN5Eigen13SimplicialLLTINS5_12SparseMatrixIdLi0EiEELi1ENS5_11AMDOrderingIiEEEEEEEEEESt6vectorINS0_8ad_plainESaISF_EEPNS0_12OperatorPureERKSH_"
 "_ZN5TMBad6global12add_to_stackIN6newton5TagOpIvEEEENS0_8ad_plainERKS5_"
 "_ZN5TMBad6global12add_to_stackIN6newton5TagOpIvEEEESt6vectorINS0_8ad_plainESaIS6_EEPNS0_12OperatorPureERKS8_"
 "_ZN5TMBad6global12add_to_stackINS_11CondExpEqOpEEESt6vectorINS0_8ad_plainESaIS4_EEPNS0_12OperatorPureERKS6_"
 "_ZN5TMBad6global12add_to_stackINS_11CondExpGeOpEEESt6vectorINS0_8ad_plainESaIS4_EEPNS0_12OperatorPureERKS6_"
 "_ZN5TMBad6global12add_to_stackINS_11CondExpGtOpEEESt6vectorINS0_8ad_plainESaIS4_EEPNS0_12OperatorPureERKS6_"
 "_ZN5TMBad6global12add_to_stackINS_11CondExpLeOpEEESt6vectorINS0_8ad_plainESaIS4_EEPNS0_12OperatorPureERKS6_"
 "_ZN5TMBad6global12add_to_stackINS_11CondExpLtOpEEESt6vectorINS0_8ad_plainESaIS4_EEPNS0_12OperatorPureERKS6_"
 "_ZN5TMBad6global12add_to_stackINS_11CondExpNeOpEEESt6vectorINS0_8ad_plainESaIS4_EEPNS0_12OperatorPureERKS6_"
 "_ZN5TMBad6global12add_to_stackINS_13LogSpaceSumOpEEESt6vectorINS0_8ad_plainESaIS4_EEPNS0_12OperatorPureERKS6_"
 "_ZN5TMBad6global12add_to_stackINS_19LogSpaceSumStrideOpEEESt6vectorINS0_8ad_plainESaIS4_EEPNS0_12OperatorPureERKS6_"
 "_ZN5TMBad6global12add_to_stackINS_5AbsOpEEENS0_8ad_plainERKS3_"
 "_ZN5TMBad6global12add_to_stackINS_5CosOpEEENS0_8ad_plainERKS3_"
 "_ZN5TMBad6global12add_to_stackINS_5Expm1EEENS0_8ad_plainERKS3_"
 "_ZN5TMBad6global12add_to_stackINS_5ExpOpEEENS0_8ad_plainERKS3_"
 "_ZN5TMBad6global12add_to_stackINS_5Ge0OpEEENS0_8ad_plainERKS3_"
 "_ZN5TMBad6global12add_to_stackINS_5Log1pEEENS0_8ad_plainERKS3_"
 "_ZN5TMBad6global12add_to_stackINS_5LogOpEEENS0_8ad_plainERKS3_"
 "_ZN5TMBad6global12add_to_stackINS_5Lt0OpEEENS0_8ad_plainERKS3_"
 "_ZN5TMBad6global12add_to_stackINS_5MaxOpEEENS0_8ad_plainERKS3_S5_"
 "_ZN5TMBad6global12add_to_stackINS_5MinOpEEENS0_8ad_plainERKS3_S5_"
 "_ZN5TMBad6global12add_to_stackINS_5PowOpEEENS0_8ad_plainERKS3_S5_"
 "_ZN5TMBad6global12add_to_stackINS_5SinOpEEENS0_8ad_plainERKS3_"
 "_ZN5TMBad6global12add_to_stackINS_5SumOpEEESt6vectorINS0_8ad_plainESaIS4_EEPNS0_12OperatorPureERKS6_"
 "_ZN5TMBad6global12add_to_stackINS_5TanOpEEENS0_8ad_plainERKS3_"
 "_ZN5TMBad6global12add_to_stackINS_6AcosOpEEENS0_8ad_plainERKS3_"
 "_ZN5TMBad6global12add_to_stackINS_6AsinOpEEENS0_8ad_plainERKS3_"
 "_ZN5TMBad6global12add_to_stackINS_6AtanOpEEENS0_8ad_plainERKS3_"
 "_ZN5TMBad6global12add_to_stackINS_6CeilOpEEENS0_8ad_plainERKS3_"
 "_ZN5TMBad6global12add_to_stackINS_6CoshOpEEENS0_8ad_plainERKS3_"
 "_ZN5TMBad6global12add_to_stackINS_6MatMulILb0ELb0ELb0EEEEENS0_8ad_rangeES4_S4_"
 "_ZN5TMBad6global12add_to_stackINS_6MatMulILb0ELb1ELb0EEEEENS0_8ad_rangeES4_S4_"
 "_ZN5TMBad6global12add_to_stackINS_6MatMulILb0ELb1ELb1EEEEENS0_8ad_rangeES4_S4_"
 "_ZN5TMBad6global12add_to_stackINS_6MatMulILb1ELb0ELb0EEEEENS0_8ad_rangeES4_S4_"
 "_ZN5TMBad6global12add_to_stackINS_6MatMulILb1ELb0ELb1EEEEENS0_8ad_rangeES4_S4_"
 "_ZN5TMBad6global12add_to_stackINS_6MatMulILb1ELb1ELb1EEEEENS0_8ad_rangeES4_S4_"
 "_ZN5TMBad6global12add_to_stackINS_6SignOpEEENS0_8ad_plainERKS3_"
 "_ZN5TMBad6global12add_to_stackINS_6SinhOpEEENS0_8ad_plainERKS3_"
 "_ZN5TMBad6global12add_to_stackINS_6SqrtOpEEENS0_8ad_plainERKS3_"
 "_ZN5TMBad6global12add_to_stackINS_6TanhOpEEENS0_8ad_plainERKS3_"
 "_ZN5TMBad6global12add_to_stackINS_7AdapOp_INS_14logIntegrate_tINS_8adaptiveINS0_6ad_augEEEEENS0_8ad_plainEEEEESt6vectorIS8_SaIS8_EEPNS0_12OperatorPureERKSC_"
 "_ZN5TMBad6global12add_to_stackINS_7CallOp_ILb0EEEEESt6vectorINS0_8ad_plainESaIS5_EEPNS0_12OperatorPureERKS7_"
 "_ZN5TMBad6global12add_to_stackINS_7CallOp_ILb1EEEEESt6vectorINS0_8ad_plainESaIS5_EEPNS0_12OperatorPureERKS7_"
 "_ZN5TMBad6global12add_to_stackINS_7FloorOpEEENS0_8ad_plainERKS3_"
 "_ZN5TMBad6global12add_to_stackINS_7ParalOpEEESt6vectorINS0_8ad_plainESaIS4_EEPNS0_12OperatorPureERKS6_"
 "_ZN5TMBad6global12add_to_stackINS_7RoundOpEEENS0_8ad_plainERKS3_"
 "_ZN5TMBad6global12add_to_stackINS_7TruncOpEEENS0_8ad_plainERKS3_"
 "_ZN5TMBad6global12add_to_stackINS0_5DepOpEEENS0_8ad_plainERKS3_"
 "_ZN5TMBad6global12add_to_stackINS0_5RefOpEEESt6vectorINS0_8ad_plainESaIS4_EEPNS0_12OperatorPureERKS6_"
 "_ZN5TMBad6global12add_to_stackINS0_8ad_plain5NegOpEEES2_RKS2_"
 "_ZN5TMBad6global12add_to_stackINS0_8ad_plain5ValOpEEES2_RKS2_"
 "_ZN5TMBad6global12add_to_stackINS0_8ad_plain6AddOp_ILb1ELb1EEEEES2_RKS2_S6_"
 "_ZN5TMBad6global12add_to_stackINS0_8ad_plain6CopyOpEEES2_RKS2_"
 "_ZN5TMBad6global12add_to_stackINS0_8ad_plain6DivOp_ILb1ELb1EEEEES2_RKS2_S6_"
 "_ZN5TMBad6global12add_to_stackINS0_8ad_plain6MulOp_ILb1ELb0EEEEES2_RKS2_S6_"
 "_ZN5TMBad6global12add_to_stackINS0_8ad_plain6MulOp_ILb1ELb1EEEEES2_RKS2_S6_"
 "_ZN5TMBad6global12add_to_stackINS0_8ad_plain6SubOp_ILb1ELb1EEEEES2_RKS2_S6_"
 "_ZN5TMBad6global12append_edges13end_iterationEv"
 "_ZN5TMBad6global12append_edges15start_iterationEv"
 "_ZN5TMBad6global12append_edgesC1ERyyRKSt6vectorIbSaIbEERS3_IjSaIjEERS3_ISt4pairIjjESaISC_EE"
 "_ZN5TMBad6global12append_edgesC2ERyyRKSt6vectorIbSaIbEERS3_IjSaIjEERS3_ISt4pairIjjESaISC_EE"
 "_ZN5TMBad6global12append_edgesclEj"
 "_ZN5TMBad6global12print_configC1ERKS1_"
 "_ZN5TMBad6global12print_configC1Ev"
 "_ZN5TMBad6global12print_configC2Ev"
 "_ZN5TMBad6global12print_configD1Ev"
 "_ZN5TMBad6global12set_subgraphERKSt6vectorIbSaIbEEb"
 "_ZN5TMBad6global13forward_denseERSt6vectorIbSaIbEE"
 "_ZN5TMBad6global13forward_graphESt6vectorIbSaIbEE"
 "_ZN5TMBad6global13mark_subgraphERSt6vectorIbSaIbEE"
 "_ZN5TMBad6global13reverse_graphESt6vectorIbSaIbEE"
 "_ZN5TMBad6global13shrink_to_fitEd"
 "_ZN5TMBad6global14add_to_opstackILb0EEEvPNS0_12OperatorPureE"
 "_ZN5TMBad6global14forward_replayEbb"
 "_ZN5TMBad6global14subgraph_marksEv"
 "_ZN5TMBad6global15clear_deriv_subEv"
 "_ZN5TMBad6global15operation_stack5clearEv"
 "_ZN5TMBad6global15operation_stack9copy_fromERKS1_"
 "_ZN5TMBad6global15operation_stack9push_backEPNS0_12OperatorPureEb"
 "_ZN5TMBad6global15operation_stackaSERKS1_"
 "_ZN5TMBad6global15operation_stackC1ERKS1_"
 "_ZN5TMBad6global15operation_stackC1Ev"
 "_ZN5TMBad6global15operation_stackC2ERKS1_"
 "_ZN5TMBad6global15operation_stackC2Ev"
 "_ZN5TMBad6global15operation_stackD1Ev"
 "_ZN5TMBad6global15operation_stackD2Ev"
 "_ZN5TMBad6global15unmark_subgraphERSt6vectorIbSaIbEE"
 "_ZN5TMBad6global16subgraph_trivialEv"
 "_ZN5TMBad6global19extract_sub_inplaceESt6vectorIbSaIbEE"
 "_ZN5TMBad6global21AddIncrementDecrementINS0_15AddDependenciesIN6newton14InvSubOperatorIN5Eigen13SimplicialLLTINS5_12SparseMatrixIdLi0EiEELi1ENS5_11AMDOrderingIiEEEEEEEEE9decrementERSt4pairIjjE"
 "_ZN5TMBad6global25AddForwardIncrReverseDecrINS0_25AddForwardMarkReverseMarkINS0_21AddIncrementDecrementINS0_15AddDependenciesINS0_22AddInputSizeOutputSizeIN6atomic14logspace_addOpILi0ELi2ELi1ELl9EEEEEEEEEEEE12reverse_decrINS_6WriterEEEvRNS_11ReverseArgsIT_EE"
 "_ZN5TMBad6global25AddForwardIncrReverseDecrINS0_25AddForwardMarkReverseMarkINS0_21AddIncrementDecrementINS0_15AddDependenciesINS0_22AddInputSizeOutputSizeIN6atomic14logspace_addOpILi1ELi2ELi2ELl9EEEEEEEEEEEE12reverse_decrINS_6WriterEEEvRNS_11ReverseArgsIT_EE"
 "_ZN5TMBad6global25AddForwardIncrReverseDecrINS0_25AddForwardMarkReverseMarkINS0_21AddIncrementDecrementINS0_15AddDependenciesINS0_22AddInputSizeOutputSizeIN6atomic14logspace_addOpILi2ELi2ELi4ELl9EEEEEEEEEEEE12reverse_decrINS_6WriterEEEvRNS_11ReverseArgsIT_EE"
 "_ZN5TMBad6global25AddForwardIncrReverseDecrINS0_25AddForwardMarkReverseMarkINS0_21AddIncrementDecrementINS0_15AddDependenciesINS0_22AddInputSizeOutputSizeIN6atomic14logspace_addOpILi3ELi2ELi8ELl9EEEEEEEEEEEE12reverse_decrIdEEvRNS_11ReverseArgsIT_EE"
 "_ZN5TMBad6global25AddForwardIncrReverseDecrINS0_25AddForwardMarkReverseMarkINS0_21AddIncrementDecrementINS0_15AddDependenciesINS0_22AddInputSizeOutputSizeIN6atomic14logspace_addOpILi3ELi2ELi8ELl9EEEEEEEEEEEE12reverse_decrINS_6WriterEEEvRNS_11ReverseArgsIT_EE"
 "_ZN5TMBad6global25AddForwardIncrReverseDecrINS0_25AddForwardMarkReverseMarkINS0_21AddIncrementDecrementINS0_15AddDependenciesINS0_22AddInputSizeOutputSizeIN6atomic14logspace_addOpILi3ELi2ELi8ELl9EEEEEEEEEEEE12reverse_decrINS0_6ad_augEEEvRNS_11ReverseArgsIT_EE"
 "_ZN5TMBad6global26DynamicInputOutputOperatorC1Ejj"
 "_ZN5TMBad6global26DynamicInputOutputOperatorC2Ejj"
 "_ZN5TMBad6global3endEv"
 "_ZN5TMBad6global4fuseE"
 "_ZN5TMBad6global4FuseEPNS0_12OperatorPureES2_"
 "_ZN5TMBad6global5beginEv"
 "_ZN5TMBad6global5clearEv"
 "_ZN5TMBad6global5DepOp7op_nameEv"
 "_ZN5TMBad6global5InvOp7op_nameEv"
 "_ZN5TMBad6global5printENS0_12print_configE"
 "_ZN5TMBad6global5printEv"
 "_ZN5TMBad6global5RefOp7forwardERNS_11ForwardArgsIdEE"
 "_ZN5TMBad6global5RefOp7forwardERNS_11ForwardArgsINS0_6ad_augEEE"
 "_ZN5TMBad6global5RefOp7op_nameEv"
 "_ZN5TMBad6global5RefOp7reverseERNS_11ReverseArgsINS0_6ad_augEEE"
 "_ZN5TMBad6global5RefOp7reverseIdEEvRNS_11ReverseArgsIT_EE"
 "_ZN5TMBad6global5RefOp7reverseINS_6WriterEEEvRNS_11ReverseArgsIT_EE"
 "_ZN5TMBad6global5RefOpC1EPS0_j"
 "_ZN5TMBad6global5RefOpC2EPS0_j"
 "_ZN5TMBad6global6ad_aug11IndependentEv"
 "_ZN5TMBad6global6ad_aug5DerivEv"
 "_ZN5TMBad6global6ad_aug5ValueEv"
 "_ZN5TMBad6global6ad_aug9DependentEv"
 "_ZN5TMBad6global6ad_augC1Ed"
 "_ZN5TMBad6global6ad_augC1ENS0_8ad_plainE"
 "_ZN5TMBad6global6ad_augC1Ev"
 "_ZN5TMBad6global6ad_augC2Ed"
 "_ZN5TMBad6global6ad_augC2ENS0_8ad_plainE"
 "_ZN5TMBad6global6ad_augC2Ev"
 "_ZN5TMBad6global6ad_augdVERKS1_"
 "_ZN5TMBad6global6ad_augmIERKS1_"
 "_ZN5TMBad6global6ad_augmLERKS1_"
 "_ZN5TMBad6global6ad_augpLERKS1_"
 "_ZN5TMBad6global6NullOp7op_nameEv"
 "_ZN5TMBad6global6NullOpC1Ev"
 "_ZN5TMBad6global6NullOpC2Ev"
 "_ZN5TMBad6global6op2idxERKSt6vectorIjSaIjEEj"
 "_ZN5TMBad6global6op2varERKSt6vectorIbSaIbEE"
 "_ZN5TMBad6global6op2varERKSt6vectorIjSaIjEE"
 "_ZN5TMBad6global6replay11clear_derivEv"
 "_ZN5TMBad6global6replay11forward_subEv"
 "_ZN5TMBad6global6replay11reverse_subEv"
 "_ZN5TMBad6global6replay15clear_deriv_subEv"
 "_ZN5TMBad6global6replay4stopEv"
 "_ZN5TMBad6global6replay5startEv"
 "_ZN5TMBad6global6replay7forwardEbbNS_8PositionERKSt6vectorIbSaIbEE"
 "_ZN5TMBad6global6replay7reverseEbbNS_8PositionERKSt6vectorIbSaIbEE"
 "_ZN5TMBad6global6replay9deriv_depEj"
 "_ZN5TMBad6global6replay9deriv_invEj"
 "_ZN5TMBad6global6replay9value_depEj"
 "_ZN5TMBad6global6replay9value_invEj"
 "_ZN5TMBad6global6replayC1ERKS0_RS0_"
 "_ZN5TMBad6global6replayC2ERKS0_RS0_"
 "_ZN5TMBad6global6replayD1Ev"
 "_ZN5TMBad6global6var2opERKSt6vectorIbSaIbEE"
 "_ZN5TMBad6global6var2opEv"
 "_ZN5TMBad6global7ad_stopEv"
 "_ZN5TMBad6global7ConstOp7forwardERNS_11ForwardArgsINS_6WriterEEE"
 "_ZN5TMBad6global7ConstOp7forwardERNS_11ForwardArgsINS0_6ad_augEEE"
 "_ZN5TMBad6global7ConstOp7op_nameEv"
 "_ZN5TMBad6global7forwardENS_8PositionE"
 "_ZN5TMBad6global7forwardERSt6vectorIbSaIbEE"
 "_ZN5TMBad6global7NullOp27op_nameEv"
 "_ZN5TMBad6global7NullOp2C1Ejj"
 "_ZN5TMBad6global7NullOp2C2Ejj"
 "_ZN5TMBad6global7reverseENS_8PositionE"
 "_ZN5TMBad6global7reverseERSt6vectorIbSaIbEE"
 "_ZN5TMBad6global8ad_plain11IndependentEv"
 "_ZN5TMBad6global8ad_plain5DerivEv"
 "_ZN5TMBad6global8ad_plain5NegOp7op_nameEv"
 "_ZN5TMBad6global8ad_plain5ValOp4evalENS0_6ad_augE"
 "_ZN5TMBad6global8ad_plain5ValOp7op_nameEv"
 "_ZN5TMBad6global8ad_plain5ValueEv"
 "_ZN5TMBad6global8ad_plain6AddOp_ILb1ELb1EE7reverseINS_6WriterEEEvRNS_11ReverseArgsIT_EE"
 "_ZN5TMBad6global8ad_plain6CopyOp4evalENS0_6ad_augE"
 "_ZN5TMBad6global8ad_plain6CopyOp7op_nameEv"
 "_ZN5TMBad6global8ad_plain6DivOp_ILb1ELb1EE7reverseINS_6WriterEEEvRNS_11ReverseArgsIT_EE"
 "_ZN5TMBad6global8ad_plain6MulOp_ILb1ELb1EE7reverseINS_6WriterEEEvRNS_11ReverseArgsIT_EE"
 "_ZN5TMBad6global8ad_plain6SubOp_ILb1ELb1EE7reverseINS_6WriterEEEvRNS_11ReverseArgsIT_EE"
 "_ZN5TMBad6global8ad_plain9DependentEv"
 "_ZN5TMBad6global8ad_plainC1Ed"
 "_ZN5TMBad6global8ad_plainC1ENS0_6ad_augE"
 "_ZN5TMBad6global8ad_plainC1Ev"
 "_ZN5TMBad6global8ad_plainC2Ed"
 "_ZN5TMBad6global8ad_plainC2ENS0_6ad_augE"
 "_ZN5TMBad6global8ad_plainC2Ev"
 "_ZN5TMBad6global8ad_plaindVERKS1_"
 "_ZN5TMBad6global8ad_plainmIERKS1_"
 "_ZN5TMBad6global8ad_plainmLERKS1_"
 "_ZN5TMBad6global8ad_plainpLERKS1_"
 "_ZN5TMBad6global8ad_rangeC1Ejy"
 "_ZN5TMBad6global8ad_rangeC1ENS0_8ad_plainEy"
 "_ZN5TMBad6global8ad_rangeC1ENS0_8ad_plainEyy"
 "_ZN5TMBad6global8ad_rangeC2Ejy"
 "_ZN5TMBad6global8ad_rangeC2ENS0_8ad_plainEy"
 "_ZN5TMBad6global8ad_rangeC2ENS0_8ad_plainEyy"
 "_ZN5TMBad6global8ad_startEv"
 "_ZN5TMBad6global8CompleteIN6atomic14logspace_addOpILi0ELi2ELi1ELl9EEEE10deallocateEv"
 "_ZN5TMBad6global8CompleteIN6atomic14logspace_addOpILi0ELi2ELi1ELl9EEEE10identifierEv"
 "_ZN5TMBad6global8CompleteIN6atomic14logspace_addOpILi0ELi2ELi1ELl9EEEE10incompleteEv"
 "_ZN5TMBad6global8CompleteIN6atomic14logspace_addOpILi0ELi2ELi1ELl9EEEE10input_sizeEv"
 "_ZN5TMBad6global8CompleteIN6atomic14logspace_addOpILi0ELi2ELi1ELl9EEEE10other_fuseEPNS0_12OperatorPureE"
 "_ZN5TMBad6global8CompleteIN6atomic14logspace_addOpILi0ELi2ELi1ELl9EEEE11output_sizeEv"
 "_ZN5TMBad6global8CompleteIN6atomic14logspace_addOpILi0ELi2ELi1ELl9EEEE12dependenciesERNS_4ArgsIvEERNS_12DependenciesE"
 "_ZN5TMBad6global8CompleteIN6atomic14logspace_addOpILi0ELi2ELi1ELl9EEEE12forward_incrERNS_11ForwardArgsIbEE"
 "_ZN5TMBad6global8CompleteIN6atomic14logspace_addOpILi0ELi2ELi1ELl9EEEE12forward_incrERNS_11ForwardArgsIdEE"
 "_ZN5TMBad6global8CompleteIN6atomic14logspace_addOpILi0ELi2ELi1ELl9EEEE12forward_incrERNS_11ForwardArgsINS_6WriterEEE"
 "_ZN5TMBad6global8CompleteIN6atomic14logspace_addOpILi0ELi2ELi1ELl9EEEE12forward_incrERNS_11ForwardArgsINS0_6ad_augEEE"
 "_ZN5TMBad6global8CompleteIN6atomic14logspace_addOpILi0ELi2ELi1ELl9EEEE12reverse_decrERNS_11ReverseArgsIbEE"
 "_ZN5TMBad6global8CompleteIN6atomic14logspace_addOpILi0ELi2ELi1ELl9EEEE12reverse_decrERNS_11ReverseArgsIdEE"
 "_ZN5TMBad6global8CompleteIN6atomic14logspace_addOpILi0ELi2ELi1ELl9EEEE12reverse_decrERNS_11ReverseArgsINS_6WriterEEE"
 "_ZN5TMBad6global8CompleteIN6atomic14logspace_addOpILi0ELi2ELi1ELl9EEEE12reverse_decrERNS_11ReverseArgsINS0_6ad_augEEE"
 "_ZN5TMBad6global8CompleteIN6atomic14logspace_addOpILi0ELi2ELi1ELl9EEEE13operator_dataEv"
 "_ZN5TMBad6global8CompleteIN6atomic14logspace_addOpILi0ELi2ELi1ELl9EEEE19forward_replay_copyERNS_11ForwardArgsINS0_6ad_augEEE"
 "_ZN5TMBad6global8CompleteIN6atomic14logspace_addOpILi0ELi2ELi1ELl9EEEE23forward_incr_mark_denseERNS_11ForwardArgsIbEE"
 "_ZN5TMBad6global8CompleteIN6atomic14logspace_addOpILi0ELi2ELi1ELl9EEEE4copyEv"
 "_ZN5TMBad6global8CompleteIN6atomic14logspace_addOpILi0ELi2ELi1ELl9EEEE4infoEv"
 "_ZN5TMBad6global8CompleteIN6atomic14logspace_addOpILi0ELi2ELi1ELl9EEEE5printENS0_12print_configE"
 "_ZN5TMBad6global8CompleteIN6atomic14logspace_addOpILi0ELi2ELi1ELl9EEEE7forwardERNS_11ForwardArgsIbEE"
 "_ZN5TMBad6global8CompleteIN6atomic14logspace_addOpILi0ELi2ELi1ELl9EEEE7forwardERNS_11ForwardArgsIdEE"
 "_ZN5TMBad6global8CompleteIN6atomic14logspace_addOpILi0ELi2ELi1ELl9EEEE7forwardERNS_11ForwardArgsINS_6WriterEEE"
 "_ZN5TMBad6global8CompleteIN6atomic14logspace_addOpILi0ELi2ELi1ELl9EEEE7forwardERNS_11ForwardArgsINS0_6ad_augEEE"
 "_ZN5TMBad6global8CompleteIN6atomic14logspace_addOpILi0ELi2ELi1ELl9EEEE7op_nameEv"
 "_ZN5TMBad6global8CompleteIN6atomic14logspace_addOpILi0ELi2ELi1ELl9EEEE7reverseERNS_11ReverseArgsIbEE"
 "_ZN5TMBad6global8CompleteIN6atomic14logspace_addOpILi0ELi2ELi1ELl9EEEE7reverseERNS_11ReverseArgsIdEE"
 "_ZN5TMBad6global8CompleteIN6atomic14logspace_addOpILi0ELi2ELi1ELl9EEEE7reverseERNS_11ReverseArgsINS_6WriterEEE"
 "_ZN5TMBad6global8CompleteIN6atomic14logspace_addOpILi0ELi2ELi1ELl9EEEE7reverseERNS_11ReverseArgsINS0_6ad_augEEE"
 "_ZN5TMBad6global8CompleteIN6atomic14logspace_addOpILi0ELi2ELi1ELl9EEEE9decrementERSt4pairIjjE"
 "_ZN5TMBad6global8CompleteIN6atomic14logspace_addOpILi0ELi2ELi1ELl9EEEE9incrementERSt4pairIjjE"
 "_ZN5TMBad6global8CompleteIN6atomic14logspace_addOpILi0ELi2ELi1ELl9EEEE9self_fuseEv"
 "_ZN5TMBad6global8CompleteIN6atomic14logspace_addOpILi0ELi2ELi1ELl9EEEED0Ev"
 "_ZN5TMBad6global8CompleteIN6atomic14logspace_addOpILi0ELi2ELi1ELl9EEEED1Ev"
 "_ZN5TMBad6global8CompleteIN6atomic14logspace_addOpILi1ELi2ELi2ELl9EEEE10deallocateEv"
 "_ZN5TMBad6global8CompleteIN6atomic14logspace_addOpILi1ELi2ELi2ELl9EEEE10identifierEv"
 "_ZN5TMBad6global8CompleteIN6atomic14logspace_addOpILi1ELi2ELi2ELl9EEEE10incompleteEv"
 "_ZN5TMBad6global8CompleteIN6atomic14logspace_addOpILi1ELi2ELi2ELl9EEEE10input_sizeEv"
 "_ZN5TMBad6global8CompleteIN6atomic14logspace_addOpILi1ELi2ELi2ELl9EEEE10other_fuseEPNS0_12OperatorPureE"
 "_ZN5TMBad6global8CompleteIN6atomic14logspace_addOpILi1ELi2ELi2ELl9EEEE11output_sizeEv"
 "_ZN5TMBad6global8CompleteIN6atomic14logspace_addOpILi1ELi2ELi2ELl9EEEE12dependenciesERNS_4ArgsIvEERNS_12DependenciesE"
 "_ZN5TMBad6global8CompleteIN6atomic14logspace_addOpILi1ELi2ELi2ELl9EEEE12forward_incrERNS_11ForwardArgsIbEE"
 "_ZN5TMBad6global8CompleteIN6atomic14logspace_addOpILi1ELi2ELi2ELl9EEEE12forward_incrERNS_11ForwardArgsIdEE"
 "_ZN5TMBad6global8CompleteIN6atomic14logspace_addOpILi1ELi2ELi2ELl9EEEE12forward_incrERNS_11ForwardArgsINS_6WriterEEE"
 "_ZN5TMBad6global8CompleteIN6atomic14logspace_addOpILi1ELi2ELi2ELl9EEEE12forward_incrERNS_11ForwardArgsINS0_6ad_augEEE"
 "_ZN5TMBad6global8CompleteIN6atomic14logspace_addOpILi1ELi2ELi2ELl9EEEE12reverse_decrERNS_11ReverseArgsIbEE"
 "_ZN5TMBad6global8CompleteIN6atomic14logspace_addOpILi1ELi2ELi2ELl9EEEE12reverse_decrERNS_11ReverseArgsIdEE"
 "_ZN5TMBad6global8CompleteIN6atomic14logspace_addOpILi1ELi2ELi2ELl9EEEE12reverse_decrERNS_11ReverseArgsINS_6WriterEEE"
 "_ZN5TMBad6global8CompleteIN6atomic14logspace_addOpILi1ELi2ELi2ELl9EEEE12reverse_decrERNS_11ReverseArgsINS0_6ad_augEEE"
 "_ZN5TMBad6global8CompleteIN6atomic14logspace_addOpILi1ELi2ELi2ELl9EEEE13operator_dataEv"
 "_ZN5TMBad6global8CompleteIN6atomic14logspace_addOpILi1ELi2ELi2ELl9EEEE19forward_replay_copyERNS_11ForwardArgsINS0_6ad_augEEE"
 "_ZN5TMBad6global8CompleteIN6atomic14logspace_addOpILi1ELi2ELi2ELl9EEEE23forward_incr_mark_denseERNS_11ForwardArgsIbEE"
 "_ZN5TMBad6global8CompleteIN6atomic14logspace_addOpILi1ELi2ELi2ELl9EEEE4copyEv"
 "_ZN5TMBad6global8CompleteIN6atomic14logspace_addOpILi1ELi2ELi2ELl9EEEE4infoEv"
 "_ZN5TMBad6global8CompleteIN6atomic14logspace_addOpILi1ELi2ELi2ELl9EEEE5printENS0_12print_configE"
 "_ZN5TMBad6global8CompleteIN6atomic14logspace_addOpILi1ELi2ELi2ELl9EEEE7forwardERNS_11ForwardArgsIbEE"
 "_ZN5TMBad6global8CompleteIN6atomic14logspace_addOpILi1ELi2ELi2ELl9EEEE7forwardERNS_11ForwardArgsIdEE"
 "_ZN5TMBad6global8CompleteIN6atomic14logspace_addOpILi1ELi2ELi2ELl9EEEE7forwardERNS_11ForwardArgsINS_6WriterEEE"
 "_ZN5TMBad6global8CompleteIN6atomic14logspace_addOpILi1ELi2ELi2ELl9EEEE7forwardERNS_11ForwardArgsINS0_6ad_augEEE"
 "_ZN5TMBad6global8CompleteIN6atomic14logspace_addOpILi1ELi2ELi2ELl9EEEE7op_nameEv"
 "_ZN5TMBad6global8CompleteIN6atomic14logspace_addOpILi1ELi2ELi2ELl9EEEE7reverseERNS_11ReverseArgsIbEE"
 "_ZN5TMBad6global8CompleteIN6atomic14logspace_addOpILi1ELi2ELi2ELl9EEEE7reverseERNS_11ReverseArgsIdEE"
 "_ZN5TMBad6global8CompleteIN6atomic14logspace_addOpILi1ELi2ELi2ELl9EEEE7reverseERNS_11ReverseArgsINS_6WriterEEE"
 "_ZN5TMBad6global8CompleteIN6atomic14logspace_addOpILi1ELi2ELi2ELl9EEEE7reverseERNS_11ReverseArgsINS0_6ad_augEEE"
 "_ZN5TMBad6global8CompleteIN6atomic14logspace_addOpILi1ELi2ELi2ELl9EEEE9decrementERSt4pairIjjE"
 "_ZN5TMBad6global8CompleteIN6atomic14logspace_addOpILi1ELi2ELi2ELl9EEEE9incrementERSt4pairIjjE"
 "_ZN5TMBad6global8CompleteIN6atomic14logspace_addOpILi1ELi2ELi2ELl9EEEE9self_fuseEv"
 "_ZN5TMBad6global8CompleteIN6atomic14logspace_addOpILi1ELi2ELi2ELl9EEEED0Ev"
 "_ZN5TMBad6global8CompleteIN6atomic14logspace_addOpILi1ELi2ELi2ELl9EEEED1Ev"
 "_ZN5TMBad6global8CompleteIN6atomic14logspace_addOpILi2ELi2ELi4ELl9EEEE10deallocateEv"
 "_ZN5TMBad6global8CompleteIN6atomic14logspace_addOpILi2ELi2ELi4ELl9EEEE10identifierEv"
 "_ZN5TMBad6global8CompleteIN6atomic14logspace_addOpILi2ELi2ELi4ELl9EEEE10incompleteEv"
 "_ZN5TMBad6global8CompleteIN6atomic14logspace_addOpILi2ELi2ELi4ELl9EEEE10input_sizeEv"
 "_ZN5TMBad6global8CompleteIN6atomic14logspace_addOpILi2ELi2ELi4ELl9EEEE10other_fuseEPNS0_12OperatorPureE"
 "_ZN5TMBad6global8CompleteIN6atomic14logspace_addOpILi2ELi2ELi4ELl9EEEE11output_sizeEv"
 "_ZN5TMBad6global8CompleteIN6atomic14logspace_addOpILi2ELi2ELi4ELl9EEEE12dependenciesERNS_4ArgsIvEERNS_12DependenciesE"
 "_ZN5TMBad6global8CompleteIN6atomic14logspace_addOpILi2ELi2ELi4ELl9EEEE12forward_incrERNS_11ForwardArgsIbEE"
 "_ZN5TMBad6global8CompleteIN6atomic14logspace_addOpILi2ELi2ELi4ELl9EEEE12forward_incrERNS_11ForwardArgsIdEE"
 "_ZN5TMBad6global8CompleteIN6atomic14logspace_addOpILi2ELi2ELi4ELl9EEEE12forward_incrERNS_11ForwardArgsINS_6WriterEEE"
 "_ZN5TMBad6global8CompleteIN6atomic14logspace_addOpILi2ELi2ELi4ELl9EEEE12forward_incrERNS_11ForwardArgsINS0_6ad_augEEE"
 "_ZN5TMBad6global8CompleteIN6atomic14logspace_addOpILi2ELi2ELi4ELl9EEEE12reverse_decrERNS_11ReverseArgsIbEE"
 "_ZN5TMBad6global8CompleteIN6atomic14logspace_addOpILi2ELi2ELi4ELl9EEEE12reverse_decrERNS_11ReverseArgsIdEE"
 "_ZN5TMBad6global8CompleteIN6atomic14logspace_addOpILi2ELi2ELi4ELl9EEEE12reverse_decrERNS_11ReverseArgsINS_6WriterEEE"
 "_ZN5TMBad6global8CompleteIN6atomic14logspace_addOpILi2ELi2ELi4ELl9EEEE12reverse_decrERNS_11ReverseArgsINS0_6ad_augEEE"
 "_ZN5TMBad6global8CompleteIN6atomic14logspace_addOpILi2ELi2ELi4ELl9EEEE13operator_dataEv"
 "_ZN5TMBad6global8CompleteIN6atomic14logspace_addOpILi2ELi2ELi4ELl9EEEE19forward_replay_copyERNS_11ForwardArgsINS0_6ad_augEEE"
 "_ZN5TMBad6global8CompleteIN6atomic14logspace_addOpILi2ELi2ELi4ELl9EEEE23forward_incr_mark_denseERNS_11ForwardArgsIbEE"
 "_ZN5TMBad6global8CompleteIN6atomic14logspace_addOpILi2ELi2ELi4ELl9EEEE4copyEv"
 "_ZN5TMBad6global8CompleteIN6atomic14logspace_addOpILi2ELi2ELi4ELl9EEEE4infoEv"
 "_ZN5TMBad6global8CompleteIN6atomic14logspace_addOpILi2ELi2ELi4ELl9EEEE5printENS0_12print_configE"
 "_ZN5TMBad6global8CompleteIN6atomic14logspace_addOpILi2ELi2ELi4ELl9EEEE7forwardERNS_11ForwardArgsIbEE"
 "_ZN5TMBad6global8CompleteIN6atomic14logspace_addOpILi2ELi2ELi4ELl9EEEE7forwardERNS_11ForwardArgsIdEE"
 "_ZN5TMBad6global8CompleteIN6atomic14logspace_addOpILi2ELi2ELi4ELl9EEEE7forwardERNS_11ForwardArgsINS_6WriterEEE"
 "_ZN5TMBad6global8CompleteIN6atomic14logspace_addOpILi2ELi2ELi4ELl9EEEE7forwardERNS_11ForwardArgsINS0_6ad_augEEE"
 "_ZN5TMBad6global8CompleteIN6atomic14logspace_addOpILi2ELi2ELi4ELl9EEEE7op_nameEv"
 "_ZN5TMBad6global8CompleteIN6atomic14logspace_addOpILi2ELi2ELi4ELl9EEEE7reverseERNS_11ReverseArgsIbEE"
 "_ZN5TMBad6global8CompleteIN6atomic14logspace_addOpILi2ELi2ELi4ELl9EEEE7reverseERNS_11ReverseArgsIdEE"
 "_ZN5TMBad6global8CompleteIN6atomic14logspace_addOpILi2ELi2ELi4ELl9EEEE7reverseERNS_11ReverseArgsINS_6WriterEEE"
 "_ZN5TMBad6global8CompleteIN6atomic14logspace_addOpILi2ELi2ELi4ELl9EEEE7reverseERNS_11ReverseArgsINS0_6ad_augEEE"
 "_ZN5TMBad6global8CompleteIN6atomic14logspace_addOpILi2ELi2ELi4ELl9EEEE9decrementERSt4pairIjjE"
 "_ZN5TMBad6global8CompleteIN6atomic14logspace_addOpILi2ELi2ELi4ELl9EEEE9incrementERSt4pairIjjE"
 "_ZN5TMBad6global8CompleteIN6atomic14logspace_addOpILi2ELi2ELi4ELl9EEEE9self_fuseEv"
 "_ZN5TMBad6global8CompleteIN6atomic14logspace_addOpILi2ELi2ELi4ELl9EEEED0Ev"
 "_ZN5TMBad6global8CompleteIN6atomic14logspace_addOpILi2ELi2ELi4ELl9EEEED1Ev"
 "_ZN5TMBad6global8CompleteIN6atomic14logspace_addOpILi3ELi2ELi8ELl9EEEE10deallocateEv"
 "_ZN5TMBad6global8CompleteIN6atomic14logspace_addOpILi3ELi2ELi8ELl9EEEE10identifierEv"
 "_ZN5TMBad6global8CompleteIN6atomic14logspace_addOpILi3ELi2ELi8ELl9EEEE10incompleteEv"
 "_ZN5TMBad6global8CompleteIN6atomic14logspace_addOpILi3ELi2ELi8ELl9EEEE10input_sizeEv"
 "_ZN5TMBad6global8CompleteIN6atomic14logspace_addOpILi3ELi2ELi8ELl9EEEE10other_fuseEPNS0_12OperatorPureE"
 "_ZN5TMBad6global8CompleteIN6atomic14logspace_addOpILi3ELi2ELi8ELl9EEEE11output_sizeEv"
 "_ZN5TMBad6global8CompleteIN6atomic14logspace_addOpILi3ELi2ELi8ELl9EEEE12dependenciesERNS_4ArgsIvEERNS_12DependenciesE"
 "_ZN5TMBad6global8CompleteIN6atomic14logspace_addOpILi3ELi2ELi8ELl9EEEE12forward_incrERNS_11ForwardArgsIbEE"
 "_ZN5TMBad6global8CompleteIN6atomic14logspace_addOpILi3ELi2ELi8ELl9EEEE12forward_incrERNS_11ForwardArgsIdEE"
 "_ZN5TMBad6global8CompleteIN6atomic14logspace_addOpILi3ELi2ELi8ELl9EEEE12forward_incrERNS_11ForwardArgsINS_6WriterEEE"
 "_ZN5TMBad6global8CompleteIN6atomic14logspace_addOpILi3ELi2ELi8ELl9EEEE12forward_incrERNS_11ForwardArgsINS0_6ad_augEEE"
 "_ZN5TMBad6global8CompleteIN6atomic14logspace_addOpILi3ELi2ELi8ELl9EEEE12reverse_decrERNS_11ReverseArgsIbEE"
 "_ZN5TMBad6global8CompleteIN6atomic14logspace_addOpILi3ELi2ELi8ELl9EEEE12reverse_decrERNS_11ReverseArgsIdEE"
 "_ZN5TMBad6global8CompleteIN6atomic14logspace_addOpILi3ELi2ELi8ELl9EEEE12reverse_decrERNS_11ReverseArgsINS_6WriterEEE"
 "_ZN5TMBad6global8CompleteIN6atomic14logspace_addOpILi3ELi2ELi8ELl9EEEE12reverse_decrERNS_11ReverseArgsINS0_6ad_augEEE"
 "_ZN5TMBad6global8CompleteIN6atomic14logspace_addOpILi3ELi2ELi8ELl9EEEE13operator_dataEv"
 "_ZN5TMBad6global8CompleteIN6atomic14logspace_addOpILi3ELi2ELi8ELl9EEEE19forward_replay_copyERNS_11ForwardArgsINS0_6ad_augEEE"
 "_ZN5TMBad6global8CompleteIN6atomic14logspace_addOpILi3ELi2ELi8ELl9EEEE23forward_incr_mark_denseERNS_11ForwardArgsIbEE"
 "_ZN5TMBad6global8CompleteIN6atomic14logspace_addOpILi3ELi2ELi8ELl9EEEE4copyEv"
 "_ZN5TMBad6global8CompleteIN6atomic14logspace_addOpILi3ELi2ELi8ELl9EEEE4infoEv"
 "_ZN5TMBad6global8CompleteIN6atomic14logspace_addOpILi3ELi2ELi8ELl9EEEE5printENS0_12print_configE"
 "_ZN5TMBad6global8CompleteIN6atomic14logspace_addOpILi3ELi2ELi8ELl9EEEE7forwardERNS_11ForwardArgsIbEE"
 "_ZN5TMBad6global8CompleteIN6atomic14logspace_addOpILi3ELi2ELi8ELl9EEEE7forwardERNS_11ForwardArgsIdEE"
 "_ZN5TMBad6global8CompleteIN6atomic14logspace_addOpILi3ELi2ELi8ELl9EEEE7forwardERNS_11ForwardArgsINS_6WriterEEE"
 "_ZN5TMBad6global8CompleteIN6atomic14logspace_addOpILi3ELi2ELi8ELl9EEEE7forwardERNS_11ForwardArgsINS0_6ad_augEEE"
 "_ZN5TMBad6global8CompleteIN6atomic14logspace_addOpILi3ELi2ELi8ELl9EEEE7op_nameEv"
 "_ZN5TMBad6global8CompleteIN6atomic14logspace_addOpILi3ELi2ELi8ELl9EEEE7reverseERNS_11ReverseArgsIbEE"
 "_ZN5TMBad6global8CompleteIN6atomic14logspace_addOpILi3ELi2ELi8ELl9EEEE7reverseERNS_11ReverseArgsIdEE"
 "_ZN5TMBad6global8CompleteIN6atomic14logspace_addOpILi3ELi2ELi8ELl9EEEE7reverseERNS_11ReverseArgsINS_6WriterEEE"
 "_ZN5TMBad6global8CompleteIN6atomic14logspace_addOpILi3ELi2ELi8ELl9EEEE7reverseERNS_11ReverseArgsINS0_6ad_augEEE"
 "_ZN5TMBad6global8CompleteIN6atomic14logspace_addOpILi3ELi2ELi8ELl9EEEE9decrementERSt4pairIjjE"
 "_ZN5TMBad6global8CompleteIN6atomic14logspace_addOpILi3ELi2ELi8ELl9EEEE9incrementERSt4pairIjjE"
 "_ZN5TMBad6global8CompleteIN6atomic14logspace_addOpILi3ELi2ELi8ELl9EEEE9self_fuseEv"
 "_ZN5TMBad6global8CompleteIN6atomic14logspace_addOpILi3ELi2ELi8ELl9EEEED0Ev"
 "_ZN5TMBad6global8CompleteIN6atomic14logspace_addOpILi3ELi2ELi8ELl9EEEED1Ev"
 "_ZN5TMBad6global8CompleteIN6atomic8logdetOpIvEEE10deallocateEv"
 "_ZN5TMBad6global8CompleteIN6atomic8logdetOpIvEEE10identifierEv"
 "_ZN5TMBad6global8CompleteIN6atomic8logdetOpIvEEE10incompleteEv"
 "_ZN5TMBad6global8CompleteIN6atomic8logdetOpIvEEE10input_sizeEv"
 "_ZN5TMBad6global8CompleteIN6atomic8logdetOpIvEEE10other_fuseEPNS0_12OperatorPureE"
 "_ZN5TMBad6global8CompleteIN6atomic8logdetOpIvEEE11output_sizeEv"
 "_ZN5TMBad6global8CompleteIN6atomic8logdetOpIvEEE12dependenciesERNS_4ArgsIvEERNS_12DependenciesE"
 "_ZN5TMBad6global8CompleteIN6atomic8logdetOpIvEEE12forward_incrERNS_11ForwardArgsIbEE"
 "_ZN5TMBad6global8CompleteIN6atomic8logdetOpIvEEE12forward_incrERNS_11ForwardArgsIdEE"
 "_ZN5TMBad6global8CompleteIN6atomic8logdetOpIvEEE12forward_incrERNS_11ForwardArgsINS_6WriterEEE"
 "_ZN5TMBad6global8CompleteIN6atomic8logdetOpIvEEE12forward_incrERNS_11ForwardArgsINS0_6ad_augEEE"
 "_ZN5TMBad6global8CompleteIN6atomic8logdetOpIvEEE12reverse_decrERNS_11ReverseArgsIbEE"
 "_ZN5TMBad6global8CompleteIN6atomic8logdetOpIvEEE12reverse_decrERNS_11ReverseArgsIdEE"
 "_ZN5TMBad6global8CompleteIN6atomic8logdetOpIvEEE12reverse_decrERNS_11ReverseArgsINS_6WriterEEE"
 "_ZN5TMBad6global8CompleteIN6atomic8logdetOpIvEEE12reverse_decrERNS_11ReverseArgsINS0_6ad_augEEE"
 "_ZN5TMBad6global8CompleteIN6atomic8logdetOpIvEEE13operator_dataEv"
 "_ZN5TMBad6global8CompleteIN6atomic8logdetOpIvEEE23forward_incr_mark_denseERNS_11ForwardArgsIbEE"
 "_ZN5TMBad6global8CompleteIN6atomic8logdetOpIvEEE4copyEv"
 "_ZN5TMBad6global8CompleteIN6atomic8logdetOpIvEEE4infoEv"
 "_ZN5TMBad6global8CompleteIN6atomic8logdetOpIvEEE5printENS0_12print_configE"
 "_ZN5TMBad6global8CompleteIN6atomic8logdetOpIvEEE7forwardERNS_11ForwardArgsIbEE"
 "_ZN5TMBad6global8CompleteIN6atomic8logdetOpIvEEE7forwardERNS_11ForwardArgsIdEE"
 "_ZN5TMBad6global8CompleteIN6atomic8logdetOpIvEEE7forwardERNS_11ForwardArgsINS_6WriterEEE"
 "_ZN5TMBad6global8CompleteIN6atomic8logdetOpIvEEE7forwardERNS_11ForwardArgsINS0_6ad_augEEE"
 "_ZN5TMBad6global8CompleteIN6atomic8logdetOpIvEEE7op_nameEv"
 "_ZN5TMBad6global8CompleteIN6atomic8logdetOpIvEEE7reverseERNS_11ReverseArgsIbEE"
 "_ZN5TMBad6global8CompleteIN6atomic8logdetOpIvEEE7reverseERNS_11ReverseArgsIdEE"
 "_ZN5TMBad6global8CompleteIN6atomic8logdetOpIvEEE7reverseERNS_11ReverseArgsINS_6WriterEEE"
 "_ZN5TMBad6global8CompleteIN6atomic8logdetOpIvEEE7reverseERNS_11ReverseArgsINS0_6ad_augEEE"
 "_ZN5TMBad6global8CompleteIN6atomic8logdetOpIvEEE9decrementERSt4pairIjjE"
 "_ZN5TMBad6global8CompleteIN6atomic8logdetOpIvEEE9incrementERSt4pairIjjE"
 "_ZN5TMBad6global8CompleteIN6atomic8logdetOpIvEEE9self_fuseEv"
 "_ZN5TMBad6global8CompleteIN6atomic8logdetOpIvEEED0Ev"
 "_ZN5TMBad6global8CompleteIN6atomic8logdetOpIvEEED1Ev"
 "_ZN5TMBad6global8CompleteIN6atomic8matinvOpIvEEE10deallocateEv"
 "_ZN5TMBad6global8CompleteIN6atomic8matinvOpIvEEE10identifierEv"
 "_ZN5TMBad6global8CompleteIN6atomic8matinvOpIvEEE10incompleteEv"
 "_ZN5TMBad6global8CompleteIN6atomic8matinvOpIvEEE10input_sizeEv"
 "_ZN5TMBad6global8CompleteIN6atomic8matinvOpIvEEE10other_fuseEPNS0_12OperatorPureE"
 "_ZN5TMBad6global8CompleteIN6atomic8matinvOpIvEEE11output_sizeEv"
 "_ZN5TMBad6global8CompleteIN6atomic8matinvOpIvEEE12dependenciesERNS_4ArgsIvEERNS_12DependenciesE"
 "_ZN5TMBad6global8CompleteIN6atomic8matinvOpIvEEE12forward_incrERNS_11ForwardArgsIbEE"
 "_ZN5TMBad6global8CompleteIN6atomic8matinvOpIvEEE12forward_incrERNS_11ForwardArgsIdEE"
 "_ZN5TMBad6global8CompleteIN6atomic8matinvOpIvEEE12forward_incrERNS_11ForwardArgsINS_6WriterEEE"
 "_ZN5TMBad6global8CompleteIN6atomic8matinvOpIvEEE12forward_incrERNS_11ForwardArgsINS0_6ad_augEEE"
 "_ZN5TMBad6global8CompleteIN6atomic8matinvOpIvEEE12reverse_decrERNS_11ReverseArgsIbEE"
 "_ZN5TMBad6global8CompleteIN6atomic8matinvOpIvEEE12reverse_decrERNS_11ReverseArgsIdEE"
 "_ZN5TMBad6global8CompleteIN6atomic8matinvOpIvEEE12reverse_decrERNS_11ReverseArgsINS_6WriterEEE"
 "_ZN5TMBad6global8CompleteIN6atomic8matinvOpIvEEE12reverse_decrERNS_11ReverseArgsINS0_6ad_augEEE"
 "_ZN5TMBad6global8CompleteIN6atomic8matinvOpIvEEE13operator_dataEv"
 "_ZN5TMBad6global8CompleteIN6atomic8matinvOpIvEEE23forward_incr_mark_denseERNS_11ForwardArgsIbEE"
 "_ZN5TMBad6global8CompleteIN6atomic8matinvOpIvEEE4copyEv"
 "_ZN5TMBad6global8CompleteIN6atomic8matinvOpIvEEE4infoEv"
 "_ZN5TMBad6global8CompleteIN6atomic8matinvOpIvEEE5printENS0_12print_configE"
 "_ZN5TMBad6global8CompleteIN6atomic8matinvOpIvEEE7forwardERNS_11ForwardArgsIbEE"
 "_ZN5TMBad6global8CompleteIN6atomic8matinvOpIvEEE7forwardERNS_11ForwardArgsIdEE"
 "_ZN5TMBad6global8CompleteIN6atomic8matinvOpIvEEE7forwardERNS_11ForwardArgsINS_6WriterEEE"
 "_ZN5TMBad6global8CompleteIN6atomic8matinvOpIvEEE7forwardERNS_11ForwardArgsINS0_6ad_augEEE"
 "_ZN5TMBad6global8CompleteIN6atomic8matinvOpIvEEE7op_nameEv"
 "_ZN5TMBad6global8CompleteIN6atomic8matinvOpIvEEE7reverseERNS_11ReverseArgsIbEE"
 "_ZN5TMBad6global8CompleteIN6atomic8matinvOpIvEEE7reverseERNS_11ReverseArgsIdEE"
 "_ZN5TMBad6global8CompleteIN6atomic8matinvOpIvEEE7reverseERNS_11ReverseArgsINS_6WriterEEE"
 "_ZN5TMBad6global8CompleteIN6atomic8matinvOpIvEEE7reverseERNS_11ReverseArgsINS0_6ad_augEEE"
 "_ZN5TMBad6global8CompleteIN6atomic8matinvOpIvEEE9decrementERSt4pairIjjE"
 "_ZN5TMBad6global8CompleteIN6atomic8matinvOpIvEEE9incrementERSt4pairIjjE"
 "_ZN5TMBad6global8CompleteIN6atomic8matinvOpIvEEE9self_fuseEv"
 "_ZN5TMBad6global8CompleteIN6atomic8matinvOpIvEEED0Ev"
 "_ZN5TMBad6global8CompleteIN6atomic8matinvOpIvEEED1Ev"
 "_ZN5TMBad6global8CompleteIN6atomic8matmulOpIvEEE10deallocateEv"
 "_ZN5TMBad6global8CompleteIN6atomic8matmulOpIvEEE10identifierEv"
 "_ZN5TMBad6global8CompleteIN6atomic8matmulOpIvEEE10incompleteEv"
 "_ZN5TMBad6global8CompleteIN6atomic8matmulOpIvEEE10input_sizeEv"
 "_ZN5TMBad6global8CompleteIN6atomic8matmulOpIvEEE10other_fuseEPNS0_12OperatorPureE"
 "_ZN5TMBad6global8CompleteIN6atomic8matmulOpIvEEE11output_sizeEv"
 "_ZN5TMBad6global8CompleteIN6atomic8matmulOpIvEEE12dependenciesERNS_4ArgsIvEERNS_12DependenciesE"
 "_ZN5TMBad6global8CompleteIN6atomic8matmulOpIvEEE12forward_incrERNS_11ForwardArgsIbEE"
 "_ZN5TMBad6global8CompleteIN6atomic8matmulOpIvEEE12forward_incrERNS_11ForwardArgsIdEE"
 "_ZN5TMBad6global8CompleteIN6atomic8matmulOpIvEEE12forward_incrERNS_11ForwardArgsINS_6WriterEEE"
 "_ZN5TMBad6global8CompleteIN6atomic8matmulOpIvEEE12forward_incrERNS_11ForwardArgsINS0_6ad_augEEE"
 "_ZN5TMBad6global8CompleteIN6atomic8matmulOpIvEEE12reverse_decrERNS_11ReverseArgsIbEE"
 "_ZN5TMBad6global8CompleteIN6atomic8matmulOpIvEEE12reverse_decrERNS_11ReverseArgsIdEE"
 "_ZN5TMBad6global8CompleteIN6atomic8matmulOpIvEEE12reverse_decrERNS_11ReverseArgsINS_6WriterEEE"
 "_ZN5TMBad6global8CompleteIN6atomic8matmulOpIvEEE12reverse_decrERNS_11ReverseArgsINS0_6ad_augEEE"
 "_ZN5TMBad6global8CompleteIN6atomic8matmulOpIvEEE13operator_dataEv"
 "_ZN5TMBad6global8CompleteIN6atomic8matmulOpIvEEE23forward_incr_mark_denseERNS_11ForwardArgsIbEE"
 "_ZN5TMBad6global8CompleteIN6atomic8matmulOpIvEEE4copyEv"
 "_ZN5TMBad6global8CompleteIN6atomic8matmulOpIvEEE4infoEv"
 "_ZN5TMBad6global8CompleteIN6atomic8matmulOpIvEEE5printENS0_12print_configE"
 "_ZN5TMBad6global8CompleteIN6atomic8matmulOpIvEEE7forwardERNS_11ForwardArgsIbEE"
 "_ZN5TMBad6global8CompleteIN6atomic8matmulOpIvEEE7forwardERNS_11ForwardArgsIdEE"
 "_ZN5TMBad6global8CompleteIN6atomic8matmulOpIvEEE7forwardERNS_11ForwardArgsINS_6WriterEEE"
 "_ZN5TMBad6global8CompleteIN6atomic8matmulOpIvEEE7forwardERNS_11ForwardArgsINS0_6ad_augEEE"
 "_ZN5TMBad6global8CompleteIN6atomic8matmulOpIvEEE7op_nameEv"
 "_ZN5TMBad6global8CompleteIN6atomic8matmulOpIvEEE7reverseERNS_11ReverseArgsIbEE"
 "_ZN5TMBad6global8CompleteIN6atomic8matmulOpIvEEE7reverseERNS_11ReverseArgsIdEE"
 "_ZN5TMBad6global8CompleteIN6atomic8matmulOpIvEEE7reverseERNS_11ReverseArgsINS_6WriterEEE"
 "_ZN5TMBad6global8CompleteIN6atomic8matmulOpIvEEE7reverseERNS_11ReverseArgsINS0_6ad_augEEE"
 "_ZN5TMBad6global8CompleteIN6atomic8matmulOpIvEEE9decrementERSt4pairIjjE"
 "_ZN5TMBad6global8CompleteIN6atomic8matmulOpIvEEE9incrementERSt4pairIjjE"
 "_ZN5TMBad6global8CompleteIN6atomic8matmulOpIvEEE9self_fuseEv"
 "_ZN5TMBad6global8CompleteIN6atomic8matmulOpIvEEED0Ev"
 "_ZN5TMBad6global8CompleteIN6atomic8matmulOpIvEEED1Ev"
 "_ZN5TMBad6global8CompleteIN6newton14InvSubOperatorIN5Eigen13SimplicialLLTINS4_12SparseMatrixIdLi0EiEELi1ENS4_11AMDOrderingIiEEEEEEE10deallocateEv"
 "_ZN5TMBad6global8CompleteIN6newton14InvSubOperatorIN5Eigen13SimplicialLLTINS4_12SparseMatrixIdLi0EiEELi1ENS4_11AMDOrderingIiEEEEEEE10identifierEv"
 "_ZN5TMBad6global8CompleteIN6newton14InvSubOperatorIN5Eigen13SimplicialLLTINS4_12SparseMatrixIdLi0EiEELi1ENS4_11AMDOrderingIiEEEEEEE10incompleteEv"
 "_ZN5TMBad6global8CompleteIN6newton14InvSubOperatorIN5Eigen13SimplicialLLTINS4_12SparseMatrixIdLi0EiEELi1ENS4_11AMDOrderingIiEEEEEEE10input_sizeEv"
 "_ZN5TMBad6global8CompleteIN6newton14InvSubOperatorIN5Eigen13SimplicialLLTINS4_12SparseMatrixIdLi0EiEELi1ENS4_11AMDOrderingIiEEEEEEE10other_fuseEPNS0_12OperatorPureE"
 "_ZN5TMBad6global8CompleteIN6newton14InvSubOperatorIN5Eigen13SimplicialLLTINS4_12SparseMatrixIdLi0EiEELi1ENS4_11AMDOrderingIiEEEEEEE11output_sizeEv"
 "_ZN5TMBad6global8CompleteIN6newton14InvSubOperatorIN5Eigen13SimplicialLLTINS4_12SparseMatrixIdLi0EiEELi1ENS4_11AMDOrderingIiEEEEEEE12dependenciesERNS_4ArgsIvEERNS_12DependenciesE"
 "_ZN5TMBad6global8CompleteIN6newton14InvSubOperatorIN5Eigen13SimplicialLLTINS4_12SparseMatrixIdLi0EiEELi1ENS4_11AMDOrderingIiEEEEEEE12forward_incrERNS_11ForwardArgsIbEE"
 "_ZN5TMBad6global8CompleteIN6newton14InvSubOperatorIN5Eigen13SimplicialLLTINS4_12SparseMatrixIdLi0EiEELi1ENS4_11AMDOrderingIiEEEEEEE12forward_incrERNS_11ForwardArgsIdEE"
 "_ZN5TMBad6global8CompleteIN6newton14InvSubOperatorIN5Eigen13SimplicialLLTINS4_12SparseMatrixIdLi0EiEELi1ENS4_11AMDOrderingIiEEEEEEE12forward_incrERNS_11ForwardArgsINS_6WriterEEE"
 "_ZN5TMBad6global8CompleteIN6newton14InvSubOperatorIN5Eigen13SimplicialLLTINS4_12SparseMatrixIdLi0EiEELi1ENS4_11AMDOrderingIiEEEEEEE12forward_incrERNS_11ForwardArgsINS0_6ad_augEEE"
 "_ZN5TMBad6global8CompleteIN6newton14InvSubOperatorIN5Eigen13SimplicialLLTINS4_12SparseMatrixIdLi0EiEELi1ENS4_11AMDOrderingIiEEEEEEE12reverse_decrERNS_11ReverseArgsIbEE"
 "_ZN5TMBad6global8CompleteIN6newton14InvSubOperatorIN5Eigen13SimplicialLLTINS4_12SparseMatrixIdLi0EiEELi1ENS4_11AMDOrderingIiEEEEEEE12reverse_decrERNS_11ReverseArgsIdEE"
 "_ZN5TMBad6global8CompleteIN6newton14InvSubOperatorIN5Eigen13SimplicialLLTINS4_12SparseMatrixIdLi0EiEELi1ENS4_11AMDOrderingIiEEEEEEE12reverse_decrERNS_11ReverseArgsINS_6WriterEEE"
 "_ZN5TMBad6global8CompleteIN6newton14InvSubOperatorIN5Eigen13SimplicialLLTINS4_12SparseMatrixIdLi0EiEELi1ENS4_11AMDOrderingIiEEEEEEE12reverse_decrERNS_11ReverseArgsINS0_6ad_augEEE"
 "_ZN5TMBad6global8CompleteIN6newton14InvSubOperatorIN5Eigen13SimplicialLLTINS4_12SparseMatrixIdLi0EiEELi1ENS4_11AMDOrderingIiEEEEEEE13operator_dataEv"
 "_ZN5TMBad6global8CompleteIN6newton14InvSubOperatorIN5Eigen13SimplicialLLTINS4_12SparseMatrixIdLi0EiEELi1ENS4_11AMDOrderingIiEEEEEEE19forward_replay_copyERNS_11ForwardArgsINS0_6ad_augEEE"
 "_ZN5TMBad6global8CompleteIN6newton14InvSubOperatorIN5Eigen13SimplicialLLTINS4_12SparseMatrixIdLi0EiEELi1ENS4_11AMDOrderingIiEEEEEEE23forward_incr_mark_denseERNS_11ForwardArgsIbEE"
 "_ZN5TMBad6global8CompleteIN6newton14InvSubOperatorIN5Eigen13SimplicialLLTINS4_12SparseMatrixIdLi0EiEELi1ENS4_11AMDOrderingIiEEEEEEE4copyEv"
 "_ZN5TMBad6global8CompleteIN6newton14InvSubOperatorIN5Eigen13SimplicialLLTINS4_12SparseMatrixIdLi0EiEELi1ENS4_11AMDOrderingIiEEEEEEE4infoEv"
 "_ZN5TMBad6global8CompleteIN6newton14InvSubOperatorIN5Eigen13SimplicialLLTINS4_12SparseMatrixIdLi0EiEELi1ENS4_11AMDOrderingIiEEEEEEE5printENS0_12print_configE"
 "_ZN5TMBad6global8CompleteIN6newton14InvSubOperatorIN5Eigen13SimplicialLLTINS4_12SparseMatrixIdLi0EiEELi1ENS4_11AMDOrderingIiEEEEEEE7forwardERNS_11ForwardArgsIbEE"
 "_ZN5TMBad6global8CompleteIN6newton14InvSubOperatorIN5Eigen13SimplicialLLTINS4_12SparseMatrixIdLi0EiEELi1ENS4_11AMDOrderingIiEEEEEEE7forwardERNS_11ForwardArgsIdEE"
 "_ZN5TMBad6global8CompleteIN6newton14InvSubOperatorIN5Eigen13SimplicialLLTINS4_12SparseMatrixIdLi0EiEELi1ENS4_11AMDOrderingIiEEEEEEE7forwardERNS_11ForwardArgsINS_6WriterEEE"
 "_ZN5TMBad6global8CompleteIN6newton14InvSubOperatorIN5Eigen13SimplicialLLTINS4_12SparseMatrixIdLi0EiEELi1ENS4_11AMDOrderingIiEEEEEEE7forwardERNS_11ForwardArgsINS0_6ad_augEEE"
 "_ZN5TMBad6global8CompleteIN6newton14InvSubOperatorIN5Eigen13SimplicialLLTINS4_12SparseMatrixIdLi0EiEELi1ENS4_11AMDOrderingIiEEEEEEE7op_nameEv"
 "_ZN5TMBad6global8CompleteIN6newton14InvSubOperatorIN5Eigen13SimplicialLLTINS4_12SparseMatrixIdLi0EiEELi1ENS4_11AMDOrderingIiEEEEEEE7reverseERNS_11ReverseArgsIbEE"
 "_ZN5TMBad6global8CompleteIN6newton14InvSubOperatorIN5Eigen13SimplicialLLTINS4_12SparseMatrixIdLi0EiEELi1ENS4_11AMDOrderingIiEEEEEEE7reverseERNS_11ReverseArgsIdEE"
 "_ZN5TMBad6global8CompleteIN6newton14InvSubOperatorIN5Eigen13SimplicialLLTINS4_12SparseMatrixIdLi0EiEELi1ENS4_11AMDOrderingIiEEEEEEE7reverseERNS_11ReverseArgsINS_6WriterEEE"
 "_ZN5TMBad6global8CompleteIN6newton14InvSubOperatorIN5Eigen13SimplicialLLTINS4_12SparseMatrixIdLi0EiEELi1ENS4_11AMDOrderingIiEEEEEEE7reverseERNS_11ReverseArgsINS0_6ad_augEEE"
 "_ZN5TMBad6global8CompleteIN6newton14InvSubOperatorIN5Eigen13SimplicialLLTINS4_12SparseMatrixIdLi0EiEELi1ENS4_11AMDOrderingIiEEEEEEE9decrementERSt4pairIjjE"
 "_ZN5TMBad6global8CompleteIN6newton14InvSubOperatorIN5Eigen13SimplicialLLTINS4_12SparseMatrixIdLi0EiEELi1ENS4_11AMDOrderingIiEEEEEEE9incrementERSt4pairIjjE"
 "_ZN5TMBad6global8CompleteIN6newton14InvSubOperatorIN5Eigen13SimplicialLLTINS4_12SparseMatrixIdLi0EiEELi1ENS4_11AMDOrderingIiEEEEEEE9self_fuseEv"
 "_ZN5TMBad6global8CompleteIN6newton14InvSubOperatorIN5Eigen13SimplicialLLTINS4_12SparseMatrixIdLi0EiEELi1ENS4_11AMDOrderingIiEEEEEEEclERKSt6vectorINS0_8ad_plainESaISE_EE"
 "_ZN5TMBad6global8CompleteIN6newton14InvSubOperatorIN5Eigen13SimplicialLLTINS4_12SparseMatrixIdLi0EiEELi1ENS4_11AMDOrderingIiEEEEEEED0Ev"
 "_ZN5TMBad6global8CompleteIN6newton14InvSubOperatorIN5Eigen13SimplicialLLTINS4_12SparseMatrixIdLi0EiEELi1ENS4_11AMDOrderingIiEEEEEEED1Ev"
 "_ZN5TMBad6global8CompleteIN6newton14LogDetOperatorIN5Eigen13SimplicialLLTINS4_12SparseMatrixIdLi0EiEELi1ENS4_11AMDOrderingIiEEEEEEE10deallocateEv"
 "_ZN5TMBad6global8CompleteIN6newton14LogDetOperatorIN5Eigen13SimplicialLLTINS4_12SparseMatrixIdLi0EiEELi1ENS4_11AMDOrderingIiEEEEEEE10identifierEv"
 "_ZN5TMBad6global8CompleteIN6newton14LogDetOperatorIN5Eigen13SimplicialLLTINS4_12SparseMatrixIdLi0EiEELi1ENS4_11AMDOrderingIiEEEEEEE10incompleteEv"
 "_ZN5TMBad6global8CompleteIN6newton14LogDetOperatorIN5Eigen13SimplicialLLTINS4_12SparseMatrixIdLi0EiEELi1ENS4_11AMDOrderingIiEEEEEEE10input_sizeEv"
 "_ZN5TMBad6global8CompleteIN6newton14LogDetOperatorIN5Eigen13SimplicialLLTINS4_12SparseMatrixIdLi0EiEELi1ENS4_11AMDOrderingIiEEEEEEE10other_fuseEPNS0_12OperatorPureE"
 "_ZN5TMBad6global8CompleteIN6newton14LogDetOperatorIN5Eigen13SimplicialLLTINS4_12SparseMatrixIdLi0EiEELi1ENS4_11AMDOrderingIiEEEEEEE11output_sizeEv"
 "_ZN5TMBad6global8CompleteIN6newton14LogDetOperatorIN5Eigen13SimplicialLLTINS4_12SparseMatrixIdLi0EiEELi1ENS4_11AMDOrderingIiEEEEEEE12dependenciesERNS_4ArgsIvEERNS_12DependenciesE"
 "_ZN5TMBad6global8CompleteIN6newton14LogDetOperatorIN5Eigen13SimplicialLLTINS4_12SparseMatrixIdLi0EiEELi1ENS4_11AMDOrderingIiEEEEEEE12forward_incrERNS_11ForwardArgsIbEE"
 "_ZN5TMBad6global8CompleteIN6newton14LogDetOperatorIN5Eigen13SimplicialLLTINS4_12SparseMatrixIdLi0EiEELi1ENS4_11AMDOrderingIiEEEEEEE12forward_incrERNS_11ForwardArgsIdEE"
 "_ZN5TMBad6global8CompleteIN6newton14LogDetOperatorIN5Eigen13SimplicialLLTINS4_12SparseMatrixIdLi0EiEELi1ENS4_11AMDOrderingIiEEEEEEE12forward_incrERNS_11ForwardArgsINS_6WriterEEE"
 "_ZN5TMBad6global8CompleteIN6newton14LogDetOperatorIN5Eigen13SimplicialLLTINS4_12SparseMatrixIdLi0EiEELi1ENS4_11AMDOrderingIiEEEEEEE12forward_incrERNS_11ForwardArgsINS0_6ad_augEEE"
 "_ZN5TMBad6global8CompleteIN6newton14LogDetOperatorIN5Eigen13SimplicialLLTINS4_12SparseMatrixIdLi0EiEELi1ENS4_11AMDOrderingIiEEEEEEE12reverse_decrERNS_11ReverseArgsIbEE"
 "_ZN5TMBad6global8CompleteIN6newton14LogDetOperatorIN5Eigen13SimplicialLLTINS4_12SparseMatrixIdLi0EiEELi1ENS4_11AMDOrderingIiEEEEEEE12reverse_decrERNS_11ReverseArgsIdEE"
 "_ZN5TMBad6global8CompleteIN6newton14LogDetOperatorIN5Eigen13SimplicialLLTINS4_12SparseMatrixIdLi0EiEELi1ENS4_11AMDOrderingIiEEEEEEE12reverse_decrERNS_11ReverseArgsINS_6WriterEEE"
 "_ZN5TMBad6global8CompleteIN6newton14LogDetOperatorIN5Eigen13SimplicialLLTINS4_12SparseMatrixIdLi0EiEELi1ENS4_11AMDOrderingIiEEEEEEE12reverse_decrERNS_11ReverseArgsINS0_6ad_augEEE"
 "_ZN5TMBad6global8CompleteIN6newton14LogDetOperatorIN5Eigen13SimplicialLLTINS4_12SparseMatrixIdLi0EiEELi1ENS4_11AMDOrderingIiEEEEEEE13operator_dataEv"
 "_ZN5TMBad6global8CompleteIN6newton14LogDetOperatorIN5Eigen13SimplicialLLTINS4_12SparseMatrixIdLi0EiEELi1ENS4_11AMDOrderingIiEEEEEEE19forward_replay_copyERNS_11ForwardArgsINS0_6ad_augEEE"
 "_ZN5TMBad6global8CompleteIN6newton14LogDetOperatorIN5Eigen13SimplicialLLTINS4_12SparseMatrixIdLi0EiEELi1ENS4_11AMDOrderingIiEEEEEEE23forward_incr_mark_denseERNS_11ForwardArgsIbEE"
 "_ZN5TMBad6global8CompleteIN6newton14LogDetOperatorIN5Eigen13SimplicialLLTINS4_12SparseMatrixIdLi0EiEELi1ENS4_11AMDOrderingIiEEEEEEE4copyEv"
 "_ZN5TMBad6global8CompleteIN6newton14LogDetOperatorIN5Eigen13SimplicialLLTINS4_12SparseMatrixIdLi0EiEELi1ENS4_11AMDOrderingIiEEEEEEE4infoEv"
 "_ZN5TMBad6global8CompleteIN6newton14LogDetOperatorIN5Eigen13SimplicialLLTINS4_12SparseMatrixIdLi0EiEELi1ENS4_11AMDOrderingIiEEEEEEE5printENS0_12print_configE"
 "_ZN5TMBad6global8CompleteIN6newton14LogDetOperatorIN5Eigen13SimplicialLLTINS4_12SparseMatrixIdLi0EiEELi1ENS4_11AMDOrderingIiEEEEEEE7forwardERNS_11ForwardArgsIbEE"
 "_ZN5TMBad6global8CompleteIN6newton14LogDetOperatorIN5Eigen13SimplicialLLTINS4_12SparseMatrixIdLi0EiEELi1ENS4_11AMDOrderingIiEEEEEEE7forwardERNS_11ForwardArgsIdEE"
 "_ZN5TMBad6global8CompleteIN6newton14LogDetOperatorIN5Eigen13SimplicialLLTINS4_12SparseMatrixIdLi0EiEELi1ENS4_11AMDOrderingIiEEEEEEE7forwardERNS_11ForwardArgsINS_6WriterEEE"
 "_ZN5TMBad6global8CompleteIN6newton14LogDetOperatorIN5Eigen13SimplicialLLTINS4_12SparseMatrixIdLi0EiEELi1ENS4_11AMDOrderingIiEEEEEEE7forwardERNS_11ForwardArgsINS0_6ad_augEEE"
 "_ZN5TMBad6global8CompleteIN6newton14LogDetOperatorIN5Eigen13SimplicialLLTINS4_12SparseMatrixIdLi0EiEELi1ENS4_11AMDOrderingIiEEEEEEE7op_nameEv"
 "_ZN5TMBad6global8CompleteIN6newton14LogDetOperatorIN5Eigen13SimplicialLLTINS4_12SparseMatrixIdLi0EiEELi1ENS4_11AMDOrderingIiEEEEEEE7reverseERNS_11ReverseArgsIbEE"
 "_ZN5TMBad6global8CompleteIN6newton14LogDetOperatorIN5Eigen13SimplicialLLTINS4_12SparseMatrixIdLi0EiEELi1ENS4_11AMDOrderingIiEEEEEEE7reverseERNS_11ReverseArgsIdEE"
 "_ZN5TMBad6global8CompleteIN6newton14LogDetOperatorIN5Eigen13SimplicialLLTINS4_12SparseMatrixIdLi0EiEELi1ENS4_11AMDOrderingIiEEEEEEE7reverseERNS_11ReverseArgsINS_6WriterEEE"
 "_ZN5TMBad6global8CompleteIN6newton14LogDetOperatorIN5Eigen13SimplicialLLTINS4_12SparseMatrixIdLi0EiEELi1ENS4_11AMDOrderingIiEEEEEEE7reverseERNS_11ReverseArgsINS0_6ad_augEEE"
 "_ZN5TMBad6global8CompleteIN6newton14LogDetOperatorIN5Eigen13SimplicialLLTINS4_12SparseMatrixIdLi0EiEELi1ENS4_11AMDOrderingIiEEEEEEE9decrementERSt4pairIjjE"
 "_ZN5TMBad6global8CompleteIN6newton14LogDetOperatorIN5Eigen13SimplicialLLTINS4_12SparseMatrixIdLi0EiEELi1ENS4_11AMDOrderingIiEEEEEEE9incrementERSt4pairIjjE"
 "_ZN5TMBad6global8CompleteIN6newton14LogDetOperatorIN5Eigen13SimplicialLLTINS4_12SparseMatrixIdLi0EiEELi1ENS4_11AMDOrderingIiEEEEEEE9self_fuseEv"
 "_ZN5TMBad6global8CompleteIN6newton14LogDetOperatorIN5Eigen13SimplicialLLTINS4_12SparseMatrixIdLi0EiEELi1ENS4_11AMDOrderingIiEEEEEEED0Ev"
 "_ZN5TMBad6global8CompleteIN6newton14LogDetOperatorIN5Eigen13SimplicialLLTINS4_12SparseMatrixIdLi0EiEELi1ENS4_11AMDOrderingIiEEEEEEED1Ev"
 "_ZN5TMBad6global8CompleteIN6newton14NewtonOperatorINS2_5sliceINS_5ADFunINS0_6ad_augEEEEENS2_16jacobian_dense_tIN5Eigen3LLTINSA_6MatrixIdLin1ELin1ELi0ELin1ELin1EEELi1EEEEEEEE10deallocateEv"
 "_ZN5TMBad6global8CompleteIN6newton14NewtonOperatorINS2_5sliceINS_5ADFunINS0_6ad_augEEEEENS2_16jacobian_dense_tIN5Eigen3LLTINSA_6MatrixIdLin1ELin1ELi0ELin1ELin1EEELi1EEEEEEEE10identifierEv"
 "_ZN5TMBad6global8CompleteIN6newton14NewtonOperatorINS2_5sliceINS_5ADFunINS0_6ad_augEEEEENS2_16jacobian_dense_tIN5Eigen3LLTINSA_6MatrixIdLin1ELin1ELi0ELin1ELin1EEELi1EEEEEEEE10incompleteEv"
 "_ZN5TMBad6global8CompleteIN6newton14NewtonOperatorINS2_5sliceINS_5ADFunINS0_6ad_augEEEEENS2_16jacobian_dense_tIN5Eigen3LLTINSA_6MatrixIdLin1ELin1ELi0ELin1ELin1EEELi1EEEEEEEE10input_sizeEv"
 "_ZN5TMBad6global8CompleteIN6newton14NewtonOperatorINS2_5sliceINS_5ADFunINS0_6ad_augEEEEENS2_16jacobian_dense_tIN5Eigen3LLTINSA_6MatrixIdLin1ELin1ELi0ELin1ELin1EEELi1EEEEEEEE10other_fuseEPNS0_12OperatorPureE"
 "_ZN5TMBad6global8CompleteIN6newton14NewtonOperatorINS2_5sliceINS_5ADFunINS0_6ad_augEEEEENS2_16jacobian_dense_tIN5Eigen3LLTINSA_6MatrixIdLin1ELin1ELi0ELin1ELin1EEELi1EEEEEEEE11output_sizeEv"
 "_ZN5TMBad6global8CompleteIN6newton14NewtonOperatorINS2_5sliceINS_5ADFunINS0_6ad_augEEEEENS2_16jacobian_dense_tIN5Eigen3LLTINSA_6MatrixIdLin1ELin1ELi0ELin1ELin1EEELi1EEEEEEEE12dependenciesERNS_4ArgsIvEERNS_12DependenciesE"
 "_ZN5TMBad6global8CompleteIN6newton14NewtonOperatorINS2_5sliceINS_5ADFunINS0_6ad_augEEEEENS2_16jacobian_dense_tIN5Eigen3LLTINSA_6MatrixIdLin1ELin1ELi0ELin1ELin1EEELi1EEEEEEEE12forward_incrERNS_11ForwardArgsIbEE"
 "_ZN5TMBad6global8CompleteIN6newton14NewtonOperatorINS2_5sliceINS_5ADFunINS0_6ad_augEEEEENS2_16jacobian_dense_tIN5Eigen3LLTINSA_6MatrixIdLin1ELin1ELi0ELin1ELin1EEELi1EEEEEEEE12forward_incrERNS_11ForwardArgsIdEE"
 "_ZN5TMBad6global8CompleteIN6newton14NewtonOperatorINS2_5sliceINS_5ADFunINS0_6ad_augEEEEENS2_16jacobian_dense_tIN5Eigen3LLTINSA_6MatrixIdLin1ELin1ELi0ELin1ELin1EEELi1EEEEEEEE12forward_incrERNS_11ForwardArgsINS_6WriterEEE"
 "_ZN5TMBad6global8CompleteIN6newton14NewtonOperatorINS2_5sliceINS_5ADFunINS0_6ad_augEEEEENS2_16jacobian_dense_tIN5Eigen3LLTINSA_6MatrixIdLin1ELin1ELi0ELin1ELin1EEELi1EEEEEEEE12forward_incrERNS_11ForwardArgsIS6_EE"
 "_ZN5TMBad6global8CompleteIN6newton14NewtonOperatorINS2_5sliceINS_5ADFunINS0_6ad_augEEEEENS2_16jacobian_dense_tIN5Eigen3LLTINSA_6MatrixIdLin1ELin1ELi0ELin1ELin1EEELi1EEEEEEEE12reverse_decrERNS_11ReverseArgsIbEE"
 "_ZN5TMBad6global8CompleteIN6newton14NewtonOperatorINS2_5sliceINS_5ADFunINS0_6ad_augEEEEENS2_16jacobian_dense_tIN5Eigen3LLTINSA_6MatrixIdLin1ELin1ELi0ELin1ELin1EEELi1EEEEEEEE12reverse_decrERNS_11ReverseArgsIdEE"
 "_ZN5TMBad6global8CompleteIN6newton14NewtonOperatorINS2_5sliceINS_5ADFunINS0_6ad_augEEEEENS2_16jacobian_dense_tIN5Eigen3LLTINSA_6MatrixIdLin1ELin1ELi0ELin1ELin1EEELi1EEEEEEEE12reverse_decrERNS_11ReverseArgsINS_6WriterEEE"
 "_ZN5TMBad6global8CompleteIN6newton14NewtonOperatorINS2_5sliceINS_5ADFunINS0_6ad_augEEEEENS2_16jacobian_dense_tIN5Eigen3LLTINSA_6MatrixIdLin1ELin1ELi0ELin1ELin1EEELi1EEEEEEEE12reverse_decrERNS_11ReverseArgsIS6_EE"
 "_ZN5TMBad6global8CompleteIN6newton14NewtonOperatorINS2_5sliceINS_5ADFunINS0_6ad_augEEEEENS2_16jacobian_dense_tIN5Eigen3LLTINSA_6MatrixIdLin1ELin1ELi0ELin1ELin1EEELi1EEEEEEEE13operator_dataEv"
 "_ZN5TMBad6global8CompleteIN6newton14NewtonOperatorINS2_5sliceINS_5ADFunINS0_6ad_augEEEEENS2_16jacobian_dense_tIN5Eigen3LLTINSA_6MatrixIdLin1ELin1ELi0ELin1ELin1EEELi1EEEEEEEE19forward_replay_copyERNS_11ForwardArgsIS6_EE"
 "_ZN5TMBad6global8CompleteIN6newton14NewtonOperatorINS2_5sliceINS_5ADFunINS0_6ad_augEEEEENS2_16jacobian_dense_tIN5Eigen3LLTINSA_6MatrixIdLin1ELin1ELi0ELin1ELin1EEELi1EEEEEEEE23forward_incr_mark_denseERNS_11ForwardArgsIbEE"
 "_ZN5TMBad6global8CompleteIN6newton14NewtonOperatorINS2_5sliceINS_5ADFunINS0_6ad_augEEEEENS2_16jacobian_dense_tIN5Eigen3LLTINSA_6MatrixIdLin1ELin1ELi0ELin1ELin1EEELi1EEEEEEEE4copyEv"
 "_ZN5TMBad6global8CompleteIN6newton14NewtonOperatorINS2_5sliceINS_5ADFunINS0_6ad_augEEEEENS2_16jacobian_dense_tIN5Eigen3LLTINSA_6MatrixIdLin1ELin1ELi0ELin1ELin1EEELi1EEEEEEEE4infoEv"
 "_ZN5TMBad6global8CompleteIN6newton14NewtonOperatorINS2_5sliceINS_5ADFunINS0_6ad_augEEEEENS2_16jacobian_dense_tIN5Eigen3LLTINSA_6MatrixIdLin1ELin1ELi0ELin1ELin1EEELi1EEEEEEEE5printENS0_12print_configE"
 "_ZN5TMBad6global8CompleteIN6newton14NewtonOperatorINS2_5sliceINS_5ADFunINS0_6ad_augEEEEENS2_16jacobian_dense_tIN5Eigen3LLTINSA_6MatrixIdLin1ELin1ELi0ELin1ELin1EEELi1EEEEEEEE7forwardERNS_11ForwardArgsIbEE"
 "_ZN5TMBad6global8CompleteIN6newton14NewtonOperatorINS2_5sliceINS_5ADFunINS0_6ad_augEEEEENS2_16jacobian_dense_tIN5Eigen3LLTINSA_6MatrixIdLin1ELin1ELi0ELin1ELin1EEELi1EEEEEEEE7forwardERNS_11ForwardArgsIdEE"
 "_ZN5TMBad6global8CompleteIN6newton14NewtonOperatorINS2_5sliceINS_5ADFunINS0_6ad_augEEEEENS2_16jacobian_dense_tIN5Eigen3LLTINSA_6MatrixIdLin1ELin1ELi0ELin1ELin1EEELi1EEEEEEEE7forwardERNS_11ForwardArgsINS_6WriterEEE"
 "_ZN5TMBad6global8CompleteIN6newton14NewtonOperatorINS2_5sliceINS_5ADFunINS0_6ad_augEEEEENS2_16jacobian_dense_tIN5Eigen3LLTINSA_6MatrixIdLin1ELin1ELi0ELin1ELin1EEELi1EEEEEEEE7forwardERNS_11ForwardArgsIS6_EE"
 "_ZN5TMBad6global8CompleteIN6newton14NewtonOperatorINS2_5sliceINS_5ADFunINS0_6ad_augEEEEENS2_16jacobian_dense_tIN5Eigen3LLTINSA_6MatrixIdLin1ELin1ELi0ELin1ELin1EEELi1EEEEEEEE7op_nameEv"
 "_ZN5TMBad6global8CompleteIN6newton14NewtonOperatorINS2_5sliceINS_5ADFunINS0_6ad_augEEEEENS2_16jacobian_dense_tIN5Eigen3LLTINSA_6MatrixIdLin1ELin1ELi0ELin1ELin1EEELi1EEEEEEEE7reverseERNS_11ReverseArgsIbEE"
 "_ZN5TMBad6global8CompleteIN6newton14NewtonOperatorINS2_5sliceINS_5ADFunINS0_6ad_augEEEEENS2_16jacobian_dense_tIN5Eigen3LLTINSA_6MatrixIdLin1ELin1ELi0ELin1ELin1EEELi1EEEEEEEE7reverseERNS_11ReverseArgsIdEE"
 "_ZN5TMBad6global8CompleteIN6newton14NewtonOperatorINS2_5sliceINS_5ADFunINS0_6ad_augEEEEENS2_16jacobian_dense_tIN5Eigen3LLTINSA_6MatrixIdLin1ELin1ELi0ELin1ELin1EEELi1EEEEEEEE7reverseERNS_11ReverseArgsINS_6WriterEEE"
 "_ZN5TMBad6global8CompleteIN6newton14NewtonOperatorINS2_5sliceINS_5ADFunINS0_6ad_augEEEEENS2_16jacobian_dense_tIN5Eigen3LLTINSA_6MatrixIdLin1ELin1ELi0ELin1ELin1EEELi1EEEEEEEE7reverseERNS_11ReverseArgsIS6_EE"
 "_ZN5TMBad6global8CompleteIN6newton14NewtonOperatorINS2_5sliceINS_5ADFunINS0_6ad_augEEEEENS2_16jacobian_dense_tIN5Eigen3LLTINSA_6MatrixIdLin1ELin1ELi0ELin1ELin1EEELi1EEEEEEEE9decrementERSt4pairIjjE"
 "_ZN5TMBad6global8CompleteIN6newton14NewtonOperatorINS2_5sliceINS_5ADFunINS0_6ad_augEEEEENS2_16jacobian_dense_tIN5Eigen3LLTINSA_6MatrixIdLin1ELin1ELi0ELin1ELin1EEELi1EEEEEEEE9incrementERSt4pairIjjE"
 "_ZN5TMBad6global8CompleteIN6newton14NewtonOperatorINS2_5sliceINS_5ADFunINS0_6ad_augEEEEENS2_16jacobian_dense_tIN5Eigen3LLTINSA_6MatrixIdLin1ELin1ELi0ELin1ELin1EEELi1EEEEEEEE9self_fuseEv"
 "_ZN5TMBad6global8CompleteIN6newton14NewtonOperatorINS2_5sliceINS_5ADFunINS0_6ad_augEEEEENS2_16jacobian_dense_tIN5Eigen3LLTINSA_6MatrixIdLin1ELin1ELi0ELin1ELin1EEELi1EEEEEEEED0Ev"
 "_ZN5TMBad6global8CompleteIN6newton14NewtonOperatorINS2_5sliceINS_5ADFunINS0_6ad_augEEEEENS2_16jacobian_dense_tIN5Eigen3LLTINSA_6MatrixIdLin1ELin1ELi0ELin1ELin1EEELi1EEEEEEEED1Ev"
 "_ZN5TMBad6global8CompleteIN6newton14NewtonOperatorINS2_5sliceINS_5ADFunINS0_6ad_augEEEEENS2_17jacobian_sparse_tIN5Eigen13SimplicialLLTINSA_12SparseMatrixIdLi0EiEELi1ENSA_11AMDOrderingIiEEEEEEEEE10deallocateEv"
 "_ZN5TMBad6global8CompleteIN6newton14NewtonOperatorINS2_5sliceINS_5ADFunINS0_6ad_augEEEEENS2_17jacobian_sparse_tIN5Eigen13SimplicialLLTINSA_12SparseMatrixIdLi0EiEELi1ENSA_11AMDOrderingIiEEEEEEEEE10identifierEv"
 "_ZN5TMBad6global8CompleteIN6newton14NewtonOperatorINS2_5sliceINS_5ADFunINS0_6ad_augEEEEENS2_17jacobian_sparse_tIN5Eigen13SimplicialLLTINSA_12SparseMatrixIdLi0EiEELi1ENSA_11AMDOrderingIiEEEEEEEEE10incompleteEv"
 "_ZN5TMBad6global8CompleteIN6newton14NewtonOperatorINS2_5sliceINS_5ADFunINS0_6ad_augEEEEENS2_17jacobian_sparse_tIN5Eigen13SimplicialLLTINSA_12SparseMatrixIdLi0EiEELi1ENSA_11AMDOrderingIiEEEEEEEEE10input_sizeEv"
 "_ZN5TMBad6global8CompleteIN6newton14NewtonOperatorINS2_5sliceINS_5ADFunINS0_6ad_augEEEEENS2_17jacobian_sparse_tIN5Eigen13SimplicialLLTINSA_12SparseMatrixIdLi0EiEELi1ENSA_11AMDOrderingIiEEEEEEEEE10other_fuseEPNS0_12OperatorPureE"
 "_ZN5TMBad6global8CompleteIN6newton14NewtonOperatorINS2_5sliceINS_5ADFunINS0_6ad_augEEEEENS2_17jacobian_sparse_tIN5Eigen13SimplicialLLTINSA_12SparseMatrixIdLi0EiEELi1ENSA_11AMDOrderingIiEEEEEEEEE11output_sizeEv"
 "_ZN5TMBad6global8CompleteIN6newton14NewtonOperatorINS2_5sliceINS_5ADFunINS0_6ad_augEEEEENS2_17jacobian_sparse_tIN5Eigen13SimplicialLLTINSA_12SparseMatrixIdLi0EiEELi1ENSA_11AMDOrderingIiEEEEEEEEE12dependenciesERNS_4ArgsIvEERNS_12DependenciesE"
 "_ZN5TMBad6global8CompleteIN6newton14NewtonOperatorINS2_5sliceINS_5ADFunINS0_6ad_augEEEEENS2_17jacobian_sparse_tIN5Eigen13SimplicialLLTINSA_12SparseMatrixIdLi0EiEELi1ENSA_11AMDOrderingIiEEEEEEEEE12forward_incrERNS_11ForwardArgsIbEE"
 "_ZN5TMBad6global8CompleteIN6newton14NewtonOperatorINS2_5sliceINS_5ADFunINS0_6ad_augEEEEENS2_17jacobian_sparse_tIN5Eigen13SimplicialLLTINSA_12SparseMatrixIdLi0EiEELi1ENSA_11AMDOrderingIiEEEEEEEEE12forward_incrERNS_11ForwardArgsIdEE"
 "_ZN5TMBad6global8CompleteIN6newton14NewtonOperatorINS2_5sliceINS_5ADFunINS0_6ad_augEEEEENS2_17jacobian_sparse_tIN5Eigen13SimplicialLLTINSA_12SparseMatrixIdLi0EiEELi1ENSA_11AMDOrderingIiEEEEEEEEE12forward_incrERNS_11ForwardArgsINS_6WriterEEE"
 "_ZN5TMBad6global8CompleteIN6newton14NewtonOperatorINS2_5sliceINS_5ADFunINS0_6ad_augEEEEENS2_17jacobian_sparse_tIN5Eigen13SimplicialLLTINSA_12SparseMatrixIdLi0EiEELi1ENSA_11AMDOrderingIiEEEEEEEEE12forward_incrERNS_11ForwardArgsIS6_EE"
 "_ZN5TMBad6global8CompleteIN6newton14NewtonOperatorINS2_5sliceINS_5ADFunINS0_6ad_augEEEEENS2_17jacobian_sparse_tIN5Eigen13SimplicialLLTINSA_12SparseMatrixIdLi0EiEELi1ENSA_11AMDOrderingIiEEEEEEEEE12reverse_decrERNS_11ReverseArgsIbEE"
 "_ZN5TMBad6global8CompleteIN6newton14NewtonOperatorINS2_5sliceINS_5ADFunINS0_6ad_augEEEEENS2_17jacobian_sparse_tIN5Eigen13SimplicialLLTINSA_12SparseMatrixIdLi0EiEELi1ENSA_11AMDOrderingIiEEEEEEEEE12reverse_decrERNS_11ReverseArgsIdEE"
 "_ZN5TMBad6global8CompleteIN6newton14NewtonOperatorINS2_5sliceINS_5ADFunINS0_6ad_augEEEEENS2_17jacobian_sparse_tIN5Eigen13SimplicialLLTINSA_12SparseMatrixIdLi0EiEELi1ENSA_11AMDOrderingIiEEEEEEEEE12reverse_decrERNS_11ReverseArgsINS_6WriterEEE"
 "_ZN5TMBad6global8CompleteIN6newton14NewtonOperatorINS2_5sliceINS_5ADFunINS0_6ad_augEEEEENS2_17jacobian_sparse_tIN5Eigen13SimplicialLLTINSA_12SparseMatrixIdLi0EiEELi1ENSA_11AMDOrderingIiEEEEEEEEE12reverse_decrERNS_11ReverseArgsIS6_EE"
 "_ZN5TMBad6global8CompleteIN6newton14NewtonOperatorINS2_5sliceINS_5ADFunINS0_6ad_augEEEEENS2_17jacobian_sparse_tIN5Eigen13SimplicialLLTINSA_12SparseMatrixIdLi0EiEELi1ENSA_11AMDOrderingIiEEEEEEEEE13operator_dataEv"
 "_ZN5TMBad6global8CompleteIN6newton14NewtonOperatorINS2_5sliceINS_5ADFunINS0_6ad_augEEEEENS2_17jacobian_sparse_tIN5Eigen13SimplicialLLTINSA_12SparseMatrixIdLi0EiEELi1ENSA_11AMDOrderingIiEEEEEEEEE19forward_replay_copyERNS_11ForwardArgsIS6_EE"
 "_ZN5TMBad6global8CompleteIN6newton14NewtonOperatorINS2_5sliceINS_5ADFunINS0_6ad_augEEEEENS2_17jacobian_sparse_tIN5Eigen13SimplicialLLTINSA_12SparseMatrixIdLi0EiEELi1ENSA_11AMDOrderingIiEEEEEEEEE23forward_incr_mark_denseERNS_11ForwardArgsIbEE"
 "_ZN5TMBad6global8CompleteIN6newton14NewtonOperatorINS2_5sliceINS_5ADFunINS0_6ad_augEEEEENS2_17jacobian_sparse_tIN5Eigen13SimplicialLLTINSA_12SparseMatrixIdLi0EiEELi1ENSA_11AMDOrderingIiEEEEEEEEE4copyEv"
 "_ZN5TMBad6global8CompleteIN6newton14NewtonOperatorINS2_5sliceINS_5ADFunINS0_6ad_augEEEEENS2_17jacobian_sparse_tIN5Eigen13SimplicialLLTINSA_12SparseMatrixIdLi0EiEELi1ENSA_11AMDOrderingIiEEEEEEEEE4infoEv"
 "_ZN5TMBad6global8CompleteIN6newton14NewtonOperatorINS2_5sliceINS_5ADFunINS0_6ad_augEEEEENS2_17jacobian_sparse_tIN5Eigen13SimplicialLLTINSA_12SparseMatrixIdLi0EiEELi1ENSA_11AMDOrderingIiEEEEEEEEE5printENS0_12print_configE"
 "_ZN5TMBad6global8CompleteIN6newton14NewtonOperatorINS2_5sliceINS_5ADFunINS0_6ad_augEEEEENS2_17jacobian_sparse_tIN5Eigen13SimplicialLLTINSA_12SparseMatrixIdLi0EiEELi1ENSA_11AMDOrderingIiEEEEEEEEE7forwardERNS_11ForwardArgsIbEE"
 "_ZN5TMBad6global8CompleteIN6newton14NewtonOperatorINS2_5sliceINS_5ADFunINS0_6ad_augEEEEENS2_17jacobian_sparse_tIN5Eigen13SimplicialLLTINSA_12SparseMatrixIdLi0EiEELi1ENSA_11AMDOrderingIiEEEEEEEEE7forwardERNS_11ForwardArgsIdEE"
 "_ZN5TMBad6global8CompleteIN6newton14NewtonOperatorINS2_5sliceINS_5ADFunINS0_6ad_augEEEEENS2_17jacobian_sparse_tIN5Eigen13SimplicialLLTINSA_12SparseMatrixIdLi0EiEELi1ENSA_11AMDOrderingIiEEEEEEEEE7forwardERNS_11ForwardArgsINS_6WriterEEE"
 "_ZN5TMBad6global8CompleteIN6newton14NewtonOperatorINS2_5sliceINS_5ADFunINS0_6ad_augEEEEENS2_17jacobian_sparse_tIN5Eigen13SimplicialLLTINSA_12SparseMatrixIdLi0EiEELi1ENSA_11AMDOrderingIiEEEEEEEEE7forwardERNS_11ForwardArgsIS6_EE"
 "_ZN5TMBad6global8CompleteIN6newton14NewtonOperatorINS2_5sliceINS_5ADFunINS0_6ad_augEEEEENS2_17jacobian_sparse_tIN5Eigen13SimplicialLLTINSA_12SparseMatrixIdLi0EiEELi1ENSA_11AMDOrderingIiEEEEEEEEE7op_nameEv"
 "_ZN5TMBad6global8CompleteIN6newton14NewtonOperatorINS2_5sliceINS_5ADFunINS0_6ad_augEEEEENS2_17jacobian_sparse_tIN5Eigen13SimplicialLLTINSA_12SparseMatrixIdLi0EiEELi1ENSA_11AMDOrderingIiEEEEEEEEE7reverseERNS_11ReverseArgsIbEE"
 "_ZN5TMBad6global8CompleteIN6newton14NewtonOperatorINS2_5sliceINS_5ADFunINS0_6ad_augEEEEENS2_17jacobian_sparse_tIN5Eigen13SimplicialLLTINSA_12SparseMatrixIdLi0EiEELi1ENSA_11AMDOrderingIiEEEEEEEEE7reverseERNS_11ReverseArgsIdEE"
 "_ZN5TMBad6global8CompleteIN6newton14NewtonOperatorINS2_5sliceINS_5ADFunINS0_6ad_augEEEEENS2_17jacobian_sparse_tIN5Eigen13SimplicialLLTINSA_12SparseMatrixIdLi0EiEELi1ENSA_11AMDOrderingIiEEEEEEEEE7reverseERNS_11ReverseArgsINS_6WriterEEE"
 "_ZN5TMBad6global8CompleteIN6newton14NewtonOperatorINS2_5sliceINS_5ADFunINS0_6ad_augEEEEENS2_17jacobian_sparse_tIN5Eigen13SimplicialLLTINSA_12SparseMatrixIdLi0EiEELi1ENSA_11AMDOrderingIiEEEEEEEEE7reverseERNS_11ReverseArgsIS6_EE"
 "_ZN5TMBad6global8CompleteIN6newton14NewtonOperatorINS2_5sliceINS_5ADFunINS0_6ad_augEEEEENS2_17jacobian_sparse_tIN5Eigen13SimplicialLLTINSA_12SparseMatrixIdLi0EiEELi1ENSA_11AMDOrderingIiEEEEEEEEE9decrementERSt4pairIjjE"
 "_ZN5TMBad6global8CompleteIN6newton14NewtonOperatorINS2_5sliceINS_5ADFunINS0_6ad_augEEEEENS2_17jacobian_sparse_tIN5Eigen13SimplicialLLTINSA_12SparseMatrixIdLi0EiEELi1ENSA_11AMDOrderingIiEEEEEEEEE9incrementERSt4pairIjjE"
 "_ZN5TMBad6global8CompleteIN6newton14NewtonOperatorINS2_5sliceINS_5ADFunINS0_6ad_augEEEEENS2_17jacobian_sparse_tIN5Eigen13SimplicialLLTINSA_12SparseMatrixIdLi0EiEELi1ENSA_11AMDOrderingIiEEEEEEEEE9self_fuseEv"
 "_ZN5TMBad6global8CompleteIN6newton14NewtonOperatorINS2_5sliceINS_5ADFunINS0_6ad_augEEEEENS2_17jacobian_sparse_tIN5Eigen13SimplicialLLTINSA_12SparseMatrixIdLi0EiEELi1ENSA_11AMDOrderingIiEEEEEEEEED0Ev"
 "_ZN5TMBad6global8CompleteIN6newton14NewtonOperatorINS2_5sliceINS_5ADFunINS0_6ad_augEEEEENS2_17jacobian_sparse_tIN5Eigen13SimplicialLLTINSA_12SparseMatrixIdLi0EiEELi1ENSA_11AMDOrderingIiEEEEEEEEED1Ev"
 "_ZN5TMBad6global8CompleteIN6newton14NewtonOperatorINS2_5sliceINS_5ADFunINS0_6ad_augEEEEENS2_30jacobian_sparse_plus_lowrank_tIvEEEEE10deallocateEv"
 "_ZN5TMBad6global8CompleteIN6newton14NewtonOperatorINS2_5sliceINS_5ADFunINS0_6ad_augEEEEENS2_30jacobian_sparse_plus_lowrank_tIvEEEEE10identifierEv"
 "_ZN5TMBad6global8CompleteIN6newton14NewtonOperatorINS2_5sliceINS_5ADFunINS0_6ad_augEEEEENS2_30jacobian_sparse_plus_lowrank_tIvEEEEE10incompleteEv"
 "_ZN5TMBad6global8CompleteIN6newton14NewtonOperatorINS2_5sliceINS_5ADFunINS0_6ad_augEEEEENS2_30jacobian_sparse_plus_lowrank_tIvEEEEE10input_sizeEv"
 "_ZN5TMBad6global8CompleteIN6newton14NewtonOperatorINS2_5sliceINS_5ADFunINS0_6ad_augEEEEENS2_30jacobian_sparse_plus_lowrank_tIvEEEEE10other_fuseEPNS0_12OperatorPureE"
 "_ZN5TMBad6global8CompleteIN6newton14NewtonOperatorINS2_5sliceINS_5ADFunINS0_6ad_augEEEEENS2_30jacobian_sparse_plus_lowrank_tIvEEEEE11output_sizeEv"
 "_ZN5TMBad6global8CompleteIN6newton14NewtonOperatorINS2_5sliceINS_5ADFunINS0_6ad_augEEEEENS2_30jacobian_sparse_plus_lowrank_tIvEEEEE12dependenciesERNS_4ArgsIvEERNS_12DependenciesE"
 "_ZN5TMBad6global8CompleteIN6newton14NewtonOperatorINS2_5sliceINS_5ADFunINS0_6ad_augEEEEENS2_30jacobian_sparse_plus_lowrank_tIvEEEEE12forward_incrERNS_11ForwardArgsIbEE"
 "_ZN5TMBad6global8CompleteIN6newton14NewtonOperatorINS2_5sliceINS_5ADFunINS0_6ad_augEEEEENS2_30jacobian_sparse_plus_lowrank_tIvEEEEE12forward_incrERNS_11ForwardArgsIdEE"
 "_ZN5TMBad6global8CompleteIN6newton14NewtonOperatorINS2_5sliceINS_5ADFunINS0_6ad_augEEEEENS2_30jacobian_sparse_plus_lowrank_tIvEEEEE12forward_incrERNS_11ForwardArgsINS_6WriterEEE"
 "_ZN5TMBad6global8CompleteIN6newton14NewtonOperatorINS2_5sliceINS_5ADFunINS0_6ad_augEEEEENS2_30jacobian_sparse_plus_lowrank_tIvEEEEE12forward_incrERNS_11ForwardArgsIS6_EE"
 "_ZN5TMBad6global8CompleteIN6newton14NewtonOperatorINS2_5sliceINS_5ADFunINS0_6ad_augEEEEENS2_30jacobian_sparse_plus_lowrank_tIvEEEEE12reverse_decrERNS_11ReverseArgsIbEE"
 "_ZN5TMBad6global8CompleteIN6newton14NewtonOperatorINS2_5sliceINS_5ADFunINS0_6ad_augEEEEENS2_30jacobian_sparse_plus_lowrank_tIvEEEEE12reverse_decrERNS_11ReverseArgsIdEE"
 "_ZN5TMBad6global8CompleteIN6newton14NewtonOperatorINS2_5sliceINS_5ADFunINS0_6ad_augEEEEENS2_30jacobian_sparse_plus_lowrank_tIvEEEEE12reverse_decrERNS_11ReverseArgsINS_6WriterEEE"
 "_ZN5TMBad6global8CompleteIN6newton14NewtonOperatorINS2_5sliceINS_5ADFunINS0_6ad_augEEEEENS2_30jacobian_sparse_plus_lowrank_tIvEEEEE12reverse_decrERNS_11ReverseArgsIS6_EE"
 "_ZN5TMBad6global8CompleteIN6newton14NewtonOperatorINS2_5sliceINS_5ADFunINS0_6ad_augEEEEENS2_30jacobian_sparse_plus_lowrank_tIvEEEEE13operator_dataEv"
 "_ZN5TMBad6global8CompleteIN6newton14NewtonOperatorINS2_5sliceINS_5ADFunINS0_6ad_augEEEEENS2_30jacobian_sparse_plus_lowrank_tIvEEEEE19forward_replay_copyERNS_11ForwardArgsIS6_EE"
 "_ZN5TMBad6global8CompleteIN6newton14NewtonOperatorINS2_5sliceINS_5ADFunINS0_6ad_augEEEEENS2_30jacobian_sparse_plus_lowrank_tIvEEEEE23forward_incr_mark_denseERNS_11ForwardArgsIbEE"
 "_ZN5TMBad6global8CompleteIN6newton14NewtonOperatorINS2_5sliceINS_5ADFunINS0_6ad_augEEEEENS2_30jacobian_sparse_plus_lowrank_tIvEEEEE4copyEv"
 "_ZN5TMBad6global8CompleteIN6newton14NewtonOperatorINS2_5sliceINS_5ADFunINS0_6ad_augEEEEENS2_30jacobian_sparse_plus_lowrank_tIvEEEEE4infoEv"
 "_ZN5TMBad6global8CompleteIN6newton14NewtonOperatorINS2_5sliceINS_5ADFunINS0_6ad_augEEEEENS2_30jacobian_sparse_plus_lowrank_tIvEEEEE5printENS0_12print_configE"
 "_ZN5TMBad6global8CompleteIN6newton14NewtonOperatorINS2_5sliceINS_5ADFunINS0_6ad_augEEEEENS2_30jacobian_sparse_plus_lowrank_tIvEEEEE7forwardERNS_11ForwardArgsIbEE"
 "_ZN5TMBad6global8CompleteIN6newton14NewtonOperatorINS2_5sliceINS_5ADFunINS0_6ad_augEEEEENS2_30jacobian_sparse_plus_lowrank_tIvEEEEE7forwardERNS_11ForwardArgsIdEE"
 "_ZN5TMBad6global8CompleteIN6newton14NewtonOperatorINS2_5sliceINS_5ADFunINS0_6ad_augEEEEENS2_30jacobian_sparse_plus_lowrank_tIvEEEEE7forwardERNS_11ForwardArgsINS_6WriterEEE"
 "_ZN5TMBad6global8CompleteIN6newton14NewtonOperatorINS2_5sliceINS_5ADFunINS0_6ad_augEEEEENS2_30jacobian_sparse_plus_lowrank_tIvEEEEE7forwardERNS_11ForwardArgsIS6_EE"
 "_ZN5TMBad6global8CompleteIN6newton14NewtonOperatorINS2_5sliceINS_5ADFunINS0_6ad_augEEEEENS2_30jacobian_sparse_plus_lowrank_tIvEEEEE7op_nameEv"
 "_ZN5TMBad6global8CompleteIN6newton14NewtonOperatorINS2_5sliceINS_5ADFunINS0_6ad_augEEEEENS2_30jacobian_sparse_plus_lowrank_tIvEEEEE7reverseERNS_11ReverseArgsIbEE"
 "_ZN5TMBad6global8CompleteIN6newton14NewtonOperatorINS2_5sliceINS_5ADFunINS0_6ad_augEEEEENS2_30jacobian_sparse_plus_lowrank_tIvEEEEE7reverseERNS_11ReverseArgsIdEE"
 "_ZN5TMBad6global8CompleteIN6newton14NewtonOperatorINS2_5sliceINS_5ADFunINS0_6ad_augEEEEENS2_30jacobian_sparse_plus_lowrank_tIvEEEEE7reverseERNS_11ReverseArgsINS_6WriterEEE"
 "_ZN5TMBad6global8CompleteIN6newton14NewtonOperatorINS2_5sliceINS_5ADFunINS0_6ad_augEEEEENS2_30jacobian_sparse_plus_lowrank_tIvEEEEE7reverseERNS_11ReverseArgsIS6_EE"
 "_ZN5TMBad6global8CompleteIN6newton14NewtonOperatorINS2_5sliceINS_5ADFunINS0_6ad_augEEEEENS2_30jacobian_sparse_plus_lowrank_tIvEEEEE9decrementERSt4pairIjjE"
 "_ZN5TMBad6global8CompleteIN6newton14NewtonOperatorINS2_5sliceINS_5ADFunINS0_6ad_augEEEEENS2_30jacobian_sparse_plus_lowrank_tIvEEEEE9incrementERSt4pairIjjE"
 "_ZN5TMBad6global8CompleteIN6newton14NewtonOperatorINS2_5sliceINS_5ADFunINS0_6ad_augEEEEENS2_30jacobian_sparse_plus_lowrank_tIvEEEEE9self_fuseEv"
 "_ZN5TMBad6global8CompleteIN6newton14NewtonOperatorINS2_5sliceINS_5ADFunINS0_6ad_augEEEEENS2_30jacobian_sparse_plus_lowrank_tIvEEEEED0Ev"
 "_ZN5TMBad6global8CompleteIN6newton14NewtonOperatorINS2_5sliceINS_5ADFunINS0_6ad_augEEEEENS2_30jacobian_sparse_plus_lowrank_tIvEEEEED1Ev"
 "_ZN5TMBad6global8CompleteIN6newton18HessianSolveVectorINS2_16jacobian_dense_tIN5Eigen3LLTINS5_6MatrixIdLin1ELin1ELi0ELin1ELin1EEELi1EEEEEEEE10deallocateEv"
 "_ZN5TMBad6global8CompleteIN6newton18HessianSolveVectorINS2_16jacobian_dense_tIN5Eigen3LLTINS5_6MatrixIdLin1ELin1ELi0ELin1ELin1EEELi1EEEEEEEE10identifierEv"
 "_ZN5TMBad6global8CompleteIN6newton18HessianSolveVectorINS2_16jacobian_dense_tIN5Eigen3LLTINS5_6MatrixIdLin1ELin1ELi0ELin1ELin1EEELi1EEEEEEEE10incompleteEv"
 "_ZN5TMBad6global8CompleteIN6newton18HessianSolveVectorINS2_16jacobian_dense_tIN5Eigen3LLTINS5_6MatrixIdLin1ELin1ELi0ELin1ELin1EEELi1EEEEEEEE10input_sizeEv"
 "_ZN5TMBad6global8CompleteIN6newton18HessianSolveVectorINS2_16jacobian_dense_tIN5Eigen3LLTINS5_6MatrixIdLin1ELin1ELi0ELin1ELin1EEELi1EEEEEEEE10other_fuseEPNS0_12OperatorPureE"
 "_ZN5TMBad6global8CompleteIN6newton18HessianSolveVectorINS2_16jacobian_dense_tIN5Eigen3LLTINS5_6MatrixIdLin1ELin1ELi0ELin1ELin1EEELi1EEEEEEEE11output_sizeEv"
 "_ZN5TMBad6global8CompleteIN6newton18HessianSolveVectorINS2_16jacobian_dense_tIN5Eigen3LLTINS5_6MatrixIdLin1ELin1ELi0ELin1ELin1EEELi1EEEEEEEE12dependenciesERNS_4ArgsIvEERNS_12DependenciesE"
 "_ZN5TMBad6global8CompleteIN6newton18HessianSolveVectorINS2_16jacobian_dense_tIN5Eigen3LLTINS5_6MatrixIdLin1ELin1ELi0ELin1ELin1EEELi1EEEEEEEE12forward_incrERNS_11ForwardArgsIbEE"
 "_ZN5TMBad6global8CompleteIN6newton18HessianSolveVectorINS2_16jacobian_dense_tIN5Eigen3LLTINS5_6MatrixIdLin1ELin1ELi0ELin1ELin1EEELi1EEEEEEEE12forward_incrERNS_11ForwardArgsIdEE"
 "_ZN5TMBad6global8CompleteIN6newton18HessianSolveVectorINS2_16jacobian_dense_tIN5Eigen3LLTINS5_6MatrixIdLin1ELin1ELi0ELin1ELin1EEELi1EEEEEEEE12forward_incrERNS_11ForwardArgsINS_6WriterEEE"
 "_ZN5TMBad6global8CompleteIN6newton18HessianSolveVectorINS2_16jacobian_dense_tIN5Eigen3LLTINS5_6MatrixIdLin1ELin1ELi0ELin1ELin1EEELi1EEEEEEEE12forward_incrERNS_11ForwardArgsINS0_6ad_augEEE"
 "_ZN5TMBad6global8CompleteIN6newton18HessianSolveVectorINS2_16jacobian_dense_tIN5Eigen3LLTINS5_6MatrixIdLin1ELin1ELi0ELin1ELin1EEELi1EEEEEEEE12reverse_decrERNS_11ReverseArgsIbEE"
 "_ZN5TMBad6global8CompleteIN6newton18HessianSolveVectorINS2_16jacobian_dense_tIN5Eigen3LLTINS5_6MatrixIdLin1ELin1ELi0ELin1ELin1EEELi1EEEEEEEE12reverse_decrERNS_11ReverseArgsIdEE"
 "_ZN5TMBad6global8CompleteIN6newton18HessianSolveVectorINS2_16jacobian_dense_tIN5Eigen3LLTINS5_6MatrixIdLin1ELin1ELi0ELin1ELin1EEELi1EEEEEEEE12reverse_decrERNS_11ReverseArgsINS_6WriterEEE"
 "_ZN5TMBad6global8CompleteIN6newton18HessianSolveVectorINS2_16jacobian_dense_tIN5Eigen3LLTINS5_6MatrixIdLin1ELin1ELi0ELin1ELin1EEELi1EEEEEEEE12reverse_decrERNS_11ReverseArgsINS0_6ad_augEEE"
 "_ZN5TMBad6global8CompleteIN6newton18HessianSolveVectorINS2_16jacobian_dense_tIN5Eigen3LLTINS5_6MatrixIdLin1ELin1ELi0ELin1ELin1EEELi1EEEEEEEE13operator_dataEv"
 "_ZN5TMBad6global8CompleteIN6newton18HessianSolveVectorINS2_16jacobian_dense_tIN5Eigen3LLTINS5_6MatrixIdLin1ELin1ELi0ELin1ELin1EEELi1EEEEEEEE19forward_replay_copyERNS_11ForwardArgsINS0_6ad_augEEE"
 "_ZN5TMBad6global8CompleteIN6newton18HessianSolveVectorINS2_16jacobian_dense_tIN5Eigen3LLTINS5_6MatrixIdLin1ELin1ELi0ELin1ELin1EEELi1EEEEEEEE23forward_incr_mark_denseERNS_11ForwardArgsIbEE"
 "_ZN5TMBad6global8CompleteIN6newton18HessianSolveVectorINS2_16jacobian_dense_tIN5Eigen3LLTINS5_6MatrixIdLin1ELin1ELi0ELin1ELin1EEELi1EEEEEEEE4copyEv"
 "_ZN5TMBad6global8CompleteIN6newton18HessianSolveVectorINS2_16jacobian_dense_tIN5Eigen3LLTINS5_6MatrixIdLin1ELin1ELi0ELin1ELin1EEELi1EEEEEEEE4infoEv"
 "_ZN5TMBad6global8CompleteIN6newton18HessianSolveVectorINS2_16jacobian_dense_tIN5Eigen3LLTINS5_6MatrixIdLin1ELin1ELi0ELin1ELin1EEELi1EEEEEEEE5printENS0_12print_configE"
 "_ZN5TMBad6global8CompleteIN6newton18HessianSolveVectorINS2_16jacobian_dense_tIN5Eigen3LLTINS5_6MatrixIdLin1ELin1ELi0ELin1ELin1EEELi1EEEEEEEE7forwardERNS_11ForwardArgsIbEE"
 "_ZN5TMBad6global8CompleteIN6newton18HessianSolveVectorINS2_16jacobian_dense_tIN5Eigen3LLTINS5_6MatrixIdLin1ELin1ELi0ELin1ELin1EEELi1EEEEEEEE7forwardERNS_11ForwardArgsIdEE"
 "_ZN5TMBad6global8CompleteIN6newton18HessianSolveVectorINS2_16jacobian_dense_tIN5Eigen3LLTINS5_6MatrixIdLin1ELin1ELi0ELin1ELin1EEELi1EEEEEEEE7forwardERNS_11ForwardArgsINS_6WriterEEE"
 "_ZN5TMBad6global8CompleteIN6newton18HessianSolveVectorINS2_16jacobian_dense_tIN5Eigen3LLTINS5_6MatrixIdLin1ELin1ELi0ELin1ELin1EEELi1EEEEEEEE7forwardERNS_11ForwardArgsINS0_6ad_augEEE"
 "_ZN5TMBad6global8CompleteIN6newton18HessianSolveVectorINS2_16jacobian_dense_tIN5Eigen3LLTINS5_6MatrixIdLin1ELin1ELi0ELin1ELin1EEELi1EEEEEEEE7op_nameEv"
 "_ZN5TMBad6global8CompleteIN6newton18HessianSolveVectorINS2_16jacobian_dense_tIN5Eigen3LLTINS5_6MatrixIdLin1ELin1ELi0ELin1ELin1EEELi1EEEEEEEE7reverseERNS_11ReverseArgsIbEE"
 "_ZN5TMBad6global8CompleteIN6newton18HessianSolveVectorINS2_16jacobian_dense_tIN5Eigen3LLTINS5_6MatrixIdLin1ELin1ELi0ELin1ELin1EEELi1EEEEEEEE7reverseERNS_11ReverseArgsIdEE"
 "_ZN5TMBad6global8CompleteIN6newton18HessianSolveVectorINS2_16jacobian_dense_tIN5Eigen3LLTINS5_6MatrixIdLin1ELin1ELi0ELin1ELin1EEELi1EEEEEEEE7reverseERNS_11ReverseArgsINS_6WriterEEE"
 "_ZN5TMBad6global8CompleteIN6newton18HessianSolveVectorINS2_16jacobian_dense_tIN5Eigen3LLTINS5_6MatrixIdLin1ELin1ELi0ELin1ELin1EEELi1EEEEEEEE7reverseERNS_11ReverseArgsINS0_6ad_augEEE"
 "_ZN5TMBad6global8CompleteIN6newton18HessianSolveVectorINS2_16jacobian_dense_tIN5Eigen3LLTINS5_6MatrixIdLin1ELin1ELi0ELin1ELin1EEELi1EEEEEEEE9decrementERSt4pairIjjE"
 "_ZN5TMBad6global8CompleteIN6newton18HessianSolveVectorINS2_16jacobian_dense_tIN5Eigen3LLTINS5_6MatrixIdLin1ELin1ELi0ELin1ELin1EEELi1EEEEEEEE9incrementERSt4pairIjjE"
 "_ZN5TMBad6global8CompleteIN6newton18HessianSolveVectorINS2_16jacobian_dense_tIN5Eigen3LLTINS5_6MatrixIdLin1ELin1ELi0ELin1ELin1EEELi1EEEEEEEE9self_fuseEv"
 "_ZN5TMBad6global8CompleteIN6newton18HessianSolveVectorINS2_16jacobian_dense_tIN5Eigen3LLTINS5_6MatrixIdLin1ELin1ELi0ELin1ELin1EEELi1EEEEEEEED0Ev"
 "_ZN5TMBad6global8CompleteIN6newton18HessianSolveVectorINS2_16jacobian_dense_tIN5Eigen3LLTINS5_6MatrixIdLin1ELin1ELi0ELin1ELin1EEELi1EEEEEEEED1Ev"
 "_ZN5TMBad6global8CompleteIN6newton18HessianSolveVectorINS2_17jacobian_sparse_tIN5Eigen13SimplicialLLTINS5_12SparseMatrixIdLi0EiEELi1ENS5_11AMDOrderingIiEEEEEEEEE10deallocateEv"
 "_ZN5TMBad6global8CompleteIN6newton18HessianSolveVectorINS2_17jacobian_sparse_tIN5Eigen13SimplicialLLTINS5_12SparseMatrixIdLi0EiEELi1ENS5_11AMDOrderingIiEEEEEEEEE10identifierEv"
 "_ZN5TMBad6global8CompleteIN6newton18HessianSolveVectorINS2_17jacobian_sparse_tIN5Eigen13SimplicialLLTINS5_12SparseMatrixIdLi0EiEELi1ENS5_11AMDOrderingIiEEEEEEEEE10incompleteEv"
 "_ZN5TMBad6global8CompleteIN6newton18HessianSolveVectorINS2_17jacobian_sparse_tIN5Eigen13SimplicialLLTINS5_12SparseMatrixIdLi0EiEELi1ENS5_11AMDOrderingIiEEEEEEEEE10input_sizeEv"
 "_ZN5TMBad6global8CompleteIN6newton18HessianSolveVectorINS2_17jacobian_sparse_tIN5Eigen13SimplicialLLTINS5_12SparseMatrixIdLi0EiEELi1ENS5_11AMDOrderingIiEEEEEEEEE10other_fuseEPNS0_12OperatorPureE"
 "_ZN5TMBad6global8CompleteIN6newton18HessianSolveVectorINS2_17jacobian_sparse_tIN5Eigen13SimplicialLLTINS5_12SparseMatrixIdLi0EiEELi1ENS5_11AMDOrderingIiEEEEEEEEE11output_sizeEv"
 "_ZN5TMBad6global8CompleteIN6newton18HessianSolveVectorINS2_17jacobian_sparse_tIN5Eigen13SimplicialLLTINS5_12SparseMatrixIdLi0EiEELi1ENS5_11AMDOrderingIiEEEEEEEEE12dependenciesERNS_4ArgsIvEERNS_12DependenciesE"
 "_ZN5TMBad6global8CompleteIN6newton18HessianSolveVectorINS2_17jacobian_sparse_tIN5Eigen13SimplicialLLTINS5_12SparseMatrixIdLi0EiEELi1ENS5_11AMDOrderingIiEEEEEEEEE12forward_incrERNS_11ForwardArgsIbEE"
 "_ZN5TMBad6global8CompleteIN6newton18HessianSolveVectorINS2_17jacobian_sparse_tIN5Eigen13SimplicialLLTINS5_12SparseMatrixIdLi0EiEELi1ENS5_11AMDOrderingIiEEEEEEEEE12forward_incrERNS_11ForwardArgsIdEE"
 "_ZN5TMBad6global8CompleteIN6newton18HessianSolveVectorINS2_17jacobian_sparse_tIN5Eigen13SimplicialLLTINS5_12SparseMatrixIdLi0EiEELi1ENS5_11AMDOrderingIiEEEEEEEEE12forward_incrERNS_11ForwardArgsINS_6WriterEEE"
 "_ZN5TMBad6global8CompleteIN6newton18HessianSolveVectorINS2_17jacobian_sparse_tIN5Eigen13SimplicialLLTINS5_12SparseMatrixIdLi0EiEELi1ENS5_11AMDOrderingIiEEEEEEEEE12forward_incrERNS_11ForwardArgsINS0_6ad_augEEE"
 "_ZN5TMBad6global8CompleteIN6newton18HessianSolveVectorINS2_17jacobian_sparse_tIN5Eigen13SimplicialLLTINS5_12SparseMatrixIdLi0EiEELi1ENS5_11AMDOrderingIiEEEEEEEEE12reverse_decrERNS_11ReverseArgsIbEE"
 "_ZN5TMBad6global8CompleteIN6newton18HessianSolveVectorINS2_17jacobian_sparse_tIN5Eigen13SimplicialLLTINS5_12SparseMatrixIdLi0EiEELi1ENS5_11AMDOrderingIiEEEEEEEEE12reverse_decrERNS_11ReverseArgsIdEE"
 "_ZN5TMBad6global8CompleteIN6newton18HessianSolveVectorINS2_17jacobian_sparse_tIN5Eigen13SimplicialLLTINS5_12SparseMatrixIdLi0EiEELi1ENS5_11AMDOrderingIiEEEEEEEEE12reverse_decrERNS_11ReverseArgsINS_6WriterEEE"
 "_ZN5TMBad6global8CompleteIN6newton18HessianSolveVectorINS2_17jacobian_sparse_tIN5Eigen13SimplicialLLTINS5_12SparseMatrixIdLi0EiEELi1ENS5_11AMDOrderingIiEEEEEEEEE12reverse_decrERNS_11ReverseArgsINS0_6ad_augEEE"
 "_ZN5TMBad6global8CompleteIN6newton18HessianSolveVectorINS2_17jacobian_sparse_tIN5Eigen13SimplicialLLTINS5_12SparseMatrixIdLi0EiEELi1ENS5_11AMDOrderingIiEEEEEEEEE13operator_dataEv"
 "_ZN5TMBad6global8CompleteIN6newton18HessianSolveVectorINS2_17jacobian_sparse_tIN5Eigen13SimplicialLLTINS5_12SparseMatrixIdLi0EiEELi1ENS5_11AMDOrderingIiEEEEEEEEE19forward_replay_copyERNS_11ForwardArgsINS0_6ad_augEEE"
 "_ZN5TMBad6global8CompleteIN6newton18HessianSolveVectorINS2_17jacobian_sparse_tIN5Eigen13SimplicialLLTINS5_12SparseMatrixIdLi0EiEELi1ENS5_11AMDOrderingIiEEEEEEEEE23forward_incr_mark_denseERNS_11ForwardArgsIbEE"
 "_ZN5TMBad6global8CompleteIN6newton18HessianSolveVectorINS2_17jacobian_sparse_tIN5Eigen13SimplicialLLTINS5_12SparseMatrixIdLi0EiEELi1ENS5_11AMDOrderingIiEEEEEEEEE4copyEv"
 "_ZN5TMBad6global8CompleteIN6newton18HessianSolveVectorINS2_17jacobian_sparse_tIN5Eigen13SimplicialLLTINS5_12SparseMatrixIdLi0EiEELi1ENS5_11AMDOrderingIiEEEEEEEEE4infoEv"
 "_ZN5TMBad6global8CompleteIN6newton18HessianSolveVectorINS2_17jacobian_sparse_tIN5Eigen13SimplicialLLTINS5_12SparseMatrixIdLi0EiEELi1ENS5_11AMDOrderingIiEEEEEEEEE5printENS0_12print_configE"
 "_ZN5TMBad6global8CompleteIN6newton18HessianSolveVectorINS2_17jacobian_sparse_tIN5Eigen13SimplicialLLTINS5_12SparseMatrixIdLi0EiEELi1ENS5_11AMDOrderingIiEEEEEEEEE7forwardERNS_11ForwardArgsIbEE"
 "_ZN5TMBad6global8CompleteIN6newton18HessianSolveVectorINS2_17jacobian_sparse_tIN5Eigen13SimplicialLLTINS5_12SparseMatrixIdLi0EiEELi1ENS5_11AMDOrderingIiEEEEEEEEE7forwardERNS_11ForwardArgsIdEE"
 "_ZN5TMBad6global8CompleteIN6newton18HessianSolveVectorINS2_17jacobian_sparse_tIN5Eigen13SimplicialLLTINS5_12SparseMatrixIdLi0EiEELi1ENS5_11AMDOrderingIiEEEEEEEEE7forwardERNS_11ForwardArgsINS_6WriterEEE"
 "_ZN5TMBad6global8CompleteIN6newton18HessianSolveVectorINS2_17jacobian_sparse_tIN5Eigen13SimplicialLLTINS5_12SparseMatrixIdLi0EiEELi1ENS5_11AMDOrderingIiEEEEEEEEE7forwardERNS_11ForwardArgsINS0_6ad_augEEE"
 "_ZN5TMBad6global8CompleteIN6newton18HessianSolveVectorINS2_17jacobian_sparse_tIN5Eigen13SimplicialLLTINS5_12SparseMatrixIdLi0EiEELi1ENS5_11AMDOrderingIiEEEEEEEEE7op_nameEv"
 "_ZN5TMBad6global8CompleteIN6newton18HessianSolveVectorINS2_17jacobian_sparse_tIN5Eigen13SimplicialLLTINS5_12SparseMatrixIdLi0EiEELi1ENS5_11AMDOrderingIiEEEEEEEEE7reverseERNS_11ReverseArgsIbEE"
 "_ZN5TMBad6global8CompleteIN6newton18HessianSolveVectorINS2_17jacobian_sparse_tIN5Eigen13SimplicialLLTINS5_12SparseMatrixIdLi0EiEELi1ENS5_11AMDOrderingIiEEEEEEEEE7reverseERNS_11ReverseArgsIdEE"
 "_ZN5TMBad6global8CompleteIN6newton18HessianSolveVectorINS2_17jacobian_sparse_tIN5Eigen13SimplicialLLTINS5_12SparseMatrixIdLi0EiEELi1ENS5_11AMDOrderingIiEEEEEEEEE7reverseERNS_11ReverseArgsINS_6WriterEEE"
 "_ZN5TMBad6global8CompleteIN6newton18HessianSolveVectorINS2_17jacobian_sparse_tIN5Eigen13SimplicialLLTINS5_12SparseMatrixIdLi0EiEELi1ENS5_11AMDOrderingIiEEEEEEEEE7reverseERNS_11ReverseArgsINS0_6ad_augEEE"
 "_ZN5TMBad6global8CompleteIN6newton18HessianSolveVectorINS2_17jacobian_sparse_tIN5Eigen13SimplicialLLTINS5_12SparseMatrixIdLi0EiEELi1ENS5_11AMDOrderingIiEEEEEEEEE9decrementERSt4pairIjjE"
 "_ZN5TMBad6global8CompleteIN6newton18HessianSolveVectorINS2_17jacobian_sparse_tIN5Eigen13SimplicialLLTINS5_12SparseMatrixIdLi0EiEELi1ENS5_11AMDOrderingIiEEEEEEEEE9incrementERSt4pairIjjE"
 "_ZN5TMBad6global8CompleteIN6newton18HessianSolveVectorINS2_17jacobian_sparse_tIN5Eigen13SimplicialLLTINS5_12SparseMatrixIdLi0EiEELi1ENS5_11AMDOrderingIiEEEEEEEEE9self_fuseEv"
 "_ZN5TMBad6global8CompleteIN6newton18HessianSolveVectorINS2_17jacobian_sparse_tIN5Eigen13SimplicialLLTINS5_12SparseMatrixIdLi0EiEELi1ENS5_11AMDOrderingIiEEEEEEEEED0Ev"
 "_ZN5TMBad6global8CompleteIN6newton18HessianSolveVectorINS2_17jacobian_sparse_tIN5Eigen13SimplicialLLTINS5_12SparseMatrixIdLi0EiEELi1ENS5_11AMDOrderingIiEEEEEEEEED1Ev"
 "_ZN5TMBad6global8CompleteIN6newton5TagOpIvEEE10deallocateEv"
 "_ZN5TMBad6global8CompleteIN6newton5TagOpIvEEE10identifierEv"
 "_ZN5TMBad6global8CompleteIN6newton5TagOpIvEEE10incompleteEv"
 "_ZN5TMBad6global8CompleteIN6newton5TagOpIvEEE10input_sizeEv"
 "_ZN5TMBad6global8CompleteIN6newton5TagOpIvEEE10other_fuseEPNS0_12OperatorPureE"
 "_ZN5TMBad6global8CompleteIN6newton5TagOpIvEEE11output_sizeEv"
 "_ZN5TMBad6global8CompleteIN6newton5TagOpIvEEE12dependenciesERNS_4ArgsIvEERNS_12DependenciesE"
 "_ZN5TMBad6global8CompleteIN6newton5TagOpIvEEE12forward_incrERNS_11ForwardArgsIbEE"
 "_ZN5TMBad6global8CompleteIN6newton5TagOpIvEEE12forward_incrERNS_11ForwardArgsIdEE"
 "_ZN5TMBad6global8CompleteIN6newton5TagOpIvEEE12forward_incrERNS_11ForwardArgsINS_6WriterEEE"
 "_ZN5TMBad6global8CompleteIN6newton5TagOpIvEEE12forward_incrERNS_11ForwardArgsINS0_6ad_augEEE"
 "_ZN5TMBad6global8CompleteIN6newton5TagOpIvEEE12reverse_decrERNS_11ReverseArgsIbEE"
 "_ZN5TMBad6global8CompleteIN6newton5TagOpIvEEE12reverse_decrERNS_11ReverseArgsIdEE"
 "_ZN5TMBad6global8CompleteIN6newton5TagOpIvEEE12reverse_decrERNS_11ReverseArgsINS_6WriterEEE"
 "_ZN5TMBad6global8CompleteIN6newton5TagOpIvEEE12reverse_decrERNS_11ReverseArgsINS0_6ad_augEEE"
 "_ZN5TMBad6global8CompleteIN6newton5TagOpIvEEE13operator_dataEv"
 "_ZN5TMBad6global8CompleteIN6newton5TagOpIvEEE19forward_replay_copyERNS_11ForwardArgsINS0_6ad_augEEE"
 "_ZN5TMBad6global8CompleteIN6newton5TagOpIvEEE23forward_incr_mark_denseERNS_11ForwardArgsIbEE"
 "_ZN5TMBad6global8CompleteIN6newton5TagOpIvEEE4copyEv"
 "_ZN5TMBad6global8CompleteIN6newton5TagOpIvEEE4infoEv"
 "_ZN5TMBad6global8CompleteIN6newton5TagOpIvEEE5printENS0_12print_configE"
 "_ZN5TMBad6global8CompleteIN6newton5TagOpIvEEE7forwardERNS_11ForwardArgsIbEE"
 "_ZN5TMBad6global8CompleteIN6newton5TagOpIvEEE7forwardERNS_11ForwardArgsIdEE"
 "_ZN5TMBad6global8CompleteIN6newton5TagOpIvEEE7forwardERNS_11ForwardArgsINS_6WriterEEE"
 "_ZN5TMBad6global8CompleteIN6newton5TagOpIvEEE7forwardERNS_11ForwardArgsINS0_6ad_augEEE"
 "_ZN5TMBad6global8CompleteIN6newton5TagOpIvEEE7op_nameEv"
 "_ZN5TMBad6global8CompleteIN6newton5TagOpIvEEE7reverseERNS_11ReverseArgsIbEE"
 "_ZN5TMBad6global8CompleteIN6newton5TagOpIvEEE7reverseERNS_11ReverseArgsIdEE"
 "_ZN5TMBad6global8CompleteIN6newton5TagOpIvEEE7reverseERNS_11ReverseArgsINS_6WriterEEE"
 "_ZN5TMBad6global8CompleteIN6newton5TagOpIvEEE7reverseERNS_11ReverseArgsINS0_6ad_augEEE"
 "_ZN5TMBad6global8CompleteIN6newton5TagOpIvEEE9decrementERSt4pairIjjE"
 "_ZN5TMBad6global8CompleteIN6newton5TagOpIvEEE9incrementERSt4pairIjjE"
 "_ZN5TMBad6global8CompleteIN6newton5TagOpIvEEE9self_fuseEv"
 "_ZN5TMBad6global8CompleteIN6newton5TagOpIvEEED0Ev"
 "_ZN5TMBad6global8CompleteIN6newton5TagOpIvEEED1Ev"
 "_ZN5TMBad6global8CompleteINS_11CondExpEqOpEE10deallocateEv"
 "_ZN5TMBad6global8CompleteINS_11CondExpEqOpEE10identifierEv"
 "_ZN5TMBad6global8CompleteINS_11CondExpEqOpEE10incompleteEv"
 "_ZN5TMBad6global8CompleteINS_11CondExpEqOpEE10input_sizeEv"
 "_ZN5TMBad6global8CompleteINS_11CondExpEqOpEE10other_fuseEPNS0_12OperatorPureE"
 "_ZN5TMBad6global8CompleteINS_11CondExpEqOpEE11output_sizeEv"
 "_ZN5TMBad6global8CompleteINS_11CondExpEqOpEE12dependenciesERNS_4ArgsIvEERNS_12DependenciesE"
 "_ZN5TMBad6global8CompleteINS_11CondExpEqOpEE12forward_incrERNS_11ForwardArgsIbEE"
 "_ZN5TMBad6global8CompleteINS_11CondExpEqOpEE12forward_incrERNS_11ForwardArgsIdEE"
 "_ZN5TMBad6global8CompleteINS_11CondExpEqOpEE12forward_incrERNS_11ForwardArgsINS_6WriterEEE"
 "_ZN5TMBad6global8CompleteINS_11CondExpEqOpEE12forward_incrERNS_11ForwardArgsINS0_6ad_augEEE"
 "_ZN5TMBad6global8CompleteINS_11CondExpEqOpEE12reverse_decrERNS_11ReverseArgsIbEE"
 "_ZN5TMBad6global8CompleteINS_11CondExpEqOpEE12reverse_decrERNS_11ReverseArgsIdEE"
 "_ZN5TMBad6global8CompleteINS_11CondExpEqOpEE12reverse_decrERNS_11ReverseArgsINS_6WriterEEE"
 "_ZN5TMBad6global8CompleteINS_11CondExpEqOpEE12reverse_decrERNS_11ReverseArgsINS0_6ad_augEEE"
 "_ZN5TMBad6global8CompleteINS_11CondExpEqOpEE13operator_dataEv"
 "_ZN5TMBad6global8CompleteINS_11CondExpEqOpEE23forward_incr_mark_denseERNS_11ForwardArgsIbEE"
 "_ZN5TMBad6global8CompleteINS_11CondExpEqOpEE4copyEv"
 "_ZN5TMBad6global8CompleteINS_11CondExpEqOpEE4infoEv"
 "_ZN5TMBad6global8CompleteINS_11CondExpEqOpEE5printENS0_12print_configE"
 "_ZN5TMBad6global8CompleteINS_11CondExpEqOpEE7forwardERNS_11ForwardArgsIbEE"
 "_ZN5TMBad6global8CompleteINS_11CondExpEqOpEE7forwardERNS_11ForwardArgsIdEE"
 "_ZN5TMBad6global8CompleteINS_11CondExpEqOpEE7forwardERNS_11ForwardArgsINS_6WriterEEE"
 "_ZN5TMBad6global8CompleteINS_11CondExpEqOpEE7forwardERNS_11ForwardArgsINS0_6ad_augEEE"
 "_ZN5TMBad6global8CompleteINS_11CondExpEqOpEE7op_nameEv"
 "_ZN5TMBad6global8CompleteINS_11CondExpEqOpEE7reverseERNS_11ReverseArgsIbEE"
 "_ZN5TMBad6global8CompleteINS_11CondExpEqOpEE7reverseERNS_11ReverseArgsIdEE"
 "_ZN5TMBad6global8CompleteINS_11CondExpEqOpEE7reverseERNS_11ReverseArgsINS_6WriterEEE"
 "_ZN5TMBad6global8CompleteINS_11CondExpEqOpEE7reverseERNS_11ReverseArgsINS0_6ad_augEEE"
 "_ZN5TMBad6global8CompleteINS_11CondExpEqOpEE9decrementERSt4pairIjjE"
 "_ZN5TMBad6global8CompleteINS_11CondExpEqOpEE9incrementERSt4pairIjjE"
 "_ZN5TMBad6global8CompleteINS_11CondExpEqOpEE9self_fuseEv"
 "_ZN5TMBad6global8CompleteINS_11CondExpEqOpEED0Ev"
 "_ZN5TMBad6global8CompleteINS_11CondExpEqOpEED1Ev"
 "_ZN5TMBad6global8CompleteINS_11CondExpGeOpEE10deallocateEv"
 "_ZN5TMBad6global8CompleteINS_11CondExpGeOpEE10identifierEv"
 "_ZN5TMBad6global8CompleteINS_11CondExpGeOpEE10incompleteEv"
 "_ZN5TMBad6global8CompleteINS_11CondExpGeOpEE10input_sizeEv"
 "_ZN5TMBad6global8CompleteINS_11CondExpGeOpEE10other_fuseEPNS0_12OperatorPureE"
 "_ZN5TMBad6global8CompleteINS_11CondExpGeOpEE11output_sizeEv"
 "_ZN5TMBad6global8CompleteINS_11CondExpGeOpEE12dependenciesERNS_4ArgsIvEERNS_12DependenciesE"
 "_ZN5TMBad6global8CompleteINS_11CondExpGeOpEE12forward_incrERNS_11ForwardArgsIbEE"
 "_ZN5TMBad6global8CompleteINS_11CondExpGeOpEE12forward_incrERNS_11ForwardArgsIdEE"
 "_ZN5TMBad6global8CompleteINS_11CondExpGeOpEE12forward_incrERNS_11ForwardArgsINS_6WriterEEE"
 "_ZN5TMBad6global8CompleteINS_11CondExpGeOpEE12forward_incrERNS_11ForwardArgsINS0_6ad_augEEE"
 "_ZN5TMBad6global8CompleteINS_11CondExpGeOpEE12reverse_decrERNS_11ReverseArgsIbEE"
 "_ZN5TMBad6global8CompleteINS_11CondExpGeOpEE12reverse_decrERNS_11ReverseArgsIdEE"
 "_ZN5TMBad6global8CompleteINS_11CondExpGeOpEE12reverse_decrERNS_11ReverseArgsINS_6WriterEEE"
 "_ZN5TMBad6global8CompleteINS_11CondExpGeOpEE12reverse_decrERNS_11ReverseArgsINS0_6ad_augEEE"
 "_ZN5TMBad6global8CompleteINS_11CondExpGeOpEE13operator_dataEv"
 "_ZN5TMBad6global8CompleteINS_11CondExpGeOpEE23forward_incr_mark_denseERNS_11ForwardArgsIbEE"
 "_ZN5TMBad6global8CompleteINS_11CondExpGeOpEE4copyEv"
 "_ZN5TMBad6global8CompleteINS_11CondExpGeOpEE4infoEv"
 "_ZN5TMBad6global8CompleteINS_11CondExpGeOpEE5printENS0_12print_configE"
 "_ZN5TMBad6global8CompleteINS_11CondExpGeOpEE7forwardERNS_11ForwardArgsIbEE"
 "_ZN5TMBad6global8CompleteINS_11CondExpGeOpEE7forwardERNS_11ForwardArgsIdEE"
 "_ZN5TMBad6global8CompleteINS_11CondExpGeOpEE7forwardERNS_11ForwardArgsINS_6WriterEEE"
 "_ZN5TMBad6global8CompleteINS_11CondExpGeOpEE7forwardERNS_11ForwardArgsINS0_6ad_augEEE"
 "_ZN5TMBad6global8CompleteINS_11CondExpGeOpEE7op_nameEv"
 "_ZN5TMBad6global8CompleteINS_11CondExpGeOpEE7reverseERNS_11ReverseArgsIbEE"
 "_ZN5TMBad6global8CompleteINS_11CondExpGeOpEE7reverseERNS_11ReverseArgsIdEE"
 "_ZN5TMBad6global8CompleteINS_11CondExpGeOpEE7reverseERNS_11ReverseArgsINS_6WriterEEE"
 "_ZN5TMBad6global8CompleteINS_11CondExpGeOpEE7reverseERNS_11ReverseArgsINS0_6ad_augEEE"
 "_ZN5TMBad6global8CompleteINS_11CondExpGeOpEE9decrementERSt4pairIjjE"
 "_ZN5TMBad6global8CompleteINS_11CondExpGeOpEE9incrementERSt4pairIjjE"
 "_ZN5TMBad6global8CompleteINS_11CondExpGeOpEE9self_fuseEv"
 "_ZN5TMBad6global8CompleteINS_11CondExpGeOpEED0Ev"
 "_ZN5TMBad6global8CompleteINS_11CondExpGeOpEED1Ev"
 "_ZN5TMBad6global8CompleteINS_11CondExpGtOpEE10deallocateEv"
 "_ZN5TMBad6global8CompleteINS_11CondExpGtOpEE10identifierEv"
 "_ZN5TMBad6global8CompleteINS_11CondExpGtOpEE10incompleteEv"
 "_ZN5TMBad6global8CompleteINS_11CondExpGtOpEE10input_sizeEv"
 "_ZN5TMBad6global8CompleteINS_11CondExpGtOpEE10other_fuseEPNS0_12OperatorPureE"
 "_ZN5TMBad6global8CompleteINS_11CondExpGtOpEE11output_sizeEv"
 "_ZN5TMBad6global8CompleteINS_11CondExpGtOpEE12dependenciesERNS_4ArgsIvEERNS_12DependenciesE"
 "_ZN5TMBad6global8CompleteINS_11CondExpGtOpEE12forward_incrERNS_11ForwardArgsIbEE"
 "_ZN5TMBad6global8CompleteINS_11CondExpGtOpEE12forward_incrERNS_11ForwardArgsIdEE"
 "_ZN5TMBad6global8CompleteINS_11CondExpGtOpEE12forward_incrERNS_11ForwardArgsINS_6WriterEEE"
 "_ZN5TMBad6global8CompleteINS_11CondExpGtOpEE12forward_incrERNS_11ForwardArgsINS0_6ad_augEEE"
 "_ZN5TMBad6global8CompleteINS_11CondExpGtOpEE12reverse_decrERNS_11ReverseArgsIbEE"
 "_ZN5TMBad6global8CompleteINS_11CondExpGtOpEE12reverse_decrERNS_11ReverseArgsIdEE"
 "_ZN5TMBad6global8CompleteINS_11CondExpGtOpEE12reverse_decrERNS_11ReverseArgsINS_6WriterEEE"
 "_ZN5TMBad6global8CompleteINS_11CondExpGtOpEE12reverse_decrERNS_11ReverseArgsINS0_6ad_augEEE"
 "_ZN5TMBad6global8CompleteINS_11CondExpGtOpEE13operator_dataEv"
 "_ZN5TMBad6global8CompleteINS_11CondExpGtOpEE23forward_incr_mark_denseERNS_11ForwardArgsIbEE"
 "_ZN5TMBad6global8CompleteINS_11CondExpGtOpEE4copyEv"
 "_ZN5TMBad6global8CompleteINS_11CondExpGtOpEE4infoEv"
 "_ZN5TMBad6global8CompleteINS_11CondExpGtOpEE5printENS0_12print_configE"
 "_ZN5TMBad6global8CompleteINS_11CondExpGtOpEE7forwardERNS_11ForwardArgsIbEE"
 "_ZN5TMBad6global8CompleteINS_11CondExpGtOpEE7forwardERNS_11ForwardArgsIdEE"
 "_ZN5TMBad6global8CompleteINS_11CondExpGtOpEE7forwardERNS_11ForwardArgsINS_6WriterEEE"
 "_ZN5TMBad6global8CompleteINS_11CondExpGtOpEE7forwardERNS_11ForwardArgsINS0_6ad_augEEE"
 "_ZN5TMBad6global8CompleteINS_11CondExpGtOpEE7op_nameEv"
 "_ZN5TMBad6global8CompleteINS_11CondExpGtOpEE7reverseERNS_11ReverseArgsIbEE"
 "_ZN5TMBad6global8CompleteINS_11CondExpGtOpEE7reverseERNS_11ReverseArgsIdEE"
 "_ZN5TMBad6global8CompleteINS_11CondExpGtOpEE7reverseERNS_11ReverseArgsINS_6WriterEEE"
 "_ZN5TMBad6global8CompleteINS_11CondExpGtOpEE7reverseERNS_11ReverseArgsINS0_6ad_augEEE"
 "_ZN5TMBad6global8CompleteINS_11CondExpGtOpEE9decrementERSt4pairIjjE"
 "_ZN5TMBad6global8CompleteINS_11CondExpGtOpEE9incrementERSt4pairIjjE"
 "_ZN5TMBad6global8CompleteINS_11CondExpGtOpEE9self_fuseEv"
 "_ZN5TMBad6global8CompleteINS_11CondExpGtOpEED0Ev"
 "_ZN5TMBad6global8CompleteINS_11CondExpGtOpEED1Ev"
 "_ZN5TMBad6global8CompleteINS_11CondExpLeOpEE10deallocateEv"
 "_ZN5TMBad6global8CompleteINS_11CondExpLeOpEE10identifierEv"
 "_ZN5TMBad6global8CompleteINS_11CondExpLeOpEE10incompleteEv"
 "_ZN5TMBad6global8CompleteINS_11CondExpLeOpEE10input_sizeEv"
 "_ZN5TMBad6global8CompleteINS_11CondExpLeOpEE10other_fuseEPNS0_12OperatorPureE"
 "_ZN5TMBad6global8CompleteINS_11CondExpLeOpEE11output_sizeEv"
 "_ZN5TMBad6global8CompleteINS_11CondExpLeOpEE12dependenciesERNS_4ArgsIvEERNS_12DependenciesE"
 "_ZN5TMBad6global8CompleteINS_11CondExpLeOpEE12forward_incrERNS_11ForwardArgsIbEE"
 "_ZN5TMBad6global8CompleteINS_11CondExpLeOpEE12forward_incrERNS_11ForwardArgsIdEE"
 "_ZN5TMBad6global8CompleteINS_11CondExpLeOpEE12forward_incrERNS_11ForwardArgsINS_6WriterEEE"
 "_ZN5TMBad6global8CompleteINS_11CondExpLeOpEE12forward_incrERNS_11ForwardArgsINS0_6ad_augEEE"
 "_ZN5TMBad6global8CompleteINS_11CondExpLeOpEE12reverse_decrERNS_11ReverseArgsIbEE"
 "_ZN5TMBad6global8CompleteINS_11CondExpLeOpEE12reverse_decrERNS_11ReverseArgsIdEE"
 "_ZN5TMBad6global8CompleteINS_11CondExpLeOpEE12reverse_decrERNS_11ReverseArgsINS_6WriterEEE"
 "_ZN5TMBad6global8CompleteINS_11CondExpLeOpEE12reverse_decrERNS_11ReverseArgsINS0_6ad_augEEE"
 "_ZN5TMBad6global8CompleteINS_11CondExpLeOpEE13operator_dataEv"
 "_ZN5TMBad6global8CompleteINS_11CondExpLeOpEE23forward_incr_mark_denseERNS_11ForwardArgsIbEE"
 "_ZN5TMBad6global8CompleteINS_11CondExpLeOpEE4copyEv"
 "_ZN5TMBad6global8CompleteINS_11CondExpLeOpEE4infoEv"
 "_ZN5TMBad6global8CompleteINS_11CondExpLeOpEE5printENS0_12print_configE"
 "_ZN5TMBad6global8CompleteINS_11CondExpLeOpEE7forwardERNS_11ForwardArgsIbEE"
 "_ZN5TMBad6global8CompleteINS_11CondExpLeOpEE7forwardERNS_11ForwardArgsIdEE"
 "_ZN5TMBad6global8CompleteINS_11CondExpLeOpEE7forwardERNS_11ForwardArgsINS_6WriterEEE"
 "_ZN5TMBad6global8CompleteINS_11CondExpLeOpEE7forwardERNS_11ForwardArgsINS0_6ad_augEEE"
 "_ZN5TMBad6global8CompleteINS_11CondExpLeOpEE7op_nameEv"
 "_ZN5TMBad6global8CompleteINS_11CondExpLeOpEE7reverseERNS_11ReverseArgsIbEE"
 "_ZN5TMBad6global8CompleteINS_11CondExpLeOpEE7reverseERNS_11ReverseArgsIdEE"
 "_ZN5TMBad6global8CompleteINS_11CondExpLeOpEE7reverseERNS_11ReverseArgsINS_6WriterEEE"
 "_ZN5TMBad6global8CompleteINS_11CondExpLeOpEE7reverseERNS_11ReverseArgsINS0_6ad_augEEE"
 "_ZN5TMBad6global8CompleteINS_11CondExpLeOpEE9decrementERSt4pairIjjE"
 "_ZN5TMBad6global8CompleteINS_11CondExpLeOpEE9incrementERSt4pairIjjE"
 "_ZN5TMBad6global8CompleteINS_11CondExpLeOpEE9self_fuseEv"
 "_ZN5TMBad6global8CompleteINS_11CondExpLeOpEED0Ev"
 "_ZN5TMBad6global8CompleteINS_11CondExpLeOpEED1Ev"
 "_ZN5TMBad6global8CompleteINS_11CondExpLtOpEE10deallocateEv"
 "_ZN5TMBad6global8CompleteINS_11CondExpLtOpEE10identifierEv"
 "_ZN5TMBad6global8CompleteINS_11CondExpLtOpEE10incompleteEv"
 "_ZN5TMBad6global8CompleteINS_11CondExpLtOpEE10input_sizeEv"
 "_ZN5TMBad6global8CompleteINS_11CondExpLtOpEE10other_fuseEPNS0_12OperatorPureE"
 "_ZN5TMBad6global8CompleteINS_11CondExpLtOpEE11output_sizeEv"
 "_ZN5TMBad6global8CompleteINS_11CondExpLtOpEE12dependenciesERNS_4ArgsIvEERNS_12DependenciesE"
 "_ZN5TMBad6global8CompleteINS_11CondExpLtOpEE12forward_incrERNS_11ForwardArgsIbEE"
 "_ZN5TMBad6global8CompleteINS_11CondExpLtOpEE12forward_incrERNS_11ForwardArgsIdEE"
 "_ZN5TMBad6global8CompleteINS_11CondExpLtOpEE12forward_incrERNS_11ForwardArgsINS_6WriterEEE"
 "_ZN5TMBad6global8CompleteINS_11CondExpLtOpEE12forward_incrERNS_11ForwardArgsINS0_6ad_augEEE"
 "_ZN5TMBad6global8CompleteINS_11CondExpLtOpEE12reverse_decrERNS_11ReverseArgsIbEE"
 "_ZN5TMBad6global8CompleteINS_11CondExpLtOpEE12reverse_decrERNS_11ReverseArgsIdEE"
 "_ZN5TMBad6global8CompleteINS_11CondExpLtOpEE12reverse_decrERNS_11ReverseArgsINS_6WriterEEE"
 "_ZN5TMBad6global8CompleteINS_11CondExpLtOpEE12reverse_decrERNS_11ReverseArgsINS0_6ad_augEEE"
 "_ZN5TMBad6global8CompleteINS_11CondExpLtOpEE13operator_dataEv"
 "_ZN5TMBad6global8CompleteINS_11CondExpLtOpEE23forward_incr_mark_denseERNS_11ForwardArgsIbEE"
 "_ZN5TMBad6global8CompleteINS_11CondExpLtOpEE4copyEv"
 "_ZN5TMBad6global8CompleteINS_11CondExpLtOpEE4infoEv"
 "_ZN5TMBad6global8CompleteINS_11CondExpLtOpEE5printENS0_12print_configE"
 "_ZN5TMBad6global8CompleteINS_11CondExpLtOpEE7forwardERNS_11ForwardArgsIbEE"
 "_ZN5TMBad6global8CompleteINS_11CondExpLtOpEE7forwardERNS_11ForwardArgsIdEE"
 "_ZN5TMBad6global8CompleteINS_11CondExpLtOpEE7forwardERNS_11ForwardArgsINS_6WriterEEE"
 "_ZN5TMBad6global8CompleteINS_11CondExpLtOpEE7forwardERNS_11ForwardArgsINS0_6ad_augEEE"
 "_ZN5TMBad6global8CompleteINS_11CondExpLtOpEE7op_nameEv"
 "_ZN5TMBad6global8CompleteINS_11CondExpLtOpEE7reverseERNS_11ReverseArgsIbEE"
 "_ZN5TMBad6global8CompleteINS_11CondExpLtOpEE7reverseERNS_11ReverseArgsIdEE"
 "_ZN5TMBad6global8CompleteINS_11CondExpLtOpEE7reverseERNS_11ReverseArgsINS_6WriterEEE"
 "_ZN5TMBad6global8CompleteINS_11CondExpLtOpEE7reverseERNS_11ReverseArgsINS0_6ad_augEEE"
 "_ZN5TMBad6global8CompleteINS_11CondExpLtOpEE9decrementERSt4pairIjjE"
 "_ZN5TMBad6global8CompleteINS_11CondExpLtOpEE9incrementERSt4pairIjjE"
 "_ZN5TMBad6global8CompleteINS_11CondExpLtOpEE9self_fuseEv"
 "_ZN5TMBad6global8CompleteINS_11CondExpLtOpEED0Ev"
 "_ZN5TMBad6global8CompleteINS_11CondExpLtOpEED1Ev"
 "_ZN5TMBad6global8CompleteINS_11CondExpNeOpEE10deallocateEv"
 "_ZN5TMBad6global8CompleteINS_11CondExpNeOpEE10identifierEv"
 "_ZN5TMBad6global8CompleteINS_11CondExpNeOpEE10incompleteEv"
 "_ZN5TMBad6global8CompleteINS_11CondExpNeOpEE10input_sizeEv"
 "_ZN5TMBad6global8CompleteINS_11CondExpNeOpEE10other_fuseEPNS0_12OperatorPureE"
 "_ZN5TMBad6global8CompleteINS_11CondExpNeOpEE11output_sizeEv"
 "_ZN5TMBad6global8CompleteINS_11CondExpNeOpEE12dependenciesERNS_4ArgsIvEERNS_12DependenciesE"
 "_ZN5TMBad6global8CompleteINS_11CondExpNeOpEE12forward_incrERNS_11ForwardArgsIbEE"
 "_ZN5TMBad6global8CompleteINS_11CondExpNeOpEE12forward_incrERNS_11ForwardArgsIdEE"
 "_ZN5TMBad6global8CompleteINS_11CondExpNeOpEE12forward_incrERNS_11ForwardArgsINS_6WriterEEE"
 "_ZN5TMBad6global8CompleteINS_11CondExpNeOpEE12forward_incrERNS_11ForwardArgsINS0_6ad_augEEE"
 "_ZN5TMBad6global8CompleteINS_11CondExpNeOpEE12reverse_decrERNS_11ReverseArgsIbEE"
 "_ZN5TMBad6global8CompleteINS_11CondExpNeOpEE12reverse_decrERNS_11ReverseArgsIdEE"
 "_ZN5TMBad6global8CompleteINS_11CondExpNeOpEE12reverse_decrERNS_11ReverseArgsINS_6WriterEEE"
 "_ZN5TMBad6global8CompleteINS_11CondExpNeOpEE12reverse_decrERNS_11ReverseArgsINS0_6ad_augEEE"
 "_ZN5TMBad6global8CompleteINS_11CondExpNeOpEE13operator_dataEv"
 "_ZN5TMBad6global8CompleteINS_11CondExpNeOpEE23forward_incr_mark_denseERNS_11ForwardArgsIbEE"
 "_ZN5TMBad6global8CompleteINS_11CondExpNeOpEE4copyEv"
 "_ZN5TMBad6global8CompleteINS_11CondExpNeOpEE4infoEv"
 "_ZN5TMBad6global8CompleteINS_11CondExpNeOpEE5printENS0_12print_configE"
 "_ZN5TMBad6global8CompleteINS_11CondExpNeOpEE7forwardERNS_11ForwardArgsIbEE"
 "_ZN5TMBad6global8CompleteINS_11CondExpNeOpEE7forwardERNS_11ForwardArgsIdEE"
 "_ZN5TMBad6global8CompleteINS_11CondExpNeOpEE7forwardERNS_11ForwardArgsINS_6WriterEEE"
 "_ZN5TMBad6global8CompleteINS_11CondExpNeOpEE7forwardERNS_11ForwardArgsINS0_6ad_augEEE"
 "_ZN5TMBad6global8CompleteINS_11CondExpNeOpEE7op_nameEv"
 "_ZN5TMBad6global8CompleteINS_11CondExpNeOpEE7reverseERNS_11ReverseArgsIbEE"
 "_ZN5TMBad6global8CompleteINS_11CondExpNeOpEE7reverseERNS_11ReverseArgsIdEE"
 "_ZN5TMBad6global8CompleteINS_11CondExpNeOpEE7reverseERNS_11ReverseArgsINS_6WriterEEE"
 "_ZN5TMBad6global8CompleteINS_11CondExpNeOpEE7reverseERNS_11ReverseArgsINS0_6ad_augEEE"
 "_ZN5TMBad6global8CompleteINS_11CondExpNeOpEE9decrementERSt4pairIjjE"
 "_ZN5TMBad6global8CompleteINS_11CondExpNeOpEE9incrementERSt4pairIjjE"
 "_ZN5TMBad6global8CompleteINS_11CondExpNeOpEE9self_fuseEv"
 "_ZN5TMBad6global8CompleteINS_11CondExpNeOpEED0Ev"
 "_ZN5TMBad6global8CompleteINS_11CondExpNeOpEED1Ev"
 "_ZN5TMBad6global8CompleteINS_13LogSpaceSumOpEE10deallocateEv"
 "_ZN5TMBad6global8CompleteINS_13LogSpaceSumOpEE10identifierEv"
 "_ZN5TMBad6global8CompleteINS_13LogSpaceSumOpEE10incompleteEv"
 "_ZN5TMBad6global8CompleteINS_13LogSpaceSumOpEE10input_sizeEv"
 "_ZN5TMBad6global8CompleteINS_13LogSpaceSumOpEE10other_fuseEPNS0_12OperatorPureE"
 "_ZN5TMBad6global8CompleteINS_13LogSpaceSumOpEE11output_sizeEv"
 "_ZN5TMBad6global8CompleteINS_13LogSpaceSumOpEE12dependenciesERNS_4ArgsIvEERNS_12DependenciesE"
 "_ZN5TMBad6global8CompleteINS_13LogSpaceSumOpEE12forward_incrERNS_11ForwardArgsIbEE"
 "_ZN5TMBad6global8CompleteINS_13LogSpaceSumOpEE12forward_incrERNS_11ForwardArgsIdEE"
 "_ZN5TMBad6global8CompleteINS_13LogSpaceSumOpEE12forward_incrERNS_11ForwardArgsINS_6WriterEEE"
 "_ZN5TMBad6global8CompleteINS_13LogSpaceSumOpEE12forward_incrERNS_11ForwardArgsINS0_6ad_augEEE"
 "_ZN5TMBad6global8CompleteINS_13LogSpaceSumOpEE12reverse_decrERNS_11ReverseArgsIbEE"
 "_ZN5TMBad6global8CompleteINS_13LogSpaceSumOpEE12reverse_decrERNS_11ReverseArgsIdEE"
 "_ZN5TMBad6global8CompleteINS_13LogSpaceSumOpEE12reverse_decrERNS_11ReverseArgsINS_6WriterEEE"
 "_ZN5TMBad6global8CompleteINS_13LogSpaceSumOpEE12reverse_decrERNS_11ReverseArgsINS0_6ad_augEEE"
 "_ZN5TMBad6global8CompleteINS_13LogSpaceSumOpEE13operator_dataEv"
 "_ZN5TMBad6global8CompleteINS_13LogSpaceSumOpEE23forward_incr_mark_denseERNS_11ForwardArgsIbEE"
 "_ZN5TMBad6global8CompleteINS_13LogSpaceSumOpEE4copyEv"
 "_ZN5TMBad6global8CompleteINS_13LogSpaceSumOpEE4infoEv"
 "_ZN5TMBad6global8CompleteINS_13LogSpaceSumOpEE5printENS0_12print_configE"
 "_ZN5TMBad6global8CompleteINS_13LogSpaceSumOpEE7forwardERNS_11ForwardArgsIbEE"
 "_ZN5TMBad6global8CompleteINS_13LogSpaceSumOpEE7forwardERNS_11ForwardArgsIdEE"
 "_ZN5TMBad6global8CompleteINS_13LogSpaceSumOpEE7forwardERNS_11ForwardArgsINS_6WriterEEE"
 "_ZN5TMBad6global8CompleteINS_13LogSpaceSumOpEE7forwardERNS_11ForwardArgsINS0_6ad_augEEE"
 "_ZN5TMBad6global8CompleteINS_13LogSpaceSumOpEE7op_nameEv"
 "_ZN5TMBad6global8CompleteINS_13LogSpaceSumOpEE7reverseERNS_11ReverseArgsIbEE"
 "_ZN5TMBad6global8CompleteINS_13LogSpaceSumOpEE7reverseERNS_11ReverseArgsIdEE"
 "_ZN5TMBad6global8CompleteINS_13LogSpaceSumOpEE7reverseERNS_11ReverseArgsINS_6WriterEEE"
 "_ZN5TMBad6global8CompleteINS_13LogSpaceSumOpEE7reverseERNS_11ReverseArgsINS0_6ad_augEEE"
 "_ZN5TMBad6global8CompleteINS_13LogSpaceSumOpEE9decrementERSt4pairIjjE"
 "_ZN5TMBad6global8CompleteINS_13LogSpaceSumOpEE9incrementERSt4pairIjjE"
 "_ZN5TMBad6global8CompleteINS_13LogSpaceSumOpEE9self_fuseEv"
 "_ZN5TMBad6global8CompleteINS_13LogSpaceSumOpEED0Ev"
 "_ZN5TMBad6global8CompleteINS_13LogSpaceSumOpEED1Ev"
 "_ZN5TMBad6global8CompleteINS_19LogSpaceSumStrideOpEE10deallocateEv"
 "_ZN5TMBad6global8CompleteINS_19LogSpaceSumStrideOpEE10identifierEv"
 "_ZN5TMBad6global8CompleteINS_19LogSpaceSumStrideOpEE10incompleteEv"
 "_ZN5TMBad6global8CompleteINS_19LogSpaceSumStrideOpEE10input_sizeEv"
 "_ZN5TMBad6global8CompleteINS_19LogSpaceSumStrideOpEE10other_fuseEPNS0_12OperatorPureE"
 "_ZN5TMBad6global8CompleteINS_19LogSpaceSumStrideOpEE11output_sizeEv"
 "_ZN5TMBad6global8CompleteINS_19LogSpaceSumStrideOpEE12dependenciesERNS_4ArgsIvEERNS_12DependenciesE"
 "_ZN5TMBad6global8CompleteINS_19LogSpaceSumStrideOpEE12forward_incrERNS_11ForwardArgsIbEE"
 "_ZN5TMBad6global8CompleteINS_19LogSpaceSumStrideOpEE12forward_incrERNS_11ForwardArgsIdEE"
 "_ZN5TMBad6global8CompleteINS_19LogSpaceSumStrideOpEE12forward_incrERNS_11ForwardArgsINS_6WriterEEE"
 "_ZN5TMBad6global8CompleteINS_19LogSpaceSumStrideOpEE12forward_incrERNS_11ForwardArgsINS0_6ad_augEEE"
 "_ZN5TMBad6global8CompleteINS_19LogSpaceSumStrideOpEE12reverse_decrERNS_11ReverseArgsIbEE"
 "_ZN5TMBad6global8CompleteINS_19LogSpaceSumStrideOpEE12reverse_decrERNS_11ReverseArgsIdEE"
 "_ZN5TMBad6global8CompleteINS_19LogSpaceSumStrideOpEE12reverse_decrERNS_11ReverseArgsINS_6WriterEEE"
 "_ZN5TMBad6global8CompleteINS_19LogSpaceSumStrideOpEE12reverse_decrERNS_11ReverseArgsINS0_6ad_augEEE"
 "_ZN5TMBad6global8CompleteINS_19LogSpaceSumStrideOpEE13operator_dataEv"
 "_ZN5TMBad6global8CompleteINS_19LogSpaceSumStrideOpEE23forward_incr_mark_denseERNS_11ForwardArgsIbEE"
 "_ZN5TMBad6global8CompleteINS_19LogSpaceSumStrideOpEE4copyEv"
 "_ZN5TMBad6global8CompleteINS_19LogSpaceSumStrideOpEE4infoEv"
 "_ZN5TMBad6global8CompleteINS_19LogSpaceSumStrideOpEE5printENS0_12print_configE"
 "_ZN5TMBad6global8CompleteINS_19LogSpaceSumStrideOpEE7forwardERNS_11ForwardArgsIbEE"
 "_ZN5TMBad6global8CompleteINS_19LogSpaceSumStrideOpEE7forwardERNS_11ForwardArgsIdEE"
 "_ZN5TMBad6global8CompleteINS_19LogSpaceSumStrideOpEE7forwardERNS_11ForwardArgsINS_6WriterEEE"
 "_ZN5TMBad6global8CompleteINS_19LogSpaceSumStrideOpEE7forwardERNS_11ForwardArgsINS0_6ad_augEEE"
 "_ZN5TMBad6global8CompleteINS_19LogSpaceSumStrideOpEE7op_nameEv"
 "_ZN5TMBad6global8CompleteINS_19LogSpaceSumStrideOpEE7reverseERNS_11ReverseArgsIbEE"
 "_ZN5TMBad6global8CompleteINS_19LogSpaceSumStrideOpEE7reverseERNS_11ReverseArgsIdEE"
 "_ZN5TMBad6global8CompleteINS_19LogSpaceSumStrideOpEE7reverseERNS_11ReverseArgsINS_6WriterEEE"
 "_ZN5TMBad6global8CompleteINS_19LogSpaceSumStrideOpEE7reverseERNS_11ReverseArgsINS0_6ad_augEEE"
 "_ZN5TMBad6global8CompleteINS_19LogSpaceSumStrideOpEE9decrementERSt4pairIjjE"
 "_ZN5TMBad6global8CompleteINS_19LogSpaceSumStrideOpEE9incrementERSt4pairIjjE"
 "_ZN5TMBad6global8CompleteINS_19LogSpaceSumStrideOpEE9self_fuseEv"
 "_ZN5TMBad6global8CompleteINS_19LogSpaceSumStrideOpEED0Ev"
 "_ZN5TMBad6global8CompleteINS_19LogSpaceSumStrideOpEED1Ev"
 "_ZN5TMBad6global8CompleteINS_5AbsOpEE10deallocateEv"
 "_ZN5TMBad6global8CompleteINS_5AbsOpEE10identifierEv"
 "_ZN5TMBad6global8CompleteINS_5AbsOpEE10incompleteEv"
 "_ZN5TMBad6global8CompleteINS_5AbsOpEE10input_sizeEv"
 "_ZN5TMBad6global8CompleteINS_5AbsOpEE10other_fuseEPNS0_12OperatorPureE"
 "_ZN5TMBad6global8CompleteINS_5AbsOpEE11output_sizeEv"
 "_ZN5TMBad6global8CompleteINS_5AbsOpEE12dependenciesERNS_4ArgsIvEERNS_12DependenciesE"
 "_ZN5TMBad6global8CompleteINS_5AbsOpEE12forward_incrERNS_11ForwardArgsIbEE"
 "_ZN5TMBad6global8CompleteINS_5AbsOpEE12forward_incrERNS_11ForwardArgsIdEE"
 "_ZN5TMBad6global8CompleteINS_5AbsOpEE12forward_incrERNS_11ForwardArgsINS_6WriterEEE"
 "_ZN5TMBad6global8CompleteINS_5AbsOpEE12forward_incrERNS_11ForwardArgsINS0_6ad_augEEE"
 "_ZN5TMBad6global8CompleteINS_5AbsOpEE12reverse_decrERNS_11ReverseArgsIbEE"
 "_ZN5TMBad6global8CompleteINS_5AbsOpEE12reverse_decrERNS_11ReverseArgsIdEE"
 "_ZN5TMBad6global8CompleteINS_5AbsOpEE12reverse_decrERNS_11ReverseArgsINS_6WriterEEE"
 "_ZN5TMBad6global8CompleteINS_5AbsOpEE12reverse_decrERNS_11ReverseArgsINS0_6ad_augEEE"
 "_ZN5TMBad6global8CompleteINS_5AbsOpEE13operator_dataEv"
 "_ZN5TMBad6global8CompleteINS_5AbsOpEE23forward_incr_mark_denseERNS_11ForwardArgsIbEE"
 "_ZN5TMBad6global8CompleteINS_5AbsOpEE4copyEv"
 "_ZN5TMBad6global8CompleteINS_5AbsOpEE4infoEv"
 "_ZN5TMBad6global8CompleteINS_5AbsOpEE5printENS0_12print_configE"
 "_ZN5TMBad6global8CompleteINS_5AbsOpEE7forwardERNS_11ForwardArgsIbEE"
 "_ZN5TMBad6global8CompleteINS_5AbsOpEE7forwardERNS_11ForwardArgsIdEE"
 "_ZN5TMBad6global8CompleteINS_5AbsOpEE7forwardERNS_11ForwardArgsINS_6WriterEEE"
 "_ZN5TMBad6global8CompleteINS_5AbsOpEE7forwardERNS_11ForwardArgsINS0_6ad_augEEE"
 "_ZN5TMBad6global8CompleteINS_5AbsOpEE7op_nameEv"
 "_ZN5TMBad6global8CompleteINS_5AbsOpEE7reverseERNS_11ReverseArgsIbEE"
 "_ZN5TMBad6global8CompleteINS_5AbsOpEE7reverseERNS_11ReverseArgsIdEE"
 "_ZN5TMBad6global8CompleteINS_5AbsOpEE7reverseERNS_11ReverseArgsINS_6WriterEEE"
 "_ZN5TMBad6global8CompleteINS_5AbsOpEE7reverseERNS_11ReverseArgsINS0_6ad_augEEE"
 "_ZN5TMBad6global8CompleteINS_5AbsOpEE9decrementERSt4pairIjjE"
 "_ZN5TMBad6global8CompleteINS_5AbsOpEE9incrementERSt4pairIjjE"
 "_ZN5TMBad6global8CompleteINS_5AbsOpEE9self_fuseEv"
 "_ZN5TMBad6global8CompleteINS_5AbsOpEED0Ev"
 "_ZN5TMBad6global8CompleteINS_5AbsOpEED1Ev"
 "_ZN5TMBad6global8CompleteINS_5CosOpEE10deallocateEv"
 "_ZN5TMBad6global8CompleteINS_5CosOpEE10identifierEv"
 "_ZN5TMBad6global8CompleteINS_5CosOpEE10incompleteEv"
 "_ZN5TMBad6global8CompleteINS_5CosOpEE10input_sizeEv"
 "_ZN5TMBad6global8CompleteINS_5CosOpEE10other_fuseEPNS0_12OperatorPureE"
 "_ZN5TMBad6global8CompleteINS_5CosOpEE11output_sizeEv"
 "_ZN5TMBad6global8CompleteINS_5CosOpEE12dependenciesERNS_4ArgsIvEERNS_12DependenciesE"
 "_ZN5TMBad6global8CompleteINS_5CosOpEE12forward_incrERNS_11ForwardArgsIbEE"
 "_ZN5TMBad6global8CompleteINS_5CosOpEE12forward_incrERNS_11ForwardArgsIdEE"
 "_ZN5TMBad6global8CompleteINS_5CosOpEE12forward_incrERNS_11ForwardArgsINS_6WriterEEE"
 "_ZN5TMBad6global8CompleteINS_5CosOpEE12forward_incrERNS_11ForwardArgsINS0_6ad_augEEE"
 "_ZN5TMBad6global8CompleteINS_5CosOpEE12reverse_decrERNS_11ReverseArgsIbEE"
 "_ZN5TMBad6global8CompleteINS_5CosOpEE12reverse_decrERNS_11ReverseArgsIdEE"
 "_ZN5TMBad6global8CompleteINS_5CosOpEE12reverse_decrERNS_11ReverseArgsINS_6WriterEEE"
 "_ZN5TMBad6global8CompleteINS_5CosOpEE12reverse_decrERNS_11ReverseArgsINS0_6ad_augEEE"
 "_ZN5TMBad6global8CompleteINS_5CosOpEE13operator_dataEv"
 "_ZN5TMBad6global8CompleteINS_5CosOpEE23forward_incr_mark_denseERNS_11ForwardArgsIbEE"
 "_ZN5TMBad6global8CompleteINS_5CosOpEE4copyEv"
 "_ZN5TMBad6global8CompleteINS_5CosOpEE4infoEv"
 "_ZN5TMBad6global8CompleteINS_5CosOpEE5printENS0_12print_configE"
 "_ZN5TMBad6global8CompleteINS_5CosOpEE7forwardERNS_11ForwardArgsIbEE"
 "_ZN5TMBad6global8CompleteINS_5CosOpEE7forwardERNS_11ForwardArgsIdEE"
 "_ZN5TMBad6global8CompleteINS_5CosOpEE7forwardERNS_11ForwardArgsINS_6WriterEEE"
 "_ZN5TMBad6global8CompleteINS_5CosOpEE7forwardERNS_11ForwardArgsINS0_6ad_augEEE"
 "_ZN5TMBad6global8CompleteINS_5CosOpEE7op_nameEv"
 "_ZN5TMBad6global8CompleteINS_5CosOpEE7reverseERNS_11ReverseArgsIbEE"
 "_ZN5TMBad6global8CompleteINS_5CosOpEE7reverseERNS_11ReverseArgsIdEE"
 "_ZN5TMBad6global8CompleteINS_5CosOpEE7reverseERNS_11ReverseArgsINS_6WriterEEE"
 "_ZN5TMBad6global8CompleteINS_5CosOpEE7reverseERNS_11ReverseArgsINS0_6ad_augEEE"
 "_ZN5TMBad6global8CompleteINS_5CosOpEE9decrementERSt4pairIjjE"
 "_ZN5TMBad6global8CompleteINS_5CosOpEE9incrementERSt4pairIjjE"
 "_ZN5TMBad6global8CompleteINS_5CosOpEE9self_fuseEv"
 "_ZN5TMBad6global8CompleteINS_5CosOpEED0Ev"
 "_ZN5TMBad6global8CompleteINS_5CosOpEED1Ev"
 "_ZN5TMBad6global8CompleteINS_5Expm1EE10deallocateEv"
 "_ZN5TMBad6global8CompleteINS_5Expm1EE10identifierEv"
 "_ZN5TMBad6global8CompleteINS_5Expm1EE10incompleteEv"
 "_ZN5TMBad6global8CompleteINS_5Expm1EE10input_sizeEv"
 "_ZN5TMBad6global8CompleteINS_5Expm1EE10other_fuseEPNS0_12OperatorPureE"
 "_ZN5TMBad6global8CompleteINS_5Expm1EE11output_sizeEv"
 "_ZN5TMBad6global8CompleteINS_5Expm1EE12dependenciesERNS_4ArgsIvEERNS_12DependenciesE"
 "_ZN5TMBad6global8CompleteINS_5Expm1EE12forward_incrERNS_11ForwardArgsIbEE"
 "_ZN5TMBad6global8CompleteINS_5Expm1EE12forward_incrERNS_11ForwardArgsIdEE"
 "_ZN5TMBad6global8CompleteINS_5Expm1EE12forward_incrERNS_11ForwardArgsINS_6WriterEEE"
 "_ZN5TMBad6global8CompleteINS_5Expm1EE12forward_incrERNS_11ForwardArgsINS0_6ad_augEEE"
 "_ZN5TMBad6global8CompleteINS_5Expm1EE12reverse_decrERNS_11ReverseArgsIbEE"
 "_ZN5TMBad6global8CompleteINS_5Expm1EE12reverse_decrERNS_11ReverseArgsIdEE"
 "_ZN5TMBad6global8CompleteINS_5Expm1EE12reverse_decrERNS_11ReverseArgsINS_6WriterEEE"
 "_ZN5TMBad6global8CompleteINS_5Expm1EE12reverse_decrERNS_11ReverseArgsINS0_6ad_augEEE"
 "_ZN5TMBad6global8CompleteINS_5Expm1EE13operator_dataEv"
 "_ZN5TMBad6global8CompleteINS_5Expm1EE23forward_incr_mark_denseERNS_11ForwardArgsIbEE"
 "_ZN5TMBad6global8CompleteINS_5Expm1EE4copyEv"
 "_ZN5TMBad6global8CompleteINS_5Expm1EE4infoEv"
 "_ZN5TMBad6global8CompleteINS_5Expm1EE5printENS0_12print_configE"
 "_ZN5TMBad6global8CompleteINS_5Expm1EE7forwardERNS_11ForwardArgsIbEE"
 "_ZN5TMBad6global8CompleteINS_5Expm1EE7forwardERNS_11ForwardArgsIdEE"
 "_ZN5TMBad6global8CompleteINS_5Expm1EE7forwardERNS_11ForwardArgsINS_6WriterEEE"
 "_ZN5TMBad6global8CompleteINS_5Expm1EE7forwardERNS_11ForwardArgsINS0_6ad_augEEE"
 "_ZN5TMBad6global8CompleteINS_5Expm1EE7op_nameEv"
 "_ZN5TMBad6global8CompleteINS_5Expm1EE7reverseERNS_11ReverseArgsIbEE"
 "_ZN5TMBad6global8CompleteINS_5Expm1EE7reverseERNS_11ReverseArgsIdEE"
 "_ZN5TMBad6global8CompleteINS_5Expm1EE7reverseERNS_11ReverseArgsINS_6WriterEEE"
 "_ZN5TMBad6global8CompleteINS_5Expm1EE7reverseERNS_11ReverseArgsINS0_6ad_augEEE"
 "_ZN5TMBad6global8CompleteINS_5Expm1EE9decrementERSt4pairIjjE"
 "_ZN5TMBad6global8CompleteINS_5Expm1EE9incrementERSt4pairIjjE"
 "_ZN5TMBad6global8CompleteINS_5Expm1EE9self_fuseEv"
 "_ZN5TMBad6global8CompleteINS_5Expm1EED0Ev"
 "_ZN5TMBad6global8CompleteINS_5Expm1EED1Ev"
 "_ZN5TMBad6global8CompleteINS_5ExpOpEE10deallocateEv"
 "_ZN5TMBad6global8CompleteINS_5ExpOpEE10identifierEv"
 "_ZN5TMBad6global8CompleteINS_5ExpOpEE10incompleteEv"
 "_ZN5TMBad6global8CompleteINS_5ExpOpEE10input_sizeEv"
 "_ZN5TMBad6global8CompleteINS_5ExpOpEE10other_fuseEPNS0_12OperatorPureE"
 "_ZN5TMBad6global8CompleteINS_5ExpOpEE11output_sizeEv"
 "_ZN5TMBad6global8CompleteINS_5ExpOpEE12dependenciesERNS_4ArgsIvEERNS_12DependenciesE"
 "_ZN5TMBad6global8CompleteINS_5ExpOpEE12forward_incrERNS_11ForwardArgsIbEE"
 "_ZN5TMBad6global8CompleteINS_5ExpOpEE12forward_incrERNS_11ForwardArgsIdEE"
 "_ZN5TMBad6global8CompleteINS_5ExpOpEE12forward_incrERNS_11ForwardArgsINS_6WriterEEE"
 "_ZN5TMBad6global8CompleteINS_5ExpOpEE12forward_incrERNS_11ForwardArgsINS0_6ad_augEEE"
 "_ZN5TMBad6global8CompleteINS_5ExpOpEE12reverse_decrERNS_11ReverseArgsIbEE"
 "_ZN5TMBad6global8CompleteINS_5ExpOpEE12reverse_decrERNS_11ReverseArgsIdEE"
 "_ZN5TMBad6global8CompleteINS_5ExpOpEE12reverse_decrERNS_11ReverseArgsINS_6WriterEEE"
 "_ZN5TMBad6global8CompleteINS_5ExpOpEE12reverse_decrERNS_11ReverseArgsINS0_6ad_augEEE"
 "_ZN5TMBad6global8CompleteINS_5ExpOpEE13operator_dataEv"
 "_ZN5TMBad6global8CompleteINS_5ExpOpEE23forward_incr_mark_denseERNS_11ForwardArgsIbEE"
 "_ZN5TMBad6global8CompleteINS_5ExpOpEE4copyEv"
 "_ZN5TMBad6global8CompleteINS_5ExpOpEE4infoEv"
 "_ZN5TMBad6global8CompleteINS_5ExpOpEE5printENS0_12print_configE"
 "_ZN5TMBad6global8CompleteINS_5ExpOpEE7forwardERNS_11ForwardArgsIbEE"
 "_ZN5TMBad6global8CompleteINS_5ExpOpEE7forwardERNS_11ForwardArgsIdEE"
 "_ZN5TMBad6global8CompleteINS_5ExpOpEE7forwardERNS_11ForwardArgsINS_6WriterEEE"
 "_ZN5TMBad6global8CompleteINS_5ExpOpEE7forwardERNS_11ForwardArgsINS0_6ad_augEEE"
 "_ZN5TMBad6global8CompleteINS_5ExpOpEE7op_nameEv"
 "_ZN5TMBad6global8CompleteINS_5ExpOpEE7reverseERNS_11ReverseArgsIbEE"
 "_ZN5TMBad6global8CompleteINS_5ExpOpEE7reverseERNS_11ReverseArgsIdEE"
 "_ZN5TMBad6global8CompleteINS_5ExpOpEE7reverseERNS_11ReverseArgsINS_6WriterEEE"
 "_ZN5TMBad6global8CompleteINS_5ExpOpEE7reverseERNS_11ReverseArgsINS0_6ad_augEEE"
 "_ZN5TMBad6global8CompleteINS_5ExpOpEE9decrementERSt4pairIjjE"
 "_ZN5TMBad6global8CompleteINS_5ExpOpEE9incrementERSt4pairIjjE"
 "_ZN5TMBad6global8CompleteINS_5ExpOpEE9self_fuseEv"
 "_ZN5TMBad6global8CompleteINS_5ExpOpEED0Ev"
 "_ZN5TMBad6global8CompleteINS_5ExpOpEED1Ev"
 "_ZN5TMBad6global8CompleteINS_5Ge0OpEE10deallocateEv"
 "_ZN5TMBad6global8CompleteINS_5Ge0OpEE10identifierEv"
 "_ZN5TMBad6global8CompleteINS_5Ge0OpEE10incompleteEv"
 "_ZN5TMBad6global8CompleteINS_5Ge0OpEE10input_sizeEv"
 "_ZN5TMBad6global8CompleteINS_5Ge0OpEE10other_fuseEPNS0_12OperatorPureE"
 "_ZN5TMBad6global8CompleteINS_5Ge0OpEE11output_sizeEv"
 "_ZN5TMBad6global8CompleteINS_5Ge0OpEE12dependenciesERNS_4ArgsIvEERNS_12DependenciesE"
 "_ZN5TMBad6global8CompleteINS_5Ge0OpEE12forward_incrERNS_11ForwardArgsIbEE"
 "_ZN5TMBad6global8CompleteINS_5Ge0OpEE12forward_incrERNS_11ForwardArgsIdEE"
 "_ZN5TMBad6global8CompleteINS_5Ge0OpEE12forward_incrERNS_11ForwardArgsINS_6WriterEEE"
 "_ZN5TMBad6global8CompleteINS_5Ge0OpEE12forward_incrERNS_11ForwardArgsINS0_6ad_augEEE"
 "_ZN5TMBad6global8CompleteINS_5Ge0OpEE12reverse_decrERNS_11ReverseArgsIbEE"
 "_ZN5TMBad6global8CompleteINS_5Ge0OpEE12reverse_decrERNS_11ReverseArgsIdEE"
 "_ZN5TMBad6global8CompleteINS_5Ge0OpEE12reverse_decrERNS_11ReverseArgsINS_6WriterEEE"
 "_ZN5TMBad6global8CompleteINS_5Ge0OpEE12reverse_decrERNS_11ReverseArgsINS0_6ad_augEEE"
 "_ZN5TMBad6global8CompleteINS_5Ge0OpEE13operator_dataEv"
 "_ZN5TMBad6global8CompleteINS_5Ge0OpEE23forward_incr_mark_denseERNS_11ForwardArgsIbEE"
 "_ZN5TMBad6global8CompleteINS_5Ge0OpEE4copyEv"
 "_ZN5TMBad6global8CompleteINS_5Ge0OpEE4infoEv"
 "_ZN5TMBad6global8CompleteINS_5Ge0OpEE5printENS0_12print_configE"
 "_ZN5TMBad6global8CompleteINS_5Ge0OpEE7forwardERNS_11ForwardArgsIbEE"
 "_ZN5TMBad6global8CompleteINS_5Ge0OpEE7forwardERNS_11ForwardArgsIdEE"
 "_ZN5TMBad6global8CompleteINS_5Ge0OpEE7forwardERNS_11ForwardArgsINS_6WriterEEE"
 "_ZN5TMBad6global8CompleteINS_5Ge0OpEE7forwardERNS_11ForwardArgsINS0_6ad_augEEE"
 "_ZN5TMBad6global8CompleteINS_5Ge0OpEE7op_nameEv"
 "_ZN5TMBad6global8CompleteINS_5Ge0OpEE7reverseERNS_11ReverseArgsIbEE"
 "_ZN5TMBad6global8CompleteINS_5Ge0OpEE7reverseERNS_11ReverseArgsIdEE"
 "_ZN5TMBad6global8CompleteINS_5Ge0OpEE7reverseERNS_11ReverseArgsINS_6WriterEEE"
 "_ZN5TMBad6global8CompleteINS_5Ge0OpEE7reverseERNS_11ReverseArgsINS0_6ad_augEEE"
 "_ZN5TMBad6global8CompleteINS_5Ge0OpEE9decrementERSt4pairIjjE"
 "_ZN5TMBad6global8CompleteINS_5Ge0OpEE9incrementERSt4pairIjjE"
 "_ZN5TMBad6global8CompleteINS_5Ge0OpEE9self_fuseEv"
 "_ZN5TMBad6global8CompleteINS_5Ge0OpEED0Ev"
 "_ZN5TMBad6global8CompleteINS_5Ge0OpEED1Ev"
 "_ZN5TMBad6global8CompleteINS_5Log1pEE10deallocateEv"
 "_ZN5TMBad6global8CompleteINS_5Log1pEE10identifierEv"
 "_ZN5TMBad6global8CompleteINS_5Log1pEE10incompleteEv"
 "_ZN5TMBad6global8CompleteINS_5Log1pEE10input_sizeEv"
 "_ZN5TMBad6global8CompleteINS_5Log1pEE10other_fuseEPNS0_12OperatorPureE"
 "_ZN5TMBad6global8CompleteINS_5Log1pEE11output_sizeEv"
 "_ZN5TMBad6global8CompleteINS_5Log1pEE12dependenciesERNS_4ArgsIvEERNS_12DependenciesE"
 "_ZN5TMBad6global8CompleteINS_5Log1pEE12forward_incrERNS_11ForwardArgsIbEE"
 "_ZN5TMBad6global8CompleteINS_5Log1pEE12forward_incrERNS_11ForwardArgsIdEE"
 "_ZN5TMBad6global8CompleteINS_5Log1pEE12forward_incrERNS_11ForwardArgsINS_6WriterEEE"
 "_ZN5TMBad6global8CompleteINS_5Log1pEE12forward_incrERNS_11ForwardArgsINS0_6ad_augEEE"
 "_ZN5TMBad6global8CompleteINS_5Log1pEE12reverse_decrERNS_11ReverseArgsIbEE"
 "_ZN5TMBad6global8CompleteINS_5Log1pEE12reverse_decrERNS_11ReverseArgsIdEE"
 "_ZN5TMBad6global8CompleteINS_5Log1pEE12reverse_decrERNS_11ReverseArgsINS_6WriterEEE"
 "_ZN5TMBad6global8CompleteINS_5Log1pEE12reverse_decrERNS_11ReverseArgsINS0_6ad_augEEE"
 "_ZN5TMBad6global8CompleteINS_5Log1pEE13operator_dataEv"
 "_ZN5TMBad6global8CompleteINS_5Log1pEE23forward_incr_mark_denseERNS_11ForwardArgsIbEE"
 "_ZN5TMBad6global8CompleteINS_5Log1pEE4copyEv"
 "_ZN5TMBad6global8CompleteINS_5Log1pEE4infoEv"
 "_ZN5TMBad6global8CompleteINS_5Log1pEE5printENS0_12print_configE"
 "_ZN5TMBad6global8CompleteINS_5Log1pEE7forwardERNS_11ForwardArgsIbEE"
 "_ZN5TMBad6global8CompleteINS_5Log1pEE7forwardERNS_11ForwardArgsIdEE"
 "_ZN5TMBad6global8CompleteINS_5Log1pEE7forwardERNS_11ForwardArgsINS_6WriterEEE"
 "_ZN5TMBad6global8CompleteINS_5Log1pEE7forwardERNS_11ForwardArgsINS0_6ad_augEEE"
 "_ZN5TMBad6global8CompleteINS_5Log1pEE7op_nameEv"
 "_ZN5TMBad6global8CompleteINS_5Log1pEE7reverseERNS_11ReverseArgsIbEE"
 "_ZN5TMBad6global8CompleteINS_5Log1pEE7reverseERNS_11ReverseArgsIdEE"
 "_ZN5TMBad6global8CompleteINS_5Log1pEE7reverseERNS_11ReverseArgsINS_6WriterEEE"
 "_ZN5TMBad6global8CompleteINS_5Log1pEE7reverseERNS_11ReverseArgsINS0_6ad_augEEE"
 "_ZN5TMBad6global8CompleteINS_5Log1pEE9decrementERSt4pairIjjE"
 "_ZN5TMBad6global8CompleteINS_5Log1pEE9incrementERSt4pairIjjE"
 "_ZN5TMBad6global8CompleteINS_5Log1pEE9self_fuseEv"
 "_ZN5TMBad6global8CompleteINS_5Log1pEED0Ev"
 "_ZN5TMBad6global8CompleteINS_5Log1pEED1Ev"
 "_ZN5TMBad6global8CompleteINS_5LogOpEE10deallocateEv"
 "_ZN5TMBad6global8CompleteINS_5LogOpEE10identifierEv"
 "_ZN5TMBad6global8CompleteINS_5LogOpEE10incompleteEv"
 "_ZN5TMBad6global8CompleteINS_5LogOpEE10input_sizeEv"
 "_ZN5TMBad6global8CompleteINS_5LogOpEE10other_fuseEPNS0_12OperatorPureE"
 "_ZN5TMBad6global8CompleteINS_5LogOpEE11output_sizeEv"
 "_ZN5TMBad6global8CompleteINS_5LogOpEE12dependenciesERNS_4ArgsIvEERNS_12DependenciesE"
 "_ZN5TMBad6global8CompleteINS_5LogOpEE12forward_incrERNS_11ForwardArgsIbEE"
 "_ZN5TMBad6global8CompleteINS_5LogOpEE12forward_incrERNS_11ForwardArgsIdEE"
 "_ZN5TMBad6global8CompleteINS_5LogOpEE12forward_incrERNS_11ForwardArgsINS_6WriterEEE"
 "_ZN5TMBad6global8CompleteINS_5LogOpEE12forward_incrERNS_11ForwardArgsINS0_6ad_augEEE"
 "_ZN5TMBad6global8CompleteINS_5LogOpEE12reverse_decrERNS_11ReverseArgsIbEE"
 "_ZN5TMBad6global8CompleteINS_5LogOpEE12reverse_decrERNS_11ReverseArgsIdEE"
 "_ZN5TMBad6global8CompleteINS_5LogOpEE12reverse_decrERNS_11ReverseArgsINS_6WriterEEE"
 "_ZN5TMBad6global8CompleteINS_5LogOpEE12reverse_decrERNS_11ReverseArgsINS0_6ad_augEEE"
 "_ZN5TMBad6global8CompleteINS_5LogOpEE13operator_dataEv"
 "_ZN5TMBad6global8CompleteINS_5LogOpEE23forward_incr_mark_denseERNS_11ForwardArgsIbEE"
 "_ZN5TMBad6global8CompleteINS_5LogOpEE4copyEv"
 "_ZN5TMBad6global8CompleteINS_5LogOpEE4infoEv"
 "_ZN5TMBad6global8CompleteINS_5LogOpEE5printENS0_12print_configE"
 "_ZN5TMBad6global8CompleteINS_5LogOpEE7forwardERNS_11ForwardArgsIbEE"
 "_ZN5TMBad6global8CompleteINS_5LogOpEE7forwardERNS_11ForwardArgsIdEE"
 "_ZN5TMBad6global8CompleteINS_5LogOpEE7forwardERNS_11ForwardArgsINS_6WriterEEE"
 "_ZN5TMBad6global8CompleteINS_5LogOpEE7forwardERNS_11ForwardArgsINS0_6ad_augEEE"
 "_ZN5TMBad6global8CompleteINS_5LogOpEE7op_nameEv"
 "_ZN5TMBad6global8CompleteINS_5LogOpEE7reverseERNS_11ReverseArgsIbEE"
 "_ZN5TMBad6global8CompleteINS_5LogOpEE7reverseERNS_11ReverseArgsIdEE"
 "_ZN5TMBad6global8CompleteINS_5LogOpEE7reverseERNS_11ReverseArgsINS_6WriterEEE"
 "_ZN5TMBad6global8CompleteINS_5LogOpEE7reverseERNS_11ReverseArgsINS0_6ad_augEEE"
 "_ZN5TMBad6global8CompleteINS_5LogOpEE9decrementERSt4pairIjjE"
 "_ZN5TMBad6global8CompleteINS_5LogOpEE9incrementERSt4pairIjjE"
 "_ZN5TMBad6global8CompleteINS_5LogOpEE9self_fuseEv"
 "_ZN5TMBad6global8CompleteINS_5LogOpEED0Ev"
 "_ZN5TMBad6global8CompleteINS_5LogOpEED1Ev"
 "_ZN5TMBad6global8CompleteINS_5Lt0OpEE10deallocateEv"
 "_ZN5TMBad6global8CompleteINS_5Lt0OpEE10identifierEv"
 "_ZN5TMBad6global8CompleteINS_5Lt0OpEE10incompleteEv"
 "_ZN5TMBad6global8CompleteINS_5Lt0OpEE10input_sizeEv"
 "_ZN5TMBad6global8CompleteINS_5Lt0OpEE10other_fuseEPNS0_12OperatorPureE"
 "_ZN5TMBad6global8CompleteINS_5Lt0OpEE11output_sizeEv"
 "_ZN5TMBad6global8CompleteINS_5Lt0OpEE12dependenciesERNS_4ArgsIvEERNS_12DependenciesE"
 "_ZN5TMBad6global8CompleteINS_5Lt0OpEE12forward_incrERNS_11ForwardArgsIbEE"
 "_ZN5TMBad6global8CompleteINS_5Lt0OpEE12forward_incrERNS_11ForwardArgsIdEE"
 "_ZN5TMBad6global8CompleteINS_5Lt0OpEE12forward_incrERNS_11ForwardArgsINS_6WriterEEE"
 "_ZN5TMBad6global8CompleteINS_5Lt0OpEE12forward_incrERNS_11ForwardArgsINS0_6ad_augEEE"
 "_ZN5TMBad6global8CompleteINS_5Lt0OpEE12reverse_decrERNS_11ReverseArgsIbEE"
 "_ZN5TMBad6global8CompleteINS_5Lt0OpEE12reverse_decrERNS_11ReverseArgsIdEE"
 "_ZN5TMBad6global8CompleteINS_5Lt0OpEE12reverse_decrERNS_11ReverseArgsINS_6WriterEEE"
 "_ZN5TMBad6global8CompleteINS_5Lt0OpEE12reverse_decrERNS_11ReverseArgsINS0_6ad_augEEE"
 "_ZN5TMBad6global8CompleteINS_5Lt0OpEE13operator_dataEv"
 "_ZN5TMBad6global8CompleteINS_5Lt0OpEE23forward_incr_mark_denseERNS_11ForwardArgsIbEE"
 "_ZN5TMBad6global8CompleteINS_5Lt0OpEE4copyEv"
 "_ZN5TMBad6global8CompleteINS_5Lt0OpEE4infoEv"
 "_ZN5TMBad6global8CompleteINS_5Lt0OpEE5printENS0_12print_configE"
 "_ZN5TMBad6global8CompleteINS_5Lt0OpEE7forwardERNS_11ForwardArgsIbEE"
 "_ZN5TMBad6global8CompleteINS_5Lt0OpEE7forwardERNS_11ForwardArgsIdEE"
 "_ZN5TMBad6global8CompleteINS_5Lt0OpEE7forwardERNS_11ForwardArgsINS_6WriterEEE"
 "_ZN5TMBad6global8CompleteINS_5Lt0OpEE7forwardERNS_11ForwardArgsINS0_6ad_augEEE"
 "_ZN5TMBad6global8CompleteINS_5Lt0OpEE7op_nameEv"
 "_ZN5TMBad6global8CompleteINS_5Lt0OpEE7reverseERNS_11ReverseArgsIbEE"
 "_ZN5TMBad6global8CompleteINS_5Lt0OpEE7reverseERNS_11ReverseArgsIdEE"
 "_ZN5TMBad6global8CompleteINS_5Lt0OpEE7reverseERNS_11ReverseArgsINS_6WriterEEE"
 "_ZN5TMBad6global8CompleteINS_5Lt0OpEE7reverseERNS_11ReverseArgsINS0_6ad_augEEE"
 "_ZN5TMBad6global8CompleteINS_5Lt0OpEE9decrementERSt4pairIjjE"
 "_ZN5TMBad6global8CompleteINS_5Lt0OpEE9incrementERSt4pairIjjE"
 "_ZN5TMBad6global8CompleteINS_5Lt0OpEE9self_fuseEv"
 "_ZN5TMBad6global8CompleteINS_5Lt0OpEED0Ev"
 "_ZN5TMBad6global8CompleteINS_5Lt0OpEED1Ev"
 "_ZN5TMBad6global8CompleteINS_5MaxOpEE10deallocateEv"
 "_ZN5TMBad6global8CompleteINS_5MaxOpEE10identifierEv"
 "_ZN5TMBad6global8CompleteINS_5MaxOpEE10incompleteEv"
 "_ZN5TMBad6global8CompleteINS_5MaxOpEE10input_sizeEv"
 "_ZN5TMBad6global8CompleteINS_5MaxOpEE10other_fuseEPNS0_12OperatorPureE"
 "_ZN5TMBad6global8CompleteINS_5MaxOpEE11output_sizeEv"
 "_ZN5TMBad6global8CompleteINS_5MaxOpEE12dependenciesERNS_4ArgsIvEERNS_12DependenciesE"
 "_ZN5TMBad6global8CompleteINS_5MaxOpEE12forward_incrERNS_11ForwardArgsIbEE"
 "_ZN5TMBad6global8CompleteINS_5MaxOpEE12forward_incrERNS_11ForwardArgsIdEE"
 "_ZN5TMBad6global8CompleteINS_5MaxOpEE12forward_incrERNS_11ForwardArgsINS_6WriterEEE"
 "_ZN5TMBad6global8CompleteINS_5MaxOpEE12forward_incrERNS_11ForwardArgsINS0_6ad_augEEE"
 "_ZN5TMBad6global8CompleteINS_5MaxOpEE12reverse_decrERNS_11ReverseArgsIbEE"
 "_ZN5TMBad6global8CompleteINS_5MaxOpEE12reverse_decrERNS_11ReverseArgsIdEE"
 "_ZN5TMBad6global8CompleteINS_5MaxOpEE12reverse_decrERNS_11ReverseArgsINS_6WriterEEE"
 "_ZN5TMBad6global8CompleteINS_5MaxOpEE12reverse_decrERNS_11ReverseArgsINS0_6ad_augEEE"
 "_ZN5TMBad6global8CompleteINS_5MaxOpEE13operator_dataEv"
 "_ZN5TMBad6global8CompleteINS_5MaxOpEE23forward_incr_mark_denseERNS_11ForwardArgsIbEE"
 "_ZN5TMBad6global8CompleteINS_5MaxOpEE4copyEv"
 "_ZN5TMBad6global8CompleteINS_5MaxOpEE4infoEv"
 "_ZN5TMBad6global8CompleteINS_5MaxOpEE5printENS0_12print_configE"
 "_ZN5TMBad6global8CompleteINS_5MaxOpEE7forwardERNS_11ForwardArgsIbEE"
 "_ZN5TMBad6global8CompleteINS_5MaxOpEE7forwardERNS_11ForwardArgsIdEE"
 "_ZN5TMBad6global8CompleteINS_5MaxOpEE7forwardERNS_11ForwardArgsINS_6WriterEEE"
 "_ZN5TMBad6global8CompleteINS_5MaxOpEE7forwardERNS_11ForwardArgsINS0_6ad_augEEE"
 "_ZN5TMBad6global8CompleteINS_5MaxOpEE7op_nameEv"
 "_ZN5TMBad6global8CompleteINS_5MaxOpEE7reverseERNS_11ReverseArgsIbEE"
 "_ZN5TMBad6global8CompleteINS_5MaxOpEE7reverseERNS_11ReverseArgsIdEE"
 "_ZN5TMBad6global8CompleteINS_5MaxOpEE7reverseERNS_11ReverseArgsINS_6WriterEEE"
 "_ZN5TMBad6global8CompleteINS_5MaxOpEE7reverseERNS_11ReverseArgsINS0_6ad_augEEE"
 "_ZN5TMBad6global8CompleteINS_5MaxOpEE9decrementERSt4pairIjjE"
 "_ZN5TMBad6global8CompleteINS_5MaxOpEE9incrementERSt4pairIjjE"
 "_ZN5TMBad6global8CompleteINS_5MaxOpEE9self_fuseEv"
 "_ZN5TMBad6global8CompleteINS_5MaxOpEED0Ev"
 "_ZN5TMBad6global8CompleteINS_5MaxOpEED1Ev"
 "_ZN5TMBad6global8CompleteINS_5MinOpEE10deallocateEv"
 "_ZN5TMBad6global8CompleteINS_5MinOpEE10identifierEv"
 "_ZN5TMBad6global8CompleteINS_5MinOpEE10incompleteEv"
 "_ZN5TMBad6global8CompleteINS_5MinOpEE10input_sizeEv"
 "_ZN5TMBad6global8CompleteINS_5MinOpEE10other_fuseEPNS0_12OperatorPureE"
 "_ZN5TMBad6global8CompleteINS_5MinOpEE11output_sizeEv"
 "_ZN5TMBad6global8CompleteINS_5MinOpEE12dependenciesERNS_4ArgsIvEERNS_12DependenciesE"
 "_ZN5TMBad6global8CompleteINS_5MinOpEE12forward_incrERNS_11ForwardArgsIbEE"
 "_ZN5TMBad6global8CompleteINS_5MinOpEE12forward_incrERNS_11ForwardArgsIdEE"
 "_ZN5TMBad6global8CompleteINS_5MinOpEE12forward_incrERNS_11ForwardArgsINS_6WriterEEE"
 "_ZN5TMBad6global8CompleteINS_5MinOpEE12forward_incrERNS_11ForwardArgsINS0_6ad_augEEE"
 "_ZN5TMBad6global8CompleteINS_5MinOpEE12reverse_decrERNS_11ReverseArgsIbEE"
 "_ZN5TMBad6global8CompleteINS_5MinOpEE12reverse_decrERNS_11ReverseArgsIdEE"
 "_ZN5TMBad6global8CompleteINS_5MinOpEE12reverse_decrERNS_11ReverseArgsINS_6WriterEEE"
 "_ZN5TMBad6global8CompleteINS_5MinOpEE12reverse_decrERNS_11ReverseArgsINS0_6ad_augEEE"
 "_ZN5TMBad6global8CompleteINS_5MinOpEE13operator_dataEv"
 "_ZN5TMBad6global8CompleteINS_5MinOpEE23forward_incr_mark_denseERNS_11ForwardArgsIbEE"
 "_ZN5TMBad6global8CompleteINS_5MinOpEE4copyEv"
 "_ZN5TMBad6global8CompleteINS_5MinOpEE4infoEv"
 "_ZN5TMBad6global8CompleteINS_5MinOpEE5printENS0_12print_configE"
 "_ZN5TMBad6global8CompleteINS_5MinOpEE7forwardERNS_11ForwardArgsIbEE"
 "_ZN5TMBad6global8CompleteINS_5MinOpEE7forwardERNS_11ForwardArgsIdEE"
 "_ZN5TMBad6global8CompleteINS_5MinOpEE7forwardERNS_11ForwardArgsINS_6WriterEEE"
 "_ZN5TMBad6global8CompleteINS_5MinOpEE7forwardERNS_11ForwardArgsINS0_6ad_augEEE"
 "_ZN5TMBad6global8CompleteINS_5MinOpEE7op_nameEv"
 "_ZN5TMBad6global8CompleteINS_5MinOpEE7reverseERNS_11ReverseArgsIbEE"
 "_ZN5TMBad6global8CompleteINS_5MinOpEE7reverseERNS_11ReverseArgsIdEE"
 "_ZN5TMBad6global8CompleteINS_5MinOpEE7reverseERNS_11ReverseArgsINS_6WriterEEE"
 "_ZN5TMBad6global8CompleteINS_5MinOpEE7reverseERNS_11ReverseArgsINS0_6ad_augEEE"
 "_ZN5TMBad6global8CompleteINS_5MinOpEE9decrementERSt4pairIjjE"
 "_ZN5TMBad6global8CompleteINS_5MinOpEE9incrementERSt4pairIjjE"
 "_ZN5TMBad6global8CompleteINS_5MinOpEE9self_fuseEv"
 "_ZN5TMBad6global8CompleteINS_5MinOpEED0Ev"
 "_ZN5TMBad6global8CompleteINS_5MinOpEED1Ev"
 "_ZN5TMBad6global8CompleteINS_5PowOpEE10deallocateEv"
 "_ZN5TMBad6global8CompleteINS_5PowOpEE10identifierEv"
 "_ZN5TMBad6global8CompleteINS_5PowOpEE10incompleteEv"
 "_ZN5TMBad6global8CompleteINS_5PowOpEE10input_sizeEv"
 "_ZN5TMBad6global8CompleteINS_5PowOpEE10other_fuseEPNS0_12OperatorPureE"
 "_ZN5TMBad6global8CompleteINS_5PowOpEE11output_sizeEv"
 "_ZN5TMBad6global8CompleteINS_5PowOpEE12dependenciesERNS_4ArgsIvEERNS_12DependenciesE"
 "_ZN5TMBad6global8CompleteINS_5PowOpEE12forward_incrERNS_11ForwardArgsIbEE"
 "_ZN5TMBad6global8CompleteINS_5PowOpEE12forward_incrERNS_11ForwardArgsIdEE"
 "_ZN5TMBad6global8CompleteINS_5PowOpEE12forward_incrERNS_11ForwardArgsINS_6WriterEEE"
 "_ZN5TMBad6global8CompleteINS_5PowOpEE12forward_incrERNS_11ForwardArgsINS0_6ad_augEEE"
 "_ZN5TMBad6global8CompleteINS_5PowOpEE12reverse_decrERNS_11ReverseArgsIbEE"
 "_ZN5TMBad6global8CompleteINS_5PowOpEE12reverse_decrERNS_11ReverseArgsIdEE"
 "_ZN5TMBad6global8CompleteINS_5PowOpEE12reverse_decrERNS_11ReverseArgsINS_6WriterEEE"
 "_ZN5TMBad6global8CompleteINS_5PowOpEE12reverse_decrERNS_11ReverseArgsINS0_6ad_augEEE"
 "_ZN5TMBad6global8CompleteINS_5PowOpEE13operator_dataEv"
 "_ZN5TMBad6global8CompleteINS_5PowOpEE23forward_incr_mark_denseERNS_11ForwardArgsIbEE"
 "_ZN5TMBad6global8CompleteINS_5PowOpEE4copyEv"
 "_ZN5TMBad6global8CompleteINS_5PowOpEE4infoEv"
 "_ZN5TMBad6global8CompleteINS_5PowOpEE5printENS0_12print_configE"
 "_ZN5TMBad6global8CompleteINS_5PowOpEE7forwardERNS_11ForwardArgsIbEE"
 "_ZN5TMBad6global8CompleteINS_5PowOpEE7forwardERNS_11ForwardArgsIdEE"
 "_ZN5TMBad6global8CompleteINS_5PowOpEE7forwardERNS_11ForwardArgsINS_6WriterEEE"
 "_ZN5TMBad6global8CompleteINS_5PowOpEE7forwardERNS_11ForwardArgsINS0_6ad_augEEE"
 "_ZN5TMBad6global8CompleteINS_5PowOpEE7op_nameEv"
 "_ZN5TMBad6global8CompleteINS_5PowOpEE7reverseERNS_11ReverseArgsIbEE"
 "_ZN5TMBad6global8CompleteINS_5PowOpEE7reverseERNS_11ReverseArgsIdEE"
 "_ZN5TMBad6global8CompleteINS_5PowOpEE7reverseERNS_11ReverseArgsINS_6WriterEEE"
 "_ZN5TMBad6global8CompleteINS_5PowOpEE7reverseERNS_11ReverseArgsINS0_6ad_augEEE"
 "_ZN5TMBad6global8CompleteINS_5PowOpEE9decrementERSt4pairIjjE"
 "_ZN5TMBad6global8CompleteINS_5PowOpEE9incrementERSt4pairIjjE"
 "_ZN5TMBad6global8CompleteINS_5PowOpEE9self_fuseEv"
 "_ZN5TMBad6global8CompleteINS_5PowOpEED0Ev"
 "_ZN5TMBad6global8CompleteINS_5PowOpEED1Ev"
 "_ZN5TMBad6global8CompleteINS_5SinOpEE10deallocateEv"
 "_ZN5TMBad6global8CompleteINS_5SinOpEE10identifierEv"
 "_ZN5TMBad6global8CompleteINS_5SinOpEE10incompleteEv"
 "_ZN5TMBad6global8CompleteINS_5SinOpEE10input_sizeEv"
 "_ZN5TMBad6global8CompleteINS_5SinOpEE10other_fuseEPNS0_12OperatorPureE"
 "_ZN5TMBad6global8CompleteINS_5SinOpEE11output_sizeEv"
 "_ZN5TMBad6global8CompleteINS_5SinOpEE12dependenciesERNS_4ArgsIvEERNS_12DependenciesE"
 "_ZN5TMBad6global8CompleteINS_5SinOpEE12forward_incrERNS_11ForwardArgsIbEE"
 "_ZN5TMBad6global8CompleteINS_5SinOpEE12forward_incrERNS_11ForwardArgsIdEE"
 "_ZN5TMBad6global8CompleteINS_5SinOpEE12forward_incrERNS_11ForwardArgsINS_6WriterEEE"
 "_ZN5TMBad6global8CompleteINS_5SinOpEE12forward_incrERNS_11ForwardArgsINS0_6ad_augEEE"
 "_ZN5TMBad6global8CompleteINS_5SinOpEE12reverse_decrERNS_11ReverseArgsIbEE"
 "_ZN5TMBad6global8CompleteINS_5SinOpEE12reverse_decrERNS_11ReverseArgsIdEE"
 "_ZN5TMBad6global8CompleteINS_5SinOpEE12reverse_decrERNS_11ReverseArgsINS_6WriterEEE"
 "_ZN5TMBad6global8CompleteINS_5SinOpEE12reverse_decrERNS_11ReverseArgsINS0_6ad_augEEE"
 "_ZN5TMBad6global8CompleteINS_5SinOpEE13operator_dataEv"
 "_ZN5TMBad6global8CompleteINS_5SinOpEE23forward_incr_mark_denseERNS_11ForwardArgsIbEE"
 "_ZN5TMBad6global8CompleteINS_5SinOpEE4copyEv"
 "_ZN5TMBad6global8CompleteINS_5SinOpEE4infoEv"
 "_ZN5TMBad6global8CompleteINS_5SinOpEE5printENS0_12print_configE"
 "_ZN5TMBad6global8CompleteINS_5SinOpEE7forwardERNS_11ForwardArgsIbEE"
 "_ZN5TMBad6global8CompleteINS_5SinOpEE7forwardERNS_11ForwardArgsIdEE"
 "_ZN5TMBad6global8CompleteINS_5SinOpEE7forwardERNS_11ForwardArgsINS_6WriterEEE"
 "_ZN5TMBad6global8CompleteINS_5SinOpEE7forwardERNS_11ForwardArgsINS0_6ad_augEEE"
 "_ZN5TMBad6global8CompleteINS_5SinOpEE7op_nameEv"
 "_ZN5TMBad6global8CompleteINS_5SinOpEE7reverseERNS_11ReverseArgsIbEE"
 "_ZN5TMBad6global8CompleteINS_5SinOpEE7reverseERNS_11ReverseArgsIdEE"
 "_ZN5TMBad6global8CompleteINS_5SinOpEE7reverseERNS_11ReverseArgsINS_6WriterEEE"
 "_ZN5TMBad6global8CompleteINS_5SinOpEE7reverseERNS_11ReverseArgsINS0_6ad_augEEE"
 "_ZN5TMBad6global8CompleteINS_5SinOpEE9decrementERSt4pairIjjE"
 "_ZN5TMBad6global8CompleteINS_5SinOpEE9incrementERSt4pairIjjE"
 "_ZN5TMBad6global8CompleteINS_5SinOpEE9self_fuseEv"
 "_ZN5TMBad6global8CompleteINS_5SinOpEED0Ev"
 "_ZN5TMBad6global8CompleteINS_5SinOpEED1Ev"
 "_ZN5TMBad6global8CompleteINS_5SumOpEE10deallocateEv"
 "_ZN5TMBad6global8CompleteINS_5SumOpEE10identifierEv"
 "_ZN5TMBad6global8CompleteINS_5SumOpEE10incompleteEv"
 "_ZN5TMBad6global8CompleteINS_5SumOpEE10input_sizeEv"
 "_ZN5TMBad6global8CompleteINS_5SumOpEE10other_fuseEPNS0_12OperatorPureE"
 "_ZN5TMBad6global8CompleteINS_5SumOpEE11output_sizeEv"
 "_ZN5TMBad6global8CompleteINS_5SumOpEE12dependenciesERNS_4ArgsIvEERNS_12DependenciesE"
 "_ZN5TMBad6global8CompleteINS_5SumOpEE12forward_incrERNS_11ForwardArgsIbEE"
 "_ZN5TMBad6global8CompleteINS_5SumOpEE12forward_incrERNS_11ForwardArgsIdEE"
 "_ZN5TMBad6global8CompleteINS_5SumOpEE12forward_incrERNS_11ForwardArgsINS_6WriterEEE"
 "_ZN5TMBad6global8CompleteINS_5SumOpEE12forward_incrERNS_11ForwardArgsINS0_6ad_augEEE"
 "_ZN5TMBad6global8CompleteINS_5SumOpEE12reverse_decrERNS_11ReverseArgsIbEE"
 "_ZN5TMBad6global8CompleteINS_5SumOpEE12reverse_decrERNS_11ReverseArgsIdEE"
 "_ZN5TMBad6global8CompleteINS_5SumOpEE12reverse_decrERNS_11ReverseArgsINS_6WriterEEE"
 "_ZN5TMBad6global8CompleteINS_5SumOpEE12reverse_decrERNS_11ReverseArgsINS0_6ad_augEEE"
 "_ZN5TMBad6global8CompleteINS_5SumOpEE13operator_dataEv"
 "_ZN5TMBad6global8CompleteINS_5SumOpEE19forward_replay_copyERNS_11ForwardArgsINS0_6ad_augEEE"
 "_ZN5TMBad6global8CompleteINS_5SumOpEE23forward_incr_mark_denseERNS_11ForwardArgsIbEE"
 "_ZN5TMBad6global8CompleteINS_5SumOpEE4copyEv"
 "_ZN5TMBad6global8CompleteINS_5SumOpEE4infoEv"
 "_ZN5TMBad6global8CompleteINS_5SumOpEE5printENS0_12print_configE"
 "_ZN5TMBad6global8CompleteINS_5SumOpEE7forwardERNS_11ForwardArgsIbEE"
 "_ZN5TMBad6global8CompleteINS_5SumOpEE7forwardERNS_11ForwardArgsIdEE"
 "_ZN5TMBad6global8CompleteINS_5SumOpEE7forwardERNS_11ForwardArgsINS_6WriterEEE"
 "_ZN5TMBad6global8CompleteINS_5SumOpEE7forwardERNS_11ForwardArgsINS0_6ad_augEEE"
 "_ZN5TMBad6global8CompleteINS_5SumOpEE7op_nameEv"
 "_ZN5TMBad6global8CompleteINS_5SumOpEE7reverseERNS_11ReverseArgsIbEE"
 "_ZN5TMBad6global8CompleteINS_5SumOpEE7reverseERNS_11ReverseArgsIdEE"
 "_ZN5TMBad6global8CompleteINS_5SumOpEE7reverseERNS_11ReverseArgsINS_6WriterEEE"
 "_ZN5TMBad6global8CompleteINS_5SumOpEE7reverseERNS_11ReverseArgsINS0_6ad_augEEE"
 "_ZN5TMBad6global8CompleteINS_5SumOpEE9decrementERSt4pairIjjE"
 "_ZN5TMBad6global8CompleteINS_5SumOpEE9incrementERSt4pairIjjE"
 "_ZN5TMBad6global8CompleteINS_5SumOpEE9self_fuseEv"
 "_ZN5TMBad6global8CompleteINS_5SumOpEEclINS_12ad_aug_indexEEESt6vectorIT_SaIS7_EERKS9_"
 "_ZN5TMBad6global8CompleteINS_5SumOpEED0Ev"
 "_ZN5TMBad6global8CompleteINS_5SumOpEED1Ev"
 "_ZN5TMBad6global8CompleteINS_5TanOpEE10deallocateEv"
 "_ZN5TMBad6global8CompleteINS_5TanOpEE10identifierEv"
 "_ZN5TMBad6global8CompleteINS_5TanOpEE10incompleteEv"
 "_ZN5TMBad6global8CompleteINS_5TanOpEE10input_sizeEv"
 "_ZN5TMBad6global8CompleteINS_5TanOpEE10other_fuseEPNS0_12OperatorPureE"
 "_ZN5TMBad6global8CompleteINS_5TanOpEE11output_sizeEv"
 "_ZN5TMBad6global8CompleteINS_5TanOpEE12dependenciesERNS_4ArgsIvEERNS_12DependenciesE"
 "_ZN5TMBad6global8CompleteINS_5TanOpEE12forward_incrERNS_11ForwardArgsIbEE"
 "_ZN5TMBad6global8CompleteINS_5TanOpEE12forward_incrERNS_11ForwardArgsIdEE"
 "_ZN5TMBad6global8CompleteINS_5TanOpEE12forward_incrERNS_11ForwardArgsINS_6WriterEEE"
 "_ZN5TMBad6global8CompleteINS_5TanOpEE12forward_incrERNS_11ForwardArgsINS0_6ad_augEEE"
 "_ZN5TMBad6global8CompleteINS_5TanOpEE12reverse_decrERNS_11ReverseArgsIbEE"
 "_ZN5TMBad6global8CompleteINS_5TanOpEE12reverse_decrERNS_11ReverseArgsIdEE"
 "_ZN5TMBad6global8CompleteINS_5TanOpEE12reverse_decrERNS_11ReverseArgsINS_6WriterEEE"
 "_ZN5TMBad6global8CompleteINS_5TanOpEE12reverse_decrERNS_11ReverseArgsINS0_6ad_augEEE"
 "_ZN5TMBad6global8CompleteINS_5TanOpEE13operator_dataEv"
 "_ZN5TMBad6global8CompleteINS_5TanOpEE23forward_incr_mark_denseERNS_11ForwardArgsIbEE"
 "_ZN5TMBad6global8CompleteINS_5TanOpEE4copyEv"
 "_ZN5TMBad6global8CompleteINS_5TanOpEE4infoEv"
 "_ZN5TMBad6global8CompleteINS_5TanOpEE5printENS0_12print_configE"
 "_ZN5TMBad6global8CompleteINS_5TanOpEE7forwardERNS_11ForwardArgsIbEE"
 "_ZN5TMBad6global8CompleteINS_5TanOpEE7forwardERNS_11ForwardArgsIdEE"
 "_ZN5TMBad6global8CompleteINS_5TanOpEE7forwardERNS_11ForwardArgsINS_6WriterEEE"
 "_ZN5TMBad6global8CompleteINS_5TanOpEE7forwardERNS_11ForwardArgsINS0_6ad_augEEE"
 "_ZN5TMBad6global8CompleteINS_5TanOpEE7op_nameEv"
 "_ZN5TMBad6global8CompleteINS_5TanOpEE7reverseERNS_11ReverseArgsIbEE"
 "_ZN5TMBad6global8CompleteINS_5TanOpEE7reverseERNS_11ReverseArgsIdEE"
 "_ZN5TMBad6global8CompleteINS_5TanOpEE7reverseERNS_11ReverseArgsINS_6WriterEEE"
 "_ZN5TMBad6global8CompleteINS_5TanOpEE7reverseERNS_11ReverseArgsINS0_6ad_augEEE"
 "_ZN5TMBad6global8CompleteINS_5TanOpEE9decrementERSt4pairIjjE"
 "_ZN5TMBad6global8CompleteINS_5TanOpEE9incrementERSt4pairIjjE"
 "_ZN5TMBad6global8CompleteINS_5TanOpEE9self_fuseEv"
 "_ZN5TMBad6global8CompleteINS_5TanOpEED0Ev"
 "_ZN5TMBad6global8CompleteINS_5TanOpEED1Ev"
 "_ZN5TMBad6global8CompleteINS_6AcosOpEE10deallocateEv"
 "_ZN5TMBad6global8CompleteINS_6AcosOpEE10identifierEv"
 "_ZN5TMBad6global8CompleteINS_6AcosOpEE10incompleteEv"
 "_ZN5TMBad6global8CompleteINS_6AcosOpEE10input_sizeEv"
 "_ZN5TMBad6global8CompleteINS_6AcosOpEE10other_fuseEPNS0_12OperatorPureE"
 "_ZN5TMBad6global8CompleteINS_6AcosOpEE11output_sizeEv"
 "_ZN5TMBad6global8CompleteINS_6AcosOpEE12dependenciesERNS_4ArgsIvEERNS_12DependenciesE"
 "_ZN5TMBad6global8CompleteINS_6AcosOpEE12forward_incrERNS_11ForwardArgsIbEE"
 "_ZN5TMBad6global8CompleteINS_6AcosOpEE12forward_incrERNS_11ForwardArgsIdEE"
 "_ZN5TMBad6global8CompleteINS_6AcosOpEE12forward_incrERNS_11ForwardArgsINS_6WriterEEE"
 "_ZN5TMBad6global8CompleteINS_6AcosOpEE12forward_incrERNS_11ForwardArgsINS0_6ad_augEEE"
 "_ZN5TMBad6global8CompleteINS_6AcosOpEE12reverse_decrERNS_11ReverseArgsIbEE"
 "_ZN5TMBad6global8CompleteINS_6AcosOpEE12reverse_decrERNS_11ReverseArgsIdEE"
 "_ZN5TMBad6global8CompleteINS_6AcosOpEE12reverse_decrERNS_11ReverseArgsINS_6WriterEEE"
 "_ZN5TMBad6global8CompleteINS_6AcosOpEE12reverse_decrERNS_11ReverseArgsINS0_6ad_augEEE"
 "_ZN5TMBad6global8CompleteINS_6AcosOpEE13operator_dataEv"
 "_ZN5TMBad6global8CompleteINS_6AcosOpEE23forward_incr_mark_denseERNS_11ForwardArgsIbEE"
 "_ZN5TMBad6global8CompleteINS_6AcosOpEE4copyEv"
 "_ZN5TMBad6global8CompleteINS_6AcosOpEE4infoEv"
 "_ZN5TMBad6global8CompleteINS_6AcosOpEE5printENS0_12print_configE"
 "_ZN5TMBad6global8CompleteINS_6AcosOpEE7forwardERNS_11ForwardArgsIbEE"
 "_ZN5TMBad6global8CompleteINS_6AcosOpEE7forwardERNS_11ForwardArgsIdEE"
 "_ZN5TMBad6global8CompleteINS_6AcosOpEE7forwardERNS_11ForwardArgsINS_6WriterEEE"
 "_ZN5TMBad6global8CompleteINS_6AcosOpEE7forwardERNS_11ForwardArgsINS0_6ad_augEEE"
 "_ZN5TMBad6global8CompleteINS_6AcosOpEE7op_nameEv"
 "_ZN5TMBad6global8CompleteINS_6AcosOpEE7reverseERNS_11ReverseArgsIbEE"
 "_ZN5TMBad6global8CompleteINS_6AcosOpEE7reverseERNS_11ReverseArgsIdEE"
 "_ZN5TMBad6global8CompleteINS_6AcosOpEE7reverseERNS_11ReverseArgsINS_6WriterEEE"
 "_ZN5TMBad6global8CompleteINS_6AcosOpEE7reverseERNS_11ReverseArgsINS0_6ad_augEEE"
 "_ZN5TMBad6global8CompleteINS_6AcosOpEE9decrementERSt4pairIjjE"
 "_ZN5TMBad6global8CompleteINS_6AcosOpEE9incrementERSt4pairIjjE"
 "_ZN5TMBad6global8CompleteINS_6AcosOpEE9self_fuseEv"
 "_ZN5TMBad6global8CompleteINS_6AcosOpEED0Ev"
 "_ZN5TMBad6global8CompleteINS_6AcosOpEED1Ev"
 "_ZN5TMBad6global8CompleteINS_6AsinOpEE10deallocateEv"
 "_ZN5TMBad6global8CompleteINS_6AsinOpEE10identifierEv"
 "_ZN5TMBad6global8CompleteINS_6AsinOpEE10incompleteEv"
 "_ZN5TMBad6global8CompleteINS_6AsinOpEE10input_sizeEv"
 "_ZN5TMBad6global8CompleteINS_6AsinOpEE10other_fuseEPNS0_12OperatorPureE"
 "_ZN5TMBad6global8CompleteINS_6AsinOpEE11output_sizeEv"
 "_ZN5TMBad6global8CompleteINS_6AsinOpEE12dependenciesERNS_4ArgsIvEERNS_12DependenciesE"
 "_ZN5TMBad6global8CompleteINS_6AsinOpEE12forward_incrERNS_11ForwardArgsIbEE"
 "_ZN5TMBad6global8CompleteINS_6AsinOpEE12forward_incrERNS_11ForwardArgsIdEE"
 "_ZN5TMBad6global8CompleteINS_6AsinOpEE12forward_incrERNS_11ForwardArgsINS_6WriterEEE"
 "_ZN5TMBad6global8CompleteINS_6AsinOpEE12forward_incrERNS_11ForwardArgsINS0_6ad_augEEE"
 "_ZN5TMBad6global8CompleteINS_6AsinOpEE12reverse_decrERNS_11ReverseArgsIbEE"
 "_ZN5TMBad6global8CompleteINS_6AsinOpEE12reverse_decrERNS_11ReverseArgsIdEE"
 "_ZN5TMBad6global8CompleteINS_6AsinOpEE12reverse_decrERNS_11ReverseArgsINS_6WriterEEE"
 "_ZN5TMBad6global8CompleteINS_6AsinOpEE12reverse_decrERNS_11ReverseArgsINS0_6ad_augEEE"
 "_ZN5TMBad6global8CompleteINS_6AsinOpEE13operator_dataEv"
 "_ZN5TMBad6global8CompleteINS_6AsinOpEE23forward_incr_mark_denseERNS_11ForwardArgsIbEE"
 "_ZN5TMBad6global8CompleteINS_6AsinOpEE4copyEv"
 "_ZN5TMBad6global8CompleteINS_6AsinOpEE4infoEv"
 "_ZN5TMBad6global8CompleteINS_6AsinOpEE5printENS0_12print_configE"
 "_ZN5TMBad6global8CompleteINS_6AsinOpEE7forwardERNS_11ForwardArgsIbEE"
 "_ZN5TMBad6global8CompleteINS_6AsinOpEE7forwardERNS_11ForwardArgsIdEE"
 "_ZN5TMBad6global8CompleteINS_6AsinOpEE7forwardERNS_11ForwardArgsINS_6WriterEEE"
 "_ZN5TMBad6global8CompleteINS_6AsinOpEE7forwardERNS_11ForwardArgsINS0_6ad_augEEE"
 "_ZN5TMBad6global8CompleteINS_6AsinOpEE7op_nameEv"
 "_ZN5TMBad6global8CompleteINS_6AsinOpEE7reverseERNS_11ReverseArgsIbEE"
 "_ZN5TMBad6global8CompleteINS_6AsinOpEE7reverseERNS_11ReverseArgsIdEE"
 "_ZN5TMBad6global8CompleteINS_6AsinOpEE7reverseERNS_11ReverseArgsINS_6WriterEEE"
 "_ZN5TMBad6global8CompleteINS_6AsinOpEE7reverseERNS_11ReverseArgsINS0_6ad_augEEE"
 "_ZN5TMBad6global8CompleteINS_6AsinOpEE9decrementERSt4pairIjjE"
 "_ZN5TMBad6global8CompleteINS_6AsinOpEE9incrementERSt4pairIjjE"
 "_ZN5TMBad6global8CompleteINS_6AsinOpEE9self_fuseEv"
 "_ZN5TMBad6global8CompleteINS_6AsinOpEED0Ev"
 "_ZN5TMBad6global8CompleteINS_6AsinOpEED1Ev"
 "_ZN5TMBad6global8CompleteINS_6AtanOpEE10deallocateEv"
 "_ZN5TMBad6global8CompleteINS_6AtanOpEE10identifierEv"
 "_ZN5TMBad6global8CompleteINS_6AtanOpEE10incompleteEv"
 "_ZN5TMBad6global8CompleteINS_6AtanOpEE10input_sizeEv"
 "_ZN5TMBad6global8CompleteINS_6AtanOpEE10other_fuseEPNS0_12OperatorPureE"
 "_ZN5TMBad6global8CompleteINS_6AtanOpEE11output_sizeEv"
 "_ZN5TMBad6global8CompleteINS_6AtanOpEE12dependenciesERNS_4ArgsIvEERNS_12DependenciesE"
 "_ZN5TMBad6global8CompleteINS_6AtanOpEE12forward_incrERNS_11ForwardArgsIbEE"
 "_ZN5TMBad6global8CompleteINS_6AtanOpEE12forward_incrERNS_11ForwardArgsIdEE"
 "_ZN5TMBad6global8CompleteINS_6AtanOpEE12forward_incrERNS_11ForwardArgsINS_6WriterEEE"
 "_ZN5TMBad6global8CompleteINS_6AtanOpEE12forward_incrERNS_11ForwardArgsINS0_6ad_augEEE"
 "_ZN5TMBad6global8CompleteINS_6AtanOpEE12reverse_decrERNS_11ReverseArgsIbEE"
 "_ZN5TMBad6global8CompleteINS_6AtanOpEE12reverse_decrERNS_11ReverseArgsIdEE"
 "_ZN5TMBad6global8CompleteINS_6AtanOpEE12reverse_decrERNS_11ReverseArgsINS_6WriterEEE"
 "_ZN5TMBad6global8CompleteINS_6AtanOpEE12reverse_decrERNS_11ReverseArgsINS0_6ad_augEEE"
 "_ZN5TMBad6global8CompleteINS_6AtanOpEE13operator_dataEv"
 "_ZN5TMBad6global8CompleteINS_6AtanOpEE23forward_incr_mark_denseERNS_11ForwardArgsIbEE"
 "_ZN5TMBad6global8CompleteINS_6AtanOpEE4copyEv"
 "_ZN5TMBad6global8CompleteINS_6AtanOpEE4infoEv"
 "_ZN5TMBad6global8CompleteINS_6AtanOpEE5printENS0_12print_configE"
 "_ZN5TMBad6global8CompleteINS_6AtanOpEE7forwardERNS_11ForwardArgsIbEE"
 "_ZN5TMBad6global8CompleteINS_6AtanOpEE7forwardERNS_11ForwardArgsIdEE"
 "_ZN5TMBad6global8CompleteINS_6AtanOpEE7forwardERNS_11ForwardArgsINS_6WriterEEE"
 "_ZN5TMBad6global8CompleteINS_6AtanOpEE7forwardERNS_11ForwardArgsINS0_6ad_augEEE"
 "_ZN5TMBad6global8CompleteINS_6AtanOpEE7op_nameEv"
 "_ZN5TMBad6global8CompleteINS_6AtanOpEE7reverseERNS_11ReverseArgsIbEE"
 "_ZN5TMBad6global8CompleteINS_6AtanOpEE7reverseERNS_11ReverseArgsIdEE"
 "_ZN5TMBad6global8CompleteINS_6AtanOpEE7reverseERNS_11ReverseArgsINS_6WriterEEE"
 "_ZN5TMBad6global8CompleteINS_6AtanOpEE7reverseERNS_11ReverseArgsINS0_6ad_augEEE"
 "_ZN5TMBad6global8CompleteINS_6AtanOpEE9decrementERSt4pairIjjE"
 "_ZN5TMBad6global8CompleteINS_6AtanOpEE9incrementERSt4pairIjjE"
 "_ZN5TMBad6global8CompleteINS_6AtanOpEE9self_fuseEv"
 "_ZN5TMBad6global8CompleteINS_6AtanOpEED0Ev"
 "_ZN5TMBad6global8CompleteINS_6AtanOpEED1Ev"
 "_ZN5TMBad6global8CompleteINS_6CeilOpEE10deallocateEv"
 "_ZN5TMBad6global8CompleteINS_6CeilOpEE10identifierEv"
 "_ZN5TMBad6global8CompleteINS_6CeilOpEE10incompleteEv"
 "_ZN5TMBad6global8CompleteINS_6CeilOpEE10input_sizeEv"
 "_ZN5TMBad6global8CompleteINS_6CeilOpEE10other_fuseEPNS0_12OperatorPureE"
 "_ZN5TMBad6global8CompleteINS_6CeilOpEE11output_sizeEv"
 "_ZN5TMBad6global8CompleteINS_6CeilOpEE12dependenciesERNS_4ArgsIvEERNS_12DependenciesE"
 "_ZN5TMBad6global8CompleteINS_6CeilOpEE12forward_incrERNS_11ForwardArgsIbEE"
 "_ZN5TMBad6global8CompleteINS_6CeilOpEE12forward_incrERNS_11ForwardArgsIdEE"
 "_ZN5TMBad6global8CompleteINS_6CeilOpEE12forward_incrERNS_11ForwardArgsINS_6WriterEEE"
 "_ZN5TMBad6global8CompleteINS_6CeilOpEE12forward_incrERNS_11ForwardArgsINS0_6ad_augEEE"
 "_ZN5TMBad6global8CompleteINS_6CeilOpEE12reverse_decrERNS_11ReverseArgsIbEE"
 "_ZN5TMBad6global8CompleteINS_6CeilOpEE12reverse_decrERNS_11ReverseArgsIdEE"
 "_ZN5TMBad6global8CompleteINS_6CeilOpEE12reverse_decrERNS_11ReverseArgsINS_6WriterEEE"
 "_ZN5TMBad6global8CompleteINS_6CeilOpEE12reverse_decrERNS_11ReverseArgsINS0_6ad_augEEE"
 "_ZN5TMBad6global8CompleteINS_6CeilOpEE13operator_dataEv"
 "_ZN5TMBad6global8CompleteINS_6CeilOpEE23forward_incr_mark_denseERNS_11ForwardArgsIbEE"
 "_ZN5TMBad6global8CompleteINS_6CeilOpEE4copyEv"
 "_ZN5TMBad6global8CompleteINS_6CeilOpEE4infoEv"
 "_ZN5TMBad6global8CompleteINS_6CeilOpEE5printENS0_12print_configE"
 "_ZN5TMBad6global8CompleteINS_6CeilOpEE7forwardERNS_11ForwardArgsIbEE"
 "_ZN5TMBad6global8CompleteINS_6CeilOpEE7forwardERNS_11ForwardArgsIdEE"
 "_ZN5TMBad6global8CompleteINS_6CeilOpEE7forwardERNS_11ForwardArgsINS_6WriterEEE"
 "_ZN5TMBad6global8CompleteINS_6CeilOpEE7forwardERNS_11ForwardArgsINS0_6ad_augEEE"
 "_ZN5TMBad6global8CompleteINS_6CeilOpEE7op_nameEv"
 "_ZN5TMBad6global8CompleteINS_6CeilOpEE7reverseERNS_11ReverseArgsIbEE"
 "_ZN5TMBad6global8CompleteINS_6CeilOpEE7reverseERNS_11ReverseArgsIdEE"
 "_ZN5TMBad6global8CompleteINS_6CeilOpEE7reverseERNS_11ReverseArgsINS_6WriterEEE"
 "_ZN5TMBad6global8CompleteINS_6CeilOpEE7reverseERNS_11ReverseArgsINS0_6ad_augEEE"
 "_ZN5TMBad6global8CompleteINS_6CeilOpEE9decrementERSt4pairIjjE"
 "_ZN5TMBad6global8CompleteINS_6CeilOpEE9incrementERSt4pairIjjE"
 "_ZN5TMBad6global8CompleteINS_6CeilOpEE9self_fuseEv"
 "_ZN5TMBad6global8CompleteINS_6CeilOpEED0Ev"
 "_ZN5TMBad6global8CompleteINS_6CeilOpEED1Ev"
 "_ZN5TMBad6global8CompleteINS_6CoshOpEE10deallocateEv"
 "_ZN5TMBad6global8CompleteINS_6CoshOpEE10identifierEv"
 "_ZN5TMBad6global8CompleteINS_6CoshOpEE10incompleteEv"
 "_ZN5TMBad6global8CompleteINS_6CoshOpEE10input_sizeEv"
 "_ZN5TMBad6global8CompleteINS_6CoshOpEE10other_fuseEPNS0_12OperatorPureE"
 "_ZN5TMBad6global8CompleteINS_6CoshOpEE11output_sizeEv"
 "_ZN5TMBad6global8CompleteINS_6CoshOpEE12dependenciesERNS_4ArgsIvEERNS_12DependenciesE"
 "_ZN5TMBad6global8CompleteINS_6CoshOpEE12forward_incrERNS_11ForwardArgsIbEE"
 "_ZN5TMBad6global8CompleteINS_6CoshOpEE12forward_incrERNS_11ForwardArgsIdEE"
 "_ZN5TMBad6global8CompleteINS_6CoshOpEE12forward_incrERNS_11ForwardArgsINS_6WriterEEE"
 "_ZN5TMBad6global8CompleteINS_6CoshOpEE12forward_incrERNS_11ForwardArgsINS0_6ad_augEEE"
 "_ZN5TMBad6global8CompleteINS_6CoshOpEE12reverse_decrERNS_11ReverseArgsIbEE"
 "_ZN5TMBad6global8CompleteINS_6CoshOpEE12reverse_decrERNS_11ReverseArgsIdEE"
 "_ZN5TMBad6global8CompleteINS_6CoshOpEE12reverse_decrERNS_11ReverseArgsINS_6WriterEEE"
 "_ZN5TMBad6global8CompleteINS_6CoshOpEE12reverse_decrERNS_11ReverseArgsINS0_6ad_augEEE"
 "_ZN5TMBad6global8CompleteINS_6CoshOpEE13operator_dataEv"
 "_ZN5TMBad6global8CompleteINS_6CoshOpEE23forward_incr_mark_denseERNS_11ForwardArgsIbEE"
 "_ZN5TMBad6global8CompleteINS_6CoshOpEE4copyEv"
 "_ZN5TMBad6global8CompleteINS_6CoshOpEE4infoEv"
 "_ZN5TMBad6global8CompleteINS_6CoshOpEE5printENS0_12print_configE"
 "_ZN5TMBad6global8CompleteINS_6CoshOpEE7forwardERNS_11ForwardArgsIbEE"
 "_ZN5TMBad6global8CompleteINS_6CoshOpEE7forwardERNS_11ForwardArgsIdEE"
 "_ZN5TMBad6global8CompleteINS_6CoshOpEE7forwardERNS_11ForwardArgsINS_6WriterEEE"
 "_ZN5TMBad6global8CompleteINS_6CoshOpEE7forwardERNS_11ForwardArgsINS0_6ad_augEEE"
 "_ZN5TMBad6global8CompleteINS_6CoshOpEE7op_nameEv"
 "_ZN5TMBad6global8CompleteINS_6CoshOpEE7reverseERNS_11ReverseArgsIbEE"
 "_ZN5TMBad6global8CompleteINS_6CoshOpEE7reverseERNS_11ReverseArgsIdEE"
 "_ZN5TMBad6global8CompleteINS_6CoshOpEE7reverseERNS_11ReverseArgsINS_6WriterEEE"
 "_ZN5TMBad6global8CompleteINS_6CoshOpEE7reverseERNS_11ReverseArgsINS0_6ad_augEEE"
 "_ZN5TMBad6global8CompleteINS_6CoshOpEE9decrementERSt4pairIjjE"
 "_ZN5TMBad6global8CompleteINS_6CoshOpEE9incrementERSt4pairIjjE"
 "_ZN5TMBad6global8CompleteINS_6CoshOpEE9self_fuseEv"
 "_ZN5TMBad6global8CompleteINS_6CoshOpEED0Ev"
 "_ZN5TMBad6global8CompleteINS_6CoshOpEED1Ev"
 "_ZN5TMBad6global8CompleteINS_6MatMulILb0ELb0ELb0EEEE10deallocateEv"
 "_ZN5TMBad6global8CompleteINS_6MatMulILb0ELb0ELb0EEEE10identifierEv"
 "_ZN5TMBad6global8CompleteINS_6MatMulILb0ELb0ELb0EEEE10incompleteEv"
 "_ZN5TMBad6global8CompleteINS_6MatMulILb0ELb0ELb0EEEE10input_sizeEv"
 "_ZN5TMBad6global8CompleteINS_6MatMulILb0ELb0ELb0EEEE10other_fuseEPNS0_12OperatorPureE"
 "_ZN5TMBad6global8CompleteINS_6MatMulILb0ELb0ELb0EEEE11output_sizeEv"
 "_ZN5TMBad6global8CompleteINS_6MatMulILb0ELb0ELb0EEEE12dependenciesERNS_4ArgsIvEERNS_12DependenciesE"
 "_ZN5TMBad6global8CompleteINS_6MatMulILb0ELb0ELb0EEEE12forward_incrERNS_11ForwardArgsIbEE"
 "_ZN5TMBad6global8CompleteINS_6MatMulILb0ELb0ELb0EEEE12forward_incrERNS_11ForwardArgsIdEE"
 "_ZN5TMBad6global8CompleteINS_6MatMulILb0ELb0ELb0EEEE12forward_incrERNS_11ForwardArgsINS_6WriterEEE"
 "_ZN5TMBad6global8CompleteINS_6MatMulILb0ELb0ELb0EEEE12forward_incrERNS_11ForwardArgsINS0_6ad_augEEE"
 "_ZN5TMBad6global8CompleteINS_6MatMulILb0ELb0ELb0EEEE12reverse_decrERNS_11ReverseArgsIbEE"
 "_ZN5TMBad6global8CompleteINS_6MatMulILb0ELb0ELb0EEEE12reverse_decrERNS_11ReverseArgsIdEE"
 "_ZN5TMBad6global8CompleteINS_6MatMulILb0ELb0ELb0EEEE12reverse_decrERNS_11ReverseArgsINS_6WriterEEE"
 "_ZN5TMBad6global8CompleteINS_6MatMulILb0ELb0ELb0EEEE12reverse_decrERNS_11ReverseArgsINS0_6ad_augEEE"
 "_ZN5TMBad6global8CompleteINS_6MatMulILb0ELb0ELb0EEEE13operator_dataEv"
 "_ZN5TMBad6global8CompleteINS_6MatMulILb0ELb0ELb0EEEE23forward_incr_mark_denseERNS_11ForwardArgsIbEE"
 "_ZN5TMBad6global8CompleteINS_6MatMulILb0ELb0ELb0EEEE4copyEv"
 "_ZN5TMBad6global8CompleteINS_6MatMulILb0ELb0ELb0EEEE4infoEv"
 "_ZN5TMBad6global8CompleteINS_6MatMulILb0ELb0ELb0EEEE5printENS0_12print_configE"
 "_ZN5TMBad6global8CompleteINS_6MatMulILb0ELb0ELb0EEEE7forwardERNS_11ForwardArgsIbEE"
 "_ZN5TMBad6global8CompleteINS_6MatMulILb0ELb0ELb0EEEE7forwardERNS_11ForwardArgsIdEE"
 "_ZN5TMBad6global8CompleteINS_6MatMulILb0ELb0ELb0EEEE7forwardERNS_11ForwardArgsINS_6WriterEEE"
 "_ZN5TMBad6global8CompleteINS_6MatMulILb0ELb0ELb0EEEE7forwardERNS_11ForwardArgsINS0_6ad_augEEE"
 "_ZN5TMBad6global8CompleteINS_6MatMulILb0ELb0ELb0EEEE7op_nameEv"
 "_ZN5TMBad6global8CompleteINS_6MatMulILb0ELb0ELb0EEEE7reverseERNS_11ReverseArgsIbEE"
 "_ZN5TMBad6global8CompleteINS_6MatMulILb0ELb0ELb0EEEE7reverseERNS_11ReverseArgsIdEE"
 "_ZN5TMBad6global8CompleteINS_6MatMulILb0ELb0ELb0EEEE7reverseERNS_11ReverseArgsINS_6WriterEEE"
 "_ZN5TMBad6global8CompleteINS_6MatMulILb0ELb0ELb0EEEE7reverseERNS_11ReverseArgsINS0_6ad_augEEE"
 "_ZN5TMBad6global8CompleteINS_6MatMulILb0ELb0ELb0EEEE9decrementERSt4pairIjjE"
 "_ZN5TMBad6global8CompleteINS_6MatMulILb0ELb0ELb0EEEE9incrementERSt4pairIjjE"
 "_ZN5TMBad6global8CompleteINS_6MatMulILb0ELb0ELb0EEEE9self_fuseEv"
 "_ZN5TMBad6global8CompleteINS_6MatMulILb0ELb0ELb0EEEED0Ev"
 "_ZN5TMBad6global8CompleteINS_6MatMulILb0ELb0ELb0EEEED1Ev"
 "_ZN5TMBad6global8CompleteINS_6MatMulILb0ELb1ELb0EEEE10deallocateEv"
 "_ZN5TMBad6global8CompleteINS_6MatMulILb0ELb1ELb0EEEE10identifierEv"
 "_ZN5TMBad6global8CompleteINS_6MatMulILb0ELb1ELb0EEEE10incompleteEv"
 "_ZN5TMBad6global8CompleteINS_6MatMulILb0ELb1ELb0EEEE10input_sizeEv"
 "_ZN5TMBad6global8CompleteINS_6MatMulILb0ELb1ELb0EEEE10other_fuseEPNS0_12OperatorPureE"
 "_ZN5TMBad6global8CompleteINS_6MatMulILb0ELb1ELb0EEEE11output_sizeEv"
 "_ZN5TMBad6global8CompleteINS_6MatMulILb0ELb1ELb0EEEE12dependenciesERNS_4ArgsIvEERNS_12DependenciesE"
 "_ZN5TMBad6global8CompleteINS_6MatMulILb0ELb1ELb0EEEE12forward_incrERNS_11ForwardArgsIbEE"
 "_ZN5TMBad6global8CompleteINS_6MatMulILb0ELb1ELb0EEEE12forward_incrERNS_11ForwardArgsIdEE"
 "_ZN5TMBad6global8CompleteINS_6MatMulILb0ELb1ELb0EEEE12forward_incrERNS_11ForwardArgsINS_6WriterEEE"
 "_ZN5TMBad6global8CompleteINS_6MatMulILb0ELb1ELb0EEEE12forward_incrERNS_11ForwardArgsINS0_6ad_augEEE"
 "_ZN5TMBad6global8CompleteINS_6MatMulILb0ELb1ELb0EEEE12reverse_decrERNS_11ReverseArgsIbEE"
 "_ZN5TMBad6global8CompleteINS_6MatMulILb0ELb1ELb0EEEE12reverse_decrERNS_11ReverseArgsIdEE"
 "_ZN5TMBad6global8CompleteINS_6MatMulILb0ELb1ELb0EEEE12reverse_decrERNS_11ReverseArgsINS_6WriterEEE"
 "_ZN5TMBad6global8CompleteINS_6MatMulILb0ELb1ELb0EEEE12reverse_decrERNS_11ReverseArgsINS0_6ad_augEEE"
 "_ZN5TMBad6global8CompleteINS_6MatMulILb0ELb1ELb0EEEE13operator_dataEv"
 "_ZN5TMBad6global8CompleteINS_6MatMulILb0ELb1ELb0EEEE23forward_incr_mark_denseERNS_11ForwardArgsIbEE"
 "_ZN5TMBad6global8CompleteINS_6MatMulILb0ELb1ELb0EEEE4copyEv"
 "_ZN5TMBad6global8CompleteINS_6MatMulILb0ELb1ELb0EEEE4infoEv"
 "_ZN5TMBad6global8CompleteINS_6MatMulILb0ELb1ELb0EEEE5printENS0_12print_configE"
 "_ZN5TMBad6global8CompleteINS_6MatMulILb0ELb1ELb0EEEE7forwardERNS_11ForwardArgsIbEE"
 "_ZN5TMBad6global8CompleteINS_6MatMulILb0ELb1ELb0EEEE7forwardERNS_11ForwardArgsIdEE"
 "_ZN5TMBad6global8CompleteINS_6MatMulILb0ELb1ELb0EEEE7forwardERNS_11ForwardArgsINS_6WriterEEE"
 "_ZN5TMBad6global8CompleteINS_6MatMulILb0ELb1ELb0EEEE7forwardERNS_11ForwardArgsINS0_6ad_augEEE"
 "_ZN5TMBad6global8CompleteINS_6MatMulILb0ELb1ELb0EEEE7op_nameEv"
 "_ZN5TMBad6global8CompleteINS_6MatMulILb0ELb1ELb0EEEE7reverseERNS_11ReverseArgsIbEE"
 "_ZN5TMBad6global8CompleteINS_6MatMulILb0ELb1ELb0EEEE7reverseERNS_11ReverseArgsIdEE"
 "_ZN5TMBad6global8CompleteINS_6MatMulILb0ELb1ELb0EEEE7reverseERNS_11ReverseArgsINS_6WriterEEE"
 "_ZN5TMBad6global8CompleteINS_6MatMulILb0ELb1ELb0EEEE7reverseERNS_11ReverseArgsINS0_6ad_augEEE"
 "_ZN5TMBad6global8CompleteINS_6MatMulILb0ELb1ELb0EEEE9decrementERSt4pairIjjE"
 "_ZN5TMBad6global8CompleteINS_6MatMulILb0ELb1ELb0EEEE9incrementERSt4pairIjjE"
 "_ZN5TMBad6global8CompleteINS_6MatMulILb0ELb1ELb0EEEE9self_fuseEv"
 "_ZN5TMBad6global8CompleteINS_6MatMulILb0ELb1ELb0EEEED0Ev"
 "_ZN5TMBad6global8CompleteINS_6MatMulILb0ELb1ELb0EEEED1Ev"
 "_ZN5TMBad6global8CompleteINS_6MatMulILb0ELb1ELb1EEEE10deallocateEv"
 "_ZN5TMBad6global8CompleteINS_6MatMulILb0ELb1ELb1EEEE10identifierEv"
 "_ZN5TMBad6global8CompleteINS_6MatMulILb0ELb1ELb1EEEE10incompleteEv"
 "_ZN5TMBad6global8CompleteINS_6MatMulILb0ELb1ELb1EEEE10input_sizeEv"
 "_ZN5TMBad6global8CompleteINS_6MatMulILb0ELb1ELb1EEEE10other_fuseEPNS0_12OperatorPureE"
 "_ZN5TMBad6global8CompleteINS_6MatMulILb0ELb1ELb1EEEE11output_sizeEv"
 "_ZN5TMBad6global8CompleteINS_6MatMulILb0ELb1ELb1EEEE12dependenciesERNS_4ArgsIvEERNS_12DependenciesE"
 "_ZN5TMBad6global8CompleteINS_6MatMulILb0ELb1ELb1EEEE12forward_incrERNS_11ForwardArgsIbEE"
 "_ZN5TMBad6global8CompleteINS_6MatMulILb0ELb1ELb1EEEE12forward_incrERNS_11ForwardArgsIdEE"
 "_ZN5TMBad6global8CompleteINS_6MatMulILb0ELb1ELb1EEEE12forward_incrERNS_11ForwardArgsINS_6WriterEEE"
 "_ZN5TMBad6global8CompleteINS_6MatMulILb0ELb1ELb1EEEE12forward_incrERNS_11ForwardArgsINS0_6ad_augEEE"
 "_ZN5TMBad6global8CompleteINS_6MatMulILb0ELb1ELb1EEEE12reverse_decrERNS_11ReverseArgsIbEE"
 "_ZN5TMBad6global8CompleteINS_6MatMulILb0ELb1ELb1EEEE12reverse_decrERNS_11ReverseArgsIdEE"
 "_ZN5TMBad6global8CompleteINS_6MatMulILb0ELb1ELb1EEEE12reverse_decrERNS_11ReverseArgsINS_6WriterEEE"
 "_ZN5TMBad6global8CompleteINS_6MatMulILb0ELb1ELb1EEEE12reverse_decrERNS_11ReverseArgsINS0_6ad_augEEE"
 "_ZN5TMBad6global8CompleteINS_6MatMulILb0ELb1ELb1EEEE13operator_dataEv"
 "_ZN5TMBad6global8CompleteINS_6MatMulILb0ELb1ELb1EEEE23forward_incr_mark_denseERNS_11ForwardArgsIbEE"
 "_ZN5TMBad6global8CompleteINS_6MatMulILb0ELb1ELb1EEEE4copyEv"
 "_ZN5TMBad6global8CompleteINS_6MatMulILb0ELb1ELb1EEEE4infoEv"
 "_ZN5TMBad6global8CompleteINS_6MatMulILb0ELb1ELb1EEEE5printENS0_12print_configE"
 "_ZN5TMBad6global8CompleteINS_6MatMulILb0ELb1ELb1EEEE7forwardERNS_11ForwardArgsIbEE"
 "_ZN5TMBad6global8CompleteINS_6MatMulILb0ELb1ELb1EEEE7forwardERNS_11ForwardArgsIdEE"
 "_ZN5TMBad6global8CompleteINS_6MatMulILb0ELb1ELb1EEEE7forwardERNS_11ForwardArgsINS_6WriterEEE"
 "_ZN5TMBad6global8CompleteINS_6MatMulILb0ELb1ELb1EEEE7forwardERNS_11ForwardArgsINS0_6ad_augEEE"
 "_ZN5TMBad6global8CompleteINS_6MatMulILb0ELb1ELb1EEEE7op_nameEv"
 "_ZN5TMBad6global8CompleteINS_6MatMulILb0ELb1ELb1EEEE7reverseERNS_11ReverseArgsIbEE"
 "_ZN5TMBad6global8CompleteINS_6MatMulILb0ELb1ELb1EEEE7reverseERNS_11ReverseArgsIdEE"
 "_ZN5TMBad6global8CompleteINS_6MatMulILb0ELb1ELb1EEEE7reverseERNS_11ReverseArgsINS_6WriterEEE"
 "_ZN5TMBad6global8CompleteINS_6MatMulILb0ELb1ELb1EEEE7reverseERNS_11ReverseArgsINS0_6ad_augEEE"
 "_ZN5TMBad6global8CompleteINS_6MatMulILb0ELb1ELb1EEEE9decrementERSt4pairIjjE"
 "_ZN5TMBad6global8CompleteINS_6MatMulILb0ELb1ELb1EEEE9incrementERSt4pairIjjE"
 "_ZN5TMBad6global8CompleteINS_6MatMulILb0ELb1ELb1EEEE9self_fuseEv"
 "_ZN5TMBad6global8CompleteINS_6MatMulILb0ELb1ELb1EEEED0Ev"
 "_ZN5TMBad6global8CompleteINS_6MatMulILb0ELb1ELb1EEEED1Ev"
 "_ZN5TMBad6global8CompleteINS_6MatMulILb1ELb0ELb0EEEE10deallocateEv"
 "_ZN5TMBad6global8CompleteINS_6MatMulILb1ELb0ELb0EEEE10identifierEv"
 "_ZN5TMBad6global8CompleteINS_6MatMulILb1ELb0ELb0EEEE10incompleteEv"
 "_ZN5TMBad6global8CompleteINS_6MatMulILb1ELb0ELb0EEEE10input_sizeEv"
 "_ZN5TMBad6global8CompleteINS_6MatMulILb1ELb0ELb0EEEE10other_fuseEPNS0_12OperatorPureE"
 "_ZN5TMBad6global8CompleteINS_6MatMulILb1ELb0ELb0EEEE11output_sizeEv"
 "_ZN5TMBad6global8CompleteINS_6MatMulILb1ELb0ELb0EEEE12dependenciesERNS_4ArgsIvEERNS_12DependenciesE"
 "_ZN5TMBad6global8CompleteINS_6MatMulILb1ELb0ELb0EEEE12forward_incrERNS_11ForwardArgsIbEE"
 "_ZN5TMBad6global8CompleteINS_6MatMulILb1ELb0ELb0EEEE12forward_incrERNS_11ForwardArgsIdEE"
 "_ZN5TMBad6global8CompleteINS_6MatMulILb1ELb0ELb0EEEE12forward_incrERNS_11ForwardArgsINS_6WriterEEE"
 "_ZN5TMBad6global8CompleteINS_6MatMulILb1ELb0ELb0EEEE12forward_incrERNS_11ForwardArgsINS0_6ad_augEEE"
 "_ZN5TMBad6global8CompleteINS_6MatMulILb1ELb0ELb0EEEE12reverse_decrERNS_11ReverseArgsIbEE"
 "_ZN5TMBad6global8CompleteINS_6MatMulILb1ELb0ELb0EEEE12reverse_decrERNS_11ReverseArgsIdEE"
 "_ZN5TMBad6global8CompleteINS_6MatMulILb1ELb0ELb0EEEE12reverse_decrERNS_11ReverseArgsINS_6WriterEEE"
 "_ZN5TMBad6global8CompleteINS_6MatMulILb1ELb0ELb0EEEE12reverse_decrERNS_11ReverseArgsINS0_6ad_augEEE"
 "_ZN5TMBad6global8CompleteINS_6MatMulILb1ELb0ELb0EEEE13operator_dataEv"
 "_ZN5TMBad6global8CompleteINS_6MatMulILb1ELb0ELb0EEEE23forward_incr_mark_denseERNS_11ForwardArgsIbEE"
 "_ZN5TMBad6global8CompleteINS_6MatMulILb1ELb0ELb0EEEE4copyEv"
 "_ZN5TMBad6global8CompleteINS_6MatMulILb1ELb0ELb0EEEE4infoEv"
 "_ZN5TMBad6global8CompleteINS_6MatMulILb1ELb0ELb0EEEE5printENS0_12print_configE"
 "_ZN5TMBad6global8CompleteINS_6MatMulILb1ELb0ELb0EEEE7forwardERNS_11ForwardArgsIbEE"
 "_ZN5TMBad6global8CompleteINS_6MatMulILb1ELb0ELb0EEEE7forwardERNS_11ForwardArgsIdEE"
 "_ZN5TMBad6global8CompleteINS_6MatMulILb1ELb0ELb0EEEE7forwardERNS_11ForwardArgsINS_6WriterEEE"
 "_ZN5TMBad6global8CompleteINS_6MatMulILb1ELb0ELb0EEEE7forwardERNS_11ForwardArgsINS0_6ad_augEEE"
 "_ZN5TMBad6global8CompleteINS_6MatMulILb1ELb0ELb0EEEE7op_nameEv"
 "_ZN5TMBad6global8CompleteINS_6MatMulILb1ELb0ELb0EEEE7reverseERNS_11ReverseArgsIbEE"
 "_ZN5TMBad6global8CompleteINS_6MatMulILb1ELb0ELb0EEEE7reverseERNS_11ReverseArgsIdEE"
 "_ZN5TMBad6global8CompleteINS_6MatMulILb1ELb0ELb0EEEE7reverseERNS_11ReverseArgsINS_6WriterEEE"
 "_ZN5TMBad6global8CompleteINS_6MatMulILb1ELb0ELb0EEEE7reverseERNS_11ReverseArgsINS0_6ad_augEEE"
 "_ZN5TMBad6global8CompleteINS_6MatMulILb1ELb0ELb0EEEE9decrementERSt4pairIjjE"
 "_ZN5TMBad6global8CompleteINS_6MatMulILb1ELb0ELb0EEEE9incrementERSt4pairIjjE"
 "_ZN5TMBad6global8CompleteINS_6MatMulILb1ELb0ELb0EEEE9self_fuseEv"
 "_ZN5TMBad6global8CompleteINS_6MatMulILb1ELb0ELb0EEEED0Ev"
 "_ZN5TMBad6global8CompleteINS_6MatMulILb1ELb0ELb0EEEED1Ev"
 "_ZN5TMBad6global8CompleteINS_6MatMulILb1ELb0ELb1EEEE10deallocateEv"
 "_ZN5TMBad6global8CompleteINS_6MatMulILb1ELb0ELb1EEEE10identifierEv"
 "_ZN5TMBad6global8CompleteINS_6MatMulILb1ELb0ELb1EEEE10incompleteEv"
 "_ZN5TMBad6global8CompleteINS_6MatMulILb1ELb0ELb1EEEE10input_sizeEv"
 "_ZN5TMBad6global8CompleteINS_6MatMulILb1ELb0ELb1EEEE10other_fuseEPNS0_12OperatorPureE"
 "_ZN5TMBad6global8CompleteINS_6MatMulILb1ELb0ELb1EEEE11output_sizeEv"
 "_ZN5TMBad6global8CompleteINS_6MatMulILb1ELb0ELb1EEEE12dependenciesERNS_4ArgsIvEERNS_12DependenciesE"
 "_ZN5TMBad6global8CompleteINS_6MatMulILb1ELb0ELb1EEEE12forward_incrERNS_11ForwardArgsIbEE"
 "_ZN5TMBad6global8CompleteINS_6MatMulILb1ELb0ELb1EEEE12forward_incrERNS_11ForwardArgsIdEE"
 "_ZN5TMBad6global8CompleteINS_6MatMulILb1ELb0ELb1EEEE12forward_incrERNS_11ForwardArgsINS_6WriterEEE"
 "_ZN5TMBad6global8CompleteINS_6MatMulILb1ELb0ELb1EEEE12forward_incrERNS_11ForwardArgsINS0_6ad_augEEE"
 "_ZN5TMBad6global8CompleteINS_6MatMulILb1ELb0ELb1EEEE12reverse_decrERNS_11ReverseArgsIbEE"
 "_ZN5TMBad6global8CompleteINS_6MatMulILb1ELb0ELb1EEEE12reverse_decrERNS_11ReverseArgsIdEE"
 "_ZN5TMBad6global8CompleteINS_6MatMulILb1ELb0ELb1EEEE12reverse_decrERNS_11ReverseArgsINS_6WriterEEE"
 "_ZN5TMBad6global8CompleteINS_6MatMulILb1ELb0ELb1EEEE12reverse_decrERNS_11ReverseArgsINS0_6ad_augEEE"
 "_ZN5TMBad6global8CompleteINS_6MatMulILb1ELb0ELb1EEEE13operator_dataEv"
 "_ZN5TMBad6global8CompleteINS_6MatMulILb1ELb0ELb1EEEE23forward_incr_mark_denseERNS_11ForwardArgsIbEE"
 "_ZN5TMBad6global8CompleteINS_6MatMulILb1ELb0ELb1EEEE4copyEv"
 "_ZN5TMBad6global8CompleteINS_6MatMulILb1ELb0ELb1EEEE4infoEv"
 "_ZN5TMBad6global8CompleteINS_6MatMulILb1ELb0ELb1EEEE5printENS0_12print_configE"
 "_ZN5TMBad6global8CompleteINS_6MatMulILb1ELb0ELb1EEEE7forwardERNS_11ForwardArgsIbEE"
 "_ZN5TMBad6global8CompleteINS_6MatMulILb1ELb0ELb1EEEE7forwardERNS_11ForwardArgsIdEE"
 "_ZN5TMBad6global8CompleteINS_6MatMulILb1ELb0ELb1EEEE7forwardERNS_11ForwardArgsINS_6WriterEEE"
 "_ZN5TMBad6global8CompleteINS_6MatMulILb1ELb0ELb1EEEE7forwardERNS_11ForwardArgsINS0_6ad_augEEE"
 "_ZN5TMBad6global8CompleteINS_6MatMulILb1ELb0ELb1EEEE7op_nameEv"
 "_ZN5TMBad6global8CompleteINS_6MatMulILb1ELb0ELb1EEEE7reverseERNS_11ReverseArgsIbEE"
 "_ZN5TMBad6global8CompleteINS_6MatMulILb1ELb0ELb1EEEE7reverseERNS_11ReverseArgsIdEE"
 "_ZN5TMBad6global8CompleteINS_6MatMulILb1ELb0ELb1EEEE7reverseERNS_11ReverseArgsINS_6WriterEEE"
 "_ZN5TMBad6global8CompleteINS_6MatMulILb1ELb0ELb1EEEE7reverseERNS_11ReverseArgsINS0_6ad_augEEE"
 "_ZN5TMBad6global8CompleteINS_6MatMulILb1ELb0ELb1EEEE9decrementERSt4pairIjjE"
 "_ZN5TMBad6global8CompleteINS_6MatMulILb1ELb0ELb1EEEE9incrementERSt4pairIjjE"
 "_ZN5TMBad6global8CompleteINS_6MatMulILb1ELb0ELb1EEEE9self_fuseEv"
 "_ZN5TMBad6global8CompleteINS_6MatMulILb1ELb0ELb1EEEED0Ev"
 "_ZN5TMBad6global8CompleteINS_6MatMulILb1ELb0ELb1EEEED1Ev"
 "_ZN5TMBad6global8CompleteINS_6MatMulILb1ELb1ELb1EEEE10deallocateEv"
 "_ZN5TMBad6global8CompleteINS_6MatMulILb1ELb1ELb1EEEE10identifierEv"
 "_ZN5TMBad6global8CompleteINS_6MatMulILb1ELb1ELb1EEEE10incompleteEv"
 "_ZN5TMBad6global8CompleteINS_6MatMulILb1ELb1ELb1EEEE10input_sizeEv"
 "_ZN5TMBad6global8CompleteINS_6MatMulILb1ELb1ELb1EEEE10other_fuseEPNS0_12OperatorPureE"
 "_ZN5TMBad6global8CompleteINS_6MatMulILb1ELb1ELb1EEEE11output_sizeEv"
 "_ZN5TMBad6global8CompleteINS_6MatMulILb1ELb1ELb1EEEE12dependenciesERNS_4ArgsIvEERNS_12DependenciesE"
 "_ZN5TMBad6global8CompleteINS_6MatMulILb1ELb1ELb1EEEE12forward_incrERNS_11ForwardArgsIbEE"
 "_ZN5TMBad6global8CompleteINS_6MatMulILb1ELb1ELb1EEEE12forward_incrERNS_11ForwardArgsIdEE"
 "_ZN5TMBad6global8CompleteINS_6MatMulILb1ELb1ELb1EEEE12forward_incrERNS_11ForwardArgsINS_6WriterEEE"
 "_ZN5TMBad6global8CompleteINS_6MatMulILb1ELb1ELb1EEEE12forward_incrERNS_11ForwardArgsINS0_6ad_augEEE"
 "_ZN5TMBad6global8CompleteINS_6MatMulILb1ELb1ELb1EEEE12reverse_decrERNS_11ReverseArgsIbEE"
 "_ZN5TMBad6global8CompleteINS_6MatMulILb1ELb1ELb1EEEE12reverse_decrERNS_11ReverseArgsIdEE"
 "_ZN5TMBad6global8CompleteINS_6MatMulILb1ELb1ELb1EEEE12reverse_decrERNS_11ReverseArgsINS_6WriterEEE"
 "_ZN5TMBad6global8CompleteINS_6MatMulILb1ELb1ELb1EEEE12reverse_decrERNS_11ReverseArgsINS0_6ad_augEEE"
 "_ZN5TMBad6global8CompleteINS_6MatMulILb1ELb1ELb1EEEE13operator_dataEv"
 "_ZN5TMBad6global8CompleteINS_6MatMulILb1ELb1ELb1EEEE23forward_incr_mark_denseERNS_11ForwardArgsIbEE"
 "_ZN5TMBad6global8CompleteINS_6MatMulILb1ELb1ELb1EEEE4copyEv"
 "_ZN5TMBad6global8CompleteINS_6MatMulILb1ELb1ELb1EEEE4infoEv"
 "_ZN5TMBad6global8CompleteINS_6MatMulILb1ELb1ELb1EEEE5printENS0_12print_configE"
 "_ZN5TMBad6global8CompleteINS_6MatMulILb1ELb1ELb1EEEE7forwardERNS_11ForwardArgsIbEE"
 "_ZN5TMBad6global8CompleteINS_6MatMulILb1ELb1ELb1EEEE7forwardERNS_11ForwardArgsIdEE"
 "_ZN5TMBad6global8CompleteINS_6MatMulILb1ELb1ELb1EEEE7forwardERNS_11ForwardArgsINS_6WriterEEE"
 "_ZN5TMBad6global8CompleteINS_6MatMulILb1ELb1ELb1EEEE7forwardERNS_11ForwardArgsINS0_6ad_augEEE"
 "_ZN5TMBad6global8CompleteINS_6MatMulILb1ELb1ELb1EEEE7op_nameEv"
 "_ZN5TMBad6global8CompleteINS_6MatMulILb1ELb1ELb1EEEE7reverseERNS_11ReverseArgsIbEE"
 "_ZN5TMBad6global8CompleteINS_6MatMulILb1ELb1ELb1EEEE7reverseERNS_11ReverseArgsIdEE"
 "_ZN5TMBad6global8CompleteINS_6MatMulILb1ELb1ELb1EEEE7reverseERNS_11ReverseArgsINS_6WriterEEE"
 "_ZN5TMBad6global8CompleteINS_6MatMulILb1ELb1ELb1EEEE7reverseERNS_11ReverseArgsINS0_6ad_augEEE"
 "_ZN5TMBad6global8CompleteINS_6MatMulILb1ELb1ELb1EEEE9decrementERSt4pairIjjE"
 "_ZN5TMBad6global8CompleteINS_6MatMulILb1ELb1ELb1EEEE9incrementERSt4pairIjjE"
 "_ZN5TMBad6global8CompleteINS_6MatMulILb1ELb1ELb1EEEE9self_fuseEv"
 "_ZN5TMBad6global8CompleteINS_6MatMulILb1ELb1ELb1EEEED0Ev"
 "_ZN5TMBad6global8CompleteINS_6MatMulILb1ELb1ELb1EEEED1Ev"
 "_ZN5TMBad6global8CompleteINS_6SignOpEE10deallocateEv"
 "_ZN5TMBad6global8CompleteINS_6SignOpEE10identifierEv"
 "_ZN5TMBad6global8CompleteINS_6SignOpEE10incompleteEv"
 "_ZN5TMBad6global8CompleteINS_6SignOpEE10input_sizeEv"
 "_ZN5TMBad6global8CompleteINS_6SignOpEE10other_fuseEPNS0_12OperatorPureE"
 "_ZN5TMBad6global8CompleteINS_6SignOpEE11output_sizeEv"
 "_ZN5TMBad6global8CompleteINS_6SignOpEE12dependenciesERNS_4ArgsIvEERNS_12DependenciesE"
 "_ZN5TMBad6global8CompleteINS_6SignOpEE12forward_incrERNS_11ForwardArgsIbEE"
 "_ZN5TMBad6global8CompleteINS_6SignOpEE12forward_incrERNS_11ForwardArgsIdEE"
 "_ZN5TMBad6global8CompleteINS_6SignOpEE12forward_incrERNS_11ForwardArgsINS_6WriterEEE"
 "_ZN5TMBad6global8CompleteINS_6SignOpEE12forward_incrERNS_11ForwardArgsINS0_6ad_augEEE"
 "_ZN5TMBad6global8CompleteINS_6SignOpEE12reverse_decrERNS_11ReverseArgsIbEE"
 "_ZN5TMBad6global8CompleteINS_6SignOpEE12reverse_decrERNS_11ReverseArgsIdEE"
 "_ZN5TMBad6global8CompleteINS_6SignOpEE12reverse_decrERNS_11ReverseArgsINS_6WriterEEE"
 "_ZN5TMBad6global8CompleteINS_6SignOpEE12reverse_decrERNS_11ReverseArgsINS0_6ad_augEEE"
 "_ZN5TMBad6global8CompleteINS_6SignOpEE13operator_dataEv"
 "_ZN5TMBad6global8CompleteINS_6SignOpEE23forward_incr_mark_denseERNS_11ForwardArgsIbEE"
 "_ZN5TMBad6global8CompleteINS_6SignOpEE4copyEv"
 "_ZN5TMBad6global8CompleteINS_6SignOpEE4infoEv"
 "_ZN5TMBad6global8CompleteINS_6SignOpEE5printENS0_12print_configE"
 "_ZN5TMBad6global8CompleteINS_6SignOpEE7forwardERNS_11ForwardArgsIbEE"
 "_ZN5TMBad6global8CompleteINS_6SignOpEE7forwardERNS_11ForwardArgsIdEE"
 "_ZN5TMBad6global8CompleteINS_6SignOpEE7forwardERNS_11ForwardArgsINS_6WriterEEE"
 "_ZN5TMBad6global8CompleteINS_6SignOpEE7forwardERNS_11ForwardArgsINS0_6ad_augEEE"
 "_ZN5TMBad6global8CompleteINS_6SignOpEE7op_nameEv"
 "_ZN5TMBad6global8CompleteINS_6SignOpEE7reverseERNS_11ReverseArgsIbEE"
 "_ZN5TMBad6global8CompleteINS_6SignOpEE7reverseERNS_11ReverseArgsIdEE"
 "_ZN5TMBad6global8CompleteINS_6SignOpEE7reverseERNS_11ReverseArgsINS_6WriterEEE"
 "_ZN5TMBad6global8CompleteINS_6SignOpEE7reverseERNS_11ReverseArgsINS0_6ad_augEEE"
 "_ZN5TMBad6global8CompleteINS_6SignOpEE9decrementERSt4pairIjjE"
 "_ZN5TMBad6global8CompleteINS_6SignOpEE9incrementERSt4pairIjjE"
 "_ZN5TMBad6global8CompleteINS_6SignOpEE9self_fuseEv"
 "_ZN5TMBad6global8CompleteINS_6SignOpEED0Ev"
 "_ZN5TMBad6global8CompleteINS_6SignOpEED1Ev"
 "_ZN5TMBad6global8CompleteINS_6SinhOpEE10deallocateEv"
 "_ZN5TMBad6global8CompleteINS_6SinhOpEE10identifierEv"
 "_ZN5TMBad6global8CompleteINS_6SinhOpEE10incompleteEv"
 "_ZN5TMBad6global8CompleteINS_6SinhOpEE10input_sizeEv"
 "_ZN5TMBad6global8CompleteINS_6SinhOpEE10other_fuseEPNS0_12OperatorPureE"
 "_ZN5TMBad6global8CompleteINS_6SinhOpEE11output_sizeEv"
 "_ZN5TMBad6global8CompleteINS_6SinhOpEE12dependenciesERNS_4ArgsIvEERNS_12DependenciesE"
 "_ZN5TMBad6global8CompleteINS_6SinhOpEE12forward_incrERNS_11ForwardArgsIbEE"
 "_ZN5TMBad6global8CompleteINS_6SinhOpEE12forward_incrERNS_11ForwardArgsIdEE"
 "_ZN5TMBad6global8CompleteINS_6SinhOpEE12forward_incrERNS_11ForwardArgsINS_6WriterEEE"
 "_ZN5TMBad6global8CompleteINS_6SinhOpEE12forward_incrERNS_11ForwardArgsINS0_6ad_augEEE"
 "_ZN5TMBad6global8CompleteINS_6SinhOpEE12reverse_decrERNS_11ReverseArgsIbEE"
 "_ZN5TMBad6global8CompleteINS_6SinhOpEE12reverse_decrERNS_11ReverseArgsIdEE"
 "_ZN5TMBad6global8CompleteINS_6SinhOpEE12reverse_decrERNS_11ReverseArgsINS_6WriterEEE"
 "_ZN5TMBad6global8CompleteINS_6SinhOpEE12reverse_decrERNS_11ReverseArgsINS0_6ad_augEEE"
 "_ZN5TMBad6global8CompleteINS_6SinhOpEE13operator_dataEv"
 "_ZN5TMBad6global8CompleteINS_6SinhOpEE23forward_incr_mark_denseERNS_11ForwardArgsIbEE"
 "_ZN5TMBad6global8CompleteINS_6SinhOpEE4copyEv"
 "_ZN5TMBad6global8CompleteINS_6SinhOpEE4infoEv"
 "_ZN5TMBad6global8CompleteINS_6SinhOpEE5printENS0_12print_configE"
 "_ZN5TMBad6global8CompleteINS_6SinhOpEE7forwardERNS_11ForwardArgsIbEE"
 "_ZN5TMBad6global8CompleteINS_6SinhOpEE7forwardERNS_11ForwardArgsIdEE"
 "_ZN5TMBad6global8CompleteINS_6SinhOpEE7forwardERNS_11ForwardArgsINS_6WriterEEE"
 "_ZN5TMBad6global8CompleteINS_6SinhOpEE7forwardERNS_11ForwardArgsINS0_6ad_augEEE"
 "_ZN5TMBad6global8CompleteINS_6SinhOpEE7op_nameEv"
 "_ZN5TMBad6global8CompleteINS_6SinhOpEE7reverseERNS_11ReverseArgsIbEE"
 "_ZN5TMBad6global8CompleteINS_6SinhOpEE7reverseERNS_11ReverseArgsIdEE"
 "_ZN5TMBad6global8CompleteINS_6SinhOpEE7reverseERNS_11ReverseArgsINS_6WriterEEE"
 "_ZN5TMBad6global8CompleteINS_6SinhOpEE7reverseERNS_11ReverseArgsINS0_6ad_augEEE"
 "_ZN5TMBad6global8CompleteINS_6SinhOpEE9decrementERSt4pairIjjE"
 "_ZN5TMBad6global8CompleteINS_6SinhOpEE9incrementERSt4pairIjjE"
 "_ZN5TMBad6global8CompleteINS_6SinhOpEE9self_fuseEv"
 "_ZN5TMBad6global8CompleteINS_6SinhOpEED0Ev"
 "_ZN5TMBad6global8CompleteINS_6SinhOpEED1Ev"
 "_ZN5TMBad6global8CompleteINS_6SqrtOpEE10deallocateEv"
 "_ZN5TMBad6global8CompleteINS_6SqrtOpEE10identifierEv"
 "_ZN5TMBad6global8CompleteINS_6SqrtOpEE10incompleteEv"
 "_ZN5TMBad6global8CompleteINS_6SqrtOpEE10input_sizeEv"
 "_ZN5TMBad6global8CompleteINS_6SqrtOpEE10other_fuseEPNS0_12OperatorPureE"
 "_ZN5TMBad6global8CompleteINS_6SqrtOpEE11output_sizeEv"
 "_ZN5TMBad6global8CompleteINS_6SqrtOpEE12dependenciesERNS_4ArgsIvEERNS_12DependenciesE"
 "_ZN5TMBad6global8CompleteINS_6SqrtOpEE12forward_incrERNS_11ForwardArgsIbEE"
 "_ZN5TMBad6global8CompleteINS_6SqrtOpEE12forward_incrERNS_11ForwardArgsIdEE"
 "_ZN5TMBad6global8CompleteINS_6SqrtOpEE12forward_incrERNS_11ForwardArgsINS_6WriterEEE"
 "_ZN5TMBad6global8CompleteINS_6SqrtOpEE12forward_incrERNS_11ForwardArgsINS0_6ad_augEEE"
 "_ZN5TMBad6global8CompleteINS_6SqrtOpEE12reverse_decrERNS_11ReverseArgsIbEE"
 "_ZN5TMBad6global8CompleteINS_6SqrtOpEE12reverse_decrERNS_11ReverseArgsIdEE"
 "_ZN5TMBad6global8CompleteINS_6SqrtOpEE12reverse_decrERNS_11ReverseArgsINS_6WriterEEE"
 "_ZN5TMBad6global8CompleteINS_6SqrtOpEE12reverse_decrERNS_11ReverseArgsINS0_6ad_augEEE"
 "_ZN5TMBad6global8CompleteINS_6SqrtOpEE13operator_dataEv"
 "_ZN5TMBad6global8CompleteINS_6SqrtOpEE23forward_incr_mark_denseERNS_11ForwardArgsIbEE"
 "_ZN5TMBad6global8CompleteINS_6SqrtOpEE4copyEv"
 "_ZN5TMBad6global8CompleteINS_6SqrtOpEE4infoEv"
 "_ZN5TMBad6global8CompleteINS_6SqrtOpEE5printENS0_12print_configE"
 "_ZN5TMBad6global8CompleteINS_6SqrtOpEE7forwardERNS_11ForwardArgsIbEE"
 "_ZN5TMBad6global8CompleteINS_6SqrtOpEE7forwardERNS_11ForwardArgsIdEE"
 "_ZN5TMBad6global8CompleteINS_6SqrtOpEE7forwardERNS_11ForwardArgsINS_6WriterEEE"
 "_ZN5TMBad6global8CompleteINS_6SqrtOpEE7forwardERNS_11ForwardArgsINS0_6ad_augEEE"
 "_ZN5TMBad6global8CompleteINS_6SqrtOpEE7op_nameEv"
 "_ZN5TMBad6global8CompleteINS_6SqrtOpEE7reverseERNS_11ReverseArgsIbEE"
 "_ZN5TMBad6global8CompleteINS_6SqrtOpEE7reverseERNS_11ReverseArgsIdEE"
 "_ZN5TMBad6global8CompleteINS_6SqrtOpEE7reverseERNS_11ReverseArgsINS_6WriterEEE"
 "_ZN5TMBad6global8CompleteINS_6SqrtOpEE7reverseERNS_11ReverseArgsINS0_6ad_augEEE"
 "_ZN5TMBad6global8CompleteINS_6SqrtOpEE9decrementERSt4pairIjjE"
 "_ZN5TMBad6global8CompleteINS_6SqrtOpEE9incrementERSt4pairIjjE"
 "_ZN5TMBad6global8CompleteINS_6SqrtOpEE9self_fuseEv"
 "_ZN5TMBad6global8CompleteINS_6SqrtOpEED0Ev"
 "_ZN5TMBad6global8CompleteINS_6SqrtOpEED1Ev"
 "_ZN5TMBad6global8CompleteINS_6TanhOpEE10deallocateEv"
 "_ZN5TMBad6global8CompleteINS_6TanhOpEE10identifierEv"
 "_ZN5TMBad6global8CompleteINS_6TanhOpEE10incompleteEv"
 "_ZN5TMBad6global8CompleteINS_6TanhOpEE10input_sizeEv"
 "_ZN5TMBad6global8CompleteINS_6TanhOpEE10other_fuseEPNS0_12OperatorPureE"
 "_ZN5TMBad6global8CompleteINS_6TanhOpEE11output_sizeEv"
 "_ZN5TMBad6global8CompleteINS_6TanhOpEE12dependenciesERNS_4ArgsIvEERNS_12DependenciesE"
 "_ZN5TMBad6global8CompleteINS_6TanhOpEE12forward_incrERNS_11ForwardArgsIbEE"
 "_ZN5TMBad6global8CompleteINS_6TanhOpEE12forward_incrERNS_11ForwardArgsIdEE"
 "_ZN5TMBad6global8CompleteINS_6TanhOpEE12forward_incrERNS_11ForwardArgsINS_6WriterEEE"
 "_ZN5TMBad6global8CompleteINS_6TanhOpEE12forward_incrERNS_11ForwardArgsINS0_6ad_augEEE"
 "_ZN5TMBad6global8CompleteINS_6TanhOpEE12reverse_decrERNS_11ReverseArgsIbEE"
 "_ZN5TMBad6global8CompleteINS_6TanhOpEE12reverse_decrERNS_11ReverseArgsIdEE"
 "_ZN5TMBad6global8CompleteINS_6TanhOpEE12reverse_decrERNS_11ReverseArgsINS_6WriterEEE"
 "_ZN5TMBad6global8CompleteINS_6TanhOpEE12reverse_decrERNS_11ReverseArgsINS0_6ad_augEEE"
 "_ZN5TMBad6global8CompleteINS_6TanhOpEE13operator_dataEv"
 "_ZN5TMBad6global8CompleteINS_6TanhOpEE23forward_incr_mark_denseERNS_11ForwardArgsIbEE"
 "_ZN5TMBad6global8CompleteINS_6TanhOpEE4copyEv"
 "_ZN5TMBad6global8CompleteINS_6TanhOpEE4infoEv"
 "_ZN5TMBad6global8CompleteINS_6TanhOpEE5printENS0_12print_configE"
 "_ZN5TMBad6global8CompleteINS_6TanhOpEE7forwardERNS_11ForwardArgsIbEE"
 "_ZN5TMBad6global8CompleteINS_6TanhOpEE7forwardERNS_11ForwardArgsIdEE"
 "_ZN5TMBad6global8CompleteINS_6TanhOpEE7forwardERNS_11ForwardArgsINS_6WriterEEE"
 "_ZN5TMBad6global8CompleteINS_6TanhOpEE7forwardERNS_11ForwardArgsINS0_6ad_augEEE"
 "_ZN5TMBad6global8CompleteINS_6TanhOpEE7op_nameEv"
 "_ZN5TMBad6global8CompleteINS_6TanhOpEE7reverseERNS_11ReverseArgsIbEE"
 "_ZN5TMBad6global8CompleteINS_6TanhOpEE7reverseERNS_11ReverseArgsIdEE"
 "_ZN5TMBad6global8CompleteINS_6TanhOpEE7reverseERNS_11ReverseArgsINS_6WriterEEE"
 "_ZN5TMBad6global8CompleteINS_6TanhOpEE7reverseERNS_11ReverseArgsINS0_6ad_augEEE"
 "_ZN5TMBad6global8CompleteINS_6TanhOpEE9decrementERSt4pairIjjE"
 "_ZN5TMBad6global8CompleteINS_6TanhOpEE9incrementERSt4pairIjjE"
 "_ZN5TMBad6global8CompleteINS_6TanhOpEE9self_fuseEv"
 "_ZN5TMBad6global8CompleteINS_6TanhOpEED0Ev"
 "_ZN5TMBad6global8CompleteINS_6TanhOpEED1Ev"
 "_ZN5TMBad6global8CompleteINS_7AdapOp_INS_14logIntegrate_tINS_8adaptiveINS0_6ad_augEEEEENS0_8ad_plainEEEE10deallocateEv"
 "_ZN5TMBad6global8CompleteINS_7AdapOp_INS_14logIntegrate_tINS_8adaptiveINS0_6ad_augEEEEENS0_8ad_plainEEEE10identifierEv"
 "_ZN5TMBad6global8CompleteINS_7AdapOp_INS_14logIntegrate_tINS_8adaptiveINS0_6ad_augEEEEENS0_8ad_plainEEEE10incompleteEv"
 "_ZN5TMBad6global8CompleteINS_7AdapOp_INS_14logIntegrate_tINS_8adaptiveINS0_6ad_augEEEEENS0_8ad_plainEEEE10input_sizeEv"
 "_ZN5TMBad6global8CompleteINS_7AdapOp_INS_14logIntegrate_tINS_8adaptiveINS0_6ad_augEEEEENS0_8ad_plainEEEE10other_fuseEPNS0_12OperatorPureE"
 "_ZN5TMBad6global8CompleteINS_7AdapOp_INS_14logIntegrate_tINS_8adaptiveINS0_6ad_augEEEEENS0_8ad_plainEEEE11output_sizeEv"
 "_ZN5TMBad6global8CompleteINS_7AdapOp_INS_14logIntegrate_tINS_8adaptiveINS0_6ad_augEEEEENS0_8ad_plainEEEE12dependenciesERNS_4ArgsIvEERNS_12DependenciesE"
 "_ZN5TMBad6global8CompleteINS_7AdapOp_INS_14logIntegrate_tINS_8adaptiveINS0_6ad_augEEEEENS0_8ad_plainEEEE12forward_incrERNS_11ForwardArgsIbEE"
 "_ZN5TMBad6global8CompleteINS_7AdapOp_INS_14logIntegrate_tINS_8adaptiveINS0_6ad_augEEEEENS0_8ad_plainEEEE12forward_incrERNS_11ForwardArgsIdEE"
 "_ZN5TMBad6global8CompleteINS_7AdapOp_INS_14logIntegrate_tINS_8adaptiveINS0_6ad_augEEEEENS0_8ad_plainEEEE12forward_incrERNS_11ForwardArgsINS_6WriterEEE"
 "_ZN5TMBad6global8CompleteINS_7AdapOp_INS_14logIntegrate_tINS_8adaptiveINS0_6ad_augEEEEENS0_8ad_plainEEEE12forward_incrERNS_11ForwardArgsIS5_EE"
 "_ZN5TMBad6global8CompleteINS_7AdapOp_INS_14logIntegrate_tINS_8adaptiveINS0_6ad_augEEEEENS0_8ad_plainEEEE12reverse_decrERNS_11ReverseArgsIbEE"
 "_ZN5TMBad6global8CompleteINS_7AdapOp_INS_14logIntegrate_tINS_8adaptiveINS0_6ad_augEEEEENS0_8ad_plainEEEE12reverse_decrERNS_11ReverseArgsIdEE"
 "_ZN5TMBad6global8CompleteINS_7AdapOp_INS_14logIntegrate_tINS_8adaptiveINS0_6ad_augEEEEENS0_8ad_plainEEEE12reverse_decrERNS_11ReverseArgsINS_6WriterEEE"
 "_ZN5TMBad6global8CompleteINS_7AdapOp_INS_14logIntegrate_tINS_8adaptiveINS0_6ad_augEEEEENS0_8ad_plainEEEE12reverse_decrERNS_11ReverseArgsIS5_EE"
 "_ZN5TMBad6global8CompleteINS_7AdapOp_INS_14logIntegrate_tINS_8adaptiveINS0_6ad_augEEEEENS0_8ad_plainEEEE13operator_dataEv"
 "_ZN5TMBad6global8CompleteINS_7AdapOp_INS_14logIntegrate_tINS_8adaptiveINS0_6ad_augEEEEENS0_8ad_plainEEEE23forward_incr_mark_denseERNS_11ForwardArgsIbEE"
 "_ZN5TMBad6global8CompleteINS_7AdapOp_INS_14logIntegrate_tINS_8adaptiveINS0_6ad_augEEEEENS0_8ad_plainEEEE4copyEv"
 "_ZN5TMBad6global8CompleteINS_7AdapOp_INS_14logIntegrate_tINS_8adaptiveINS0_6ad_augEEEEENS0_8ad_plainEEEE4infoEv"
 "_ZN5TMBad6global8CompleteINS_7AdapOp_INS_14logIntegrate_tINS_8adaptiveINS0_6ad_augEEEEENS0_8ad_plainEEEE5printENS0_12print_configE"
 "_ZN5TMBad6global8CompleteINS_7AdapOp_INS_14logIntegrate_tINS_8adaptiveINS0_6ad_augEEEEENS0_8ad_plainEEEE7forwardERNS_11ForwardArgsIbEE"
 "_ZN5TMBad6global8CompleteINS_7AdapOp_INS_14logIntegrate_tINS_8adaptiveINS0_6ad_augEEEEENS0_8ad_plainEEEE7forwardERNS_11ForwardArgsIdEE"
 "_ZN5TMBad6global8CompleteINS_7AdapOp_INS_14logIntegrate_tINS_8adaptiveINS0_6ad_augEEEEENS0_8ad_plainEEEE7forwardERNS_11ForwardArgsINS_6WriterEEE"
 "_ZN5TMBad6global8CompleteINS_7AdapOp_INS_14logIntegrate_tINS_8adaptiveINS0_6ad_augEEEEENS0_8ad_plainEEEE7forwardERNS_11ForwardArgsIS5_EE"
 "_ZN5TMBad6global8CompleteINS_7AdapOp_INS_14logIntegrate_tINS_8adaptiveINS0_6ad_augEEEEENS0_8ad_plainEEEE7op_nameEv"
 "_ZN5TMBad6global8CompleteINS_7AdapOp_INS_14logIntegrate_tINS_8adaptiveINS0_6ad_augEEEEENS0_8ad_plainEEEE7reverseERNS_11ReverseArgsIbEE"
 "_ZN5TMBad6global8CompleteINS_7AdapOp_INS_14logIntegrate_tINS_8adaptiveINS0_6ad_augEEEEENS0_8ad_plainEEEE7reverseERNS_11ReverseArgsIdEE"
 "_ZN5TMBad6global8CompleteINS_7AdapOp_INS_14logIntegrate_tINS_8adaptiveINS0_6ad_augEEEEENS0_8ad_plainEEEE7reverseERNS_11ReverseArgsINS_6WriterEEE"
 "_ZN5TMBad6global8CompleteINS_7AdapOp_INS_14logIntegrate_tINS_8adaptiveINS0_6ad_augEEEEENS0_8ad_plainEEEE7reverseERNS_11ReverseArgsIS5_EE"
 "_ZN5TMBad6global8CompleteINS_7AdapOp_INS_14logIntegrate_tINS_8adaptiveINS0_6ad_augEEEEENS0_8ad_plainEEEE9decrementERSt4pairIjjE"
 "_ZN5TMBad6global8CompleteINS_7AdapOp_INS_14logIntegrate_tINS_8adaptiveINS0_6ad_augEEEEENS0_8ad_plainEEEE9incrementERSt4pairIjjE"
 "_ZN5TMBad6global8CompleteINS_7AdapOp_INS_14logIntegrate_tINS_8adaptiveINS0_6ad_augEEEEENS0_8ad_plainEEEE9self_fuseEv"
 "_ZN5TMBad6global8CompleteINS_7AdapOp_INS_14logIntegrate_tINS_8adaptiveINS0_6ad_augEEEEENS0_8ad_plainEEEED0Ev"
 "_ZN5TMBad6global8CompleteINS_7AdapOp_INS_14logIntegrate_tINS_8adaptiveINS0_6ad_augEEEEENS0_8ad_plainEEEED1Ev"
 "_ZN5TMBad6global8CompleteINS_7CallOp_ILb0EEEE10deallocateEv"
 "_ZN5TMBad6global8CompleteINS_7CallOp_ILb0EEEE10identifierEv"
 "_ZN5TMBad6global8CompleteINS_7CallOp_ILb0EEEE10incompleteEv"
 "_ZN5TMBad6global8CompleteINS_7CallOp_ILb0EEEE10input_sizeEv"
 "_ZN5TMBad6global8CompleteINS_7CallOp_ILb0EEEE10other_fuseEPNS0_12OperatorPureE"
 "_ZN5TMBad6global8CompleteINS_7CallOp_ILb0EEEE11output_sizeEv"
 "_ZN5TMBad6global8CompleteINS_7CallOp_ILb0EEEE12dependenciesERNS_4ArgsIvEERNS_12DependenciesE"
 "_ZN5TMBad6global8CompleteINS_7CallOp_ILb0EEEE12forward_incrERNS_11ForwardArgsIbEE"
 "_ZN5TMBad6global8CompleteINS_7CallOp_ILb0EEEE12forward_incrERNS_11ForwardArgsIdEE"
 "_ZN5TMBad6global8CompleteINS_7CallOp_ILb0EEEE12forward_incrERNS_11ForwardArgsINS_6WriterEEE"
 "_ZN5TMBad6global8CompleteINS_7CallOp_ILb0EEEE12forward_incrERNS_11ForwardArgsINS0_6ad_augEEE"
 "_ZN5TMBad6global8CompleteINS_7CallOp_ILb0EEEE12reverse_decrERNS_11ReverseArgsIbEE"
 "_ZN5TMBad6global8CompleteINS_7CallOp_ILb0EEEE12reverse_decrERNS_11ReverseArgsIdEE"
 "_ZN5TMBad6global8CompleteINS_7CallOp_ILb0EEEE12reverse_decrERNS_11ReverseArgsINS_6WriterEEE"
 "_ZN5TMBad6global8CompleteINS_7CallOp_ILb0EEEE12reverse_decrERNS_11ReverseArgsINS0_6ad_augEEE"
 "_ZN5TMBad6global8CompleteINS_7CallOp_ILb0EEEE13operator_dataEv"
 "_ZN5TMBad6global8CompleteINS_7CallOp_ILb0EEEE23forward_incr_mark_denseERNS_11ForwardArgsIbEE"
 "_ZN5TMBad6global8CompleteINS_7CallOp_ILb0EEEE4copyEv"
 "_ZN5TMBad6global8CompleteINS_7CallOp_ILb0EEEE4infoEv"
 "_ZN5TMBad6global8CompleteINS_7CallOp_ILb0EEEE5printENS0_12print_configE"
 "_ZN5TMBad6global8CompleteINS_7CallOp_ILb0EEEE7forwardERNS_11ForwardArgsIbEE"
 "_ZN5TMBad6global8CompleteINS_7CallOp_ILb0EEEE7forwardERNS_11ForwardArgsIdEE"
 "_ZN5TMBad6global8CompleteINS_7CallOp_ILb0EEEE7forwardERNS_11ForwardArgsINS_6WriterEEE"
 "_ZN5TMBad6global8CompleteINS_7CallOp_ILb0EEEE7forwardERNS_11ForwardArgsINS0_6ad_augEEE"
 "_ZN5TMBad6global8CompleteINS_7CallOp_ILb0EEEE7op_nameEv"
 "_ZN5TMBad6global8CompleteINS_7CallOp_ILb0EEEE7reverseERNS_11ReverseArgsIbEE"
 "_ZN5TMBad6global8CompleteINS_7CallOp_ILb0EEEE7reverseERNS_11ReverseArgsIdEE"
 "_ZN5TMBad6global8CompleteINS_7CallOp_ILb0EEEE7reverseERNS_11ReverseArgsINS_6WriterEEE"
 "_ZN5TMBad6global8CompleteINS_7CallOp_ILb0EEEE7reverseERNS_11ReverseArgsINS0_6ad_augEEE"
 "_ZN5TMBad6global8CompleteINS_7CallOp_ILb0EEEE9decrementERSt4pairIjjE"
 "_ZN5TMBad6global8CompleteINS_7CallOp_ILb0EEEE9incrementERSt4pairIjjE"
 "_ZN5TMBad6global8CompleteINS_7CallOp_ILb0EEEE9self_fuseEv"
 "_ZN5TMBad6global8CompleteINS_7CallOp_ILb0EEEED0Ev"
 "_ZN5TMBad6global8CompleteINS_7CallOp_ILb0EEEED1Ev"
 "_ZN5TMBad6global8CompleteINS_7CallOp_ILb1EEEE10deallocateEv"
 "_ZN5TMBad6global8CompleteINS_7CallOp_ILb1EEEE10identifierEv"
 "_ZN5TMBad6global8CompleteINS_7CallOp_ILb1EEEE10incompleteEv"
 "_ZN5TMBad6global8CompleteINS_7CallOp_ILb1EEEE10input_sizeEv"
 "_ZN5TMBad6global8CompleteINS_7CallOp_ILb1EEEE10other_fuseEPNS0_12OperatorPureE"
 "_ZN5TMBad6global8CompleteINS_7CallOp_ILb1EEEE11output_sizeEv"
 "_ZN5TMBad6global8CompleteINS_7CallOp_ILb1EEEE12dependenciesERNS_4ArgsIvEERNS_12DependenciesE"
 "_ZN5TMBad6global8CompleteINS_7CallOp_ILb1EEEE12forward_incrERNS_11ForwardArgsIbEE"
 "_ZN5TMBad6global8CompleteINS_7CallOp_ILb1EEEE12forward_incrERNS_11ForwardArgsIdEE"
 "_ZN5TMBad6global8CompleteINS_7CallOp_ILb1EEEE12forward_incrERNS_11ForwardArgsINS_6WriterEEE"
 "_ZN5TMBad6global8CompleteINS_7CallOp_ILb1EEEE12forward_incrERNS_11ForwardArgsINS0_6ad_augEEE"
 "_ZN5TMBad6global8CompleteINS_7CallOp_ILb1EEEE12reverse_decrERNS_11ReverseArgsIbEE"
 "_ZN5TMBad6global8CompleteINS_7CallOp_ILb1EEEE12reverse_decrERNS_11ReverseArgsIdEE"
 "_ZN5TMBad6global8CompleteINS_7CallOp_ILb1EEEE12reverse_decrERNS_11ReverseArgsINS_6WriterEEE"
 "_ZN5TMBad6global8CompleteINS_7CallOp_ILb1EEEE12reverse_decrERNS_11ReverseArgsINS0_6ad_augEEE"
 "_ZN5TMBad6global8CompleteINS_7CallOp_ILb1EEEE13operator_dataEv"
 "_ZN5TMBad6global8CompleteINS_7CallOp_ILb1EEEE23forward_incr_mark_denseERNS_11ForwardArgsIbEE"
 "_ZN5TMBad6global8CompleteINS_7CallOp_ILb1EEEE4copyEv"
 "_ZN5TMBad6global8CompleteINS_7CallOp_ILb1EEEE4infoEv"
 "_ZN5TMBad6global8CompleteINS_7CallOp_ILb1EEEE5printENS0_12print_configE"
 "_ZN5TMBad6global8CompleteINS_7CallOp_ILb1EEEE7forwardERNS_11ForwardArgsIbEE"
 "_ZN5TMBad6global8CompleteINS_7CallOp_ILb1EEEE7forwardERNS_11ForwardArgsIdEE"
 "_ZN5TMBad6global8CompleteINS_7CallOp_ILb1EEEE7forwardERNS_11ForwardArgsINS_6WriterEEE"
 "_ZN5TMBad6global8CompleteINS_7CallOp_ILb1EEEE7forwardERNS_11ForwardArgsINS0_6ad_augEEE"
 "_ZN5TMBad6global8CompleteINS_7CallOp_ILb1EEEE7op_nameEv"
 "_ZN5TMBad6global8CompleteINS_7CallOp_ILb1EEEE7reverseERNS_11ReverseArgsIbEE"
 "_ZN5TMBad6global8CompleteINS_7CallOp_ILb1EEEE7reverseERNS_11ReverseArgsIdEE"
 "_ZN5TMBad6global8CompleteINS_7CallOp_ILb1EEEE7reverseERNS_11ReverseArgsINS_6WriterEEE"
 "_ZN5TMBad6global8CompleteINS_7CallOp_ILb1EEEE7reverseERNS_11ReverseArgsINS0_6ad_augEEE"
 "_ZN5TMBad6global8CompleteINS_7CallOp_ILb1EEEE9decrementERSt4pairIjjE"
 "_ZN5TMBad6global8CompleteINS_7CallOp_ILb1EEEE9incrementERSt4pairIjjE"
 "_ZN5TMBad6global8CompleteINS_7CallOp_ILb1EEEE9self_fuseEv"
 "_ZN5TMBad6global8CompleteINS_7CallOp_ILb1EEEED0Ev"
 "_ZN5TMBad6global8CompleteINS_7CallOp_ILb1EEEED1Ev"
 "_ZN5TMBad6global8CompleteINS_7FloorOpEE10deallocateEv"
 "_ZN5TMBad6global8CompleteINS_7FloorOpEE10identifierEv"
 "_ZN5TMBad6global8CompleteINS_7FloorOpEE10incompleteEv"
 "_ZN5TMBad6global8CompleteINS_7FloorOpEE10input_sizeEv"
 "_ZN5TMBad6global8CompleteINS_7FloorOpEE10other_fuseEPNS0_12OperatorPureE"
 "_ZN5TMBad6global8CompleteINS_7FloorOpEE11output_sizeEv"
 "_ZN5TMBad6global8CompleteINS_7FloorOpEE12dependenciesERNS_4ArgsIvEERNS_12DependenciesE"
 "_ZN5TMBad6global8CompleteINS_7FloorOpEE12forward_incrERNS_11ForwardArgsIbEE"
 "_ZN5TMBad6global8CompleteINS_7FloorOpEE12forward_incrERNS_11ForwardArgsIdEE"
 "_ZN5TMBad6global8CompleteINS_7FloorOpEE12forward_incrERNS_11ForwardArgsINS_6WriterEEE"
 "_ZN5TMBad6global8CompleteINS_7FloorOpEE12forward_incrERNS_11ForwardArgsINS0_6ad_augEEE"
 "_ZN5TMBad6global8CompleteINS_7FloorOpEE12reverse_decrERNS_11ReverseArgsIbEE"
 "_ZN5TMBad6global8CompleteINS_7FloorOpEE12reverse_decrERNS_11ReverseArgsIdEE"
 "_ZN5TMBad6global8CompleteINS_7FloorOpEE12reverse_decrERNS_11ReverseArgsINS_6WriterEEE"
 "_ZN5TMBad6global8CompleteINS_7FloorOpEE12reverse_decrERNS_11ReverseArgsINS0_6ad_augEEE"
 "_ZN5TMBad6global8CompleteINS_7FloorOpEE13operator_dataEv"
 "_ZN5TMBad6global8CompleteINS_7FloorOpEE23forward_incr_mark_denseERNS_11ForwardArgsIbEE"
 "_ZN5TMBad6global8CompleteINS_7FloorOpEE4copyEv"
 "_ZN5TMBad6global8CompleteINS_7FloorOpEE4infoEv"
 "_ZN5TMBad6global8CompleteINS_7FloorOpEE5printENS0_12print_configE"
 "_ZN5TMBad6global8CompleteINS_7FloorOpEE7forwardERNS_11ForwardArgsIbEE"
 "_ZN5TMBad6global8CompleteINS_7FloorOpEE7forwardERNS_11ForwardArgsIdEE"
 "_ZN5TMBad6global8CompleteINS_7FloorOpEE7forwardERNS_11ForwardArgsINS_6WriterEEE"
 "_ZN5TMBad6global8CompleteINS_7FloorOpEE7forwardERNS_11ForwardArgsINS0_6ad_augEEE"
 "_ZN5TMBad6global8CompleteINS_7FloorOpEE7op_nameEv"
 "_ZN5TMBad6global8CompleteINS_7FloorOpEE7reverseERNS_11ReverseArgsIbEE"
 "_ZN5TMBad6global8CompleteINS_7FloorOpEE7reverseERNS_11ReverseArgsIdEE"
 "_ZN5TMBad6global8CompleteINS_7FloorOpEE7reverseERNS_11ReverseArgsINS_6WriterEEE"
 "_ZN5TMBad6global8CompleteINS_7FloorOpEE7reverseERNS_11ReverseArgsINS0_6ad_augEEE"
 "_ZN5TMBad6global8CompleteINS_7FloorOpEE9decrementERSt4pairIjjE"
 "_ZN5TMBad6global8CompleteINS_7FloorOpEE9incrementERSt4pairIjjE"
 "_ZN5TMBad6global8CompleteINS_7FloorOpEE9self_fuseEv"
 "_ZN5TMBad6global8CompleteINS_7FloorOpEED0Ev"
 "_ZN5TMBad6global8CompleteINS_7FloorOpEED1Ev"
 "_ZN5TMBad6global8CompleteINS_7ParalOpEE10deallocateEv"
 "_ZN5TMBad6global8CompleteINS_7ParalOpEE10identifierEv"
 "_ZN5TMBad6global8CompleteINS_7ParalOpEE10incompleteEv"
 "_ZN5TMBad6global8CompleteINS_7ParalOpEE10input_sizeEv"
 "_ZN5TMBad6global8CompleteINS_7ParalOpEE10other_fuseEPNS0_12OperatorPureE"
 "_ZN5TMBad6global8CompleteINS_7ParalOpEE11output_sizeEv"
 "_ZN5TMBad6global8CompleteINS_7ParalOpEE12dependenciesERNS_4ArgsIvEERNS_12DependenciesE"
 "_ZN5TMBad6global8CompleteINS_7ParalOpEE12forward_incrERNS_11ForwardArgsIbEE"
 "_ZN5TMBad6global8CompleteINS_7ParalOpEE12forward_incrERNS_11ForwardArgsIdEE"
 "_ZN5TMBad6global8CompleteINS_7ParalOpEE12forward_incrERNS_11ForwardArgsINS_6WriterEEE"
 "_ZN5TMBad6global8CompleteINS_7ParalOpEE12forward_incrERNS_11ForwardArgsINS0_6ad_augEEE"
 "_ZN5TMBad6global8CompleteINS_7ParalOpEE12reverse_decrERNS_11ReverseArgsIbEE"
 "_ZN5TMBad6global8CompleteINS_7ParalOpEE12reverse_decrERNS_11ReverseArgsIdEE"
 "_ZN5TMBad6global8CompleteINS_7ParalOpEE12reverse_decrERNS_11ReverseArgsINS_6WriterEEE"
 "_ZN5TMBad6global8CompleteINS_7ParalOpEE12reverse_decrERNS_11ReverseArgsINS0_6ad_augEEE"
 "_ZN5TMBad6global8CompleteINS_7ParalOpEE13operator_dataEv"
 "_ZN5TMBad6global8CompleteINS_7ParalOpEE19forward_replay_copyERNS_11ForwardArgsINS0_6ad_augEEE"
 "_ZN5TMBad6global8CompleteINS_7ParalOpEE23forward_incr_mark_denseERNS_11ForwardArgsIbEE"
 "_ZN5TMBad6global8CompleteINS_7ParalOpEE4copyEv"
 "_ZN5TMBad6global8CompleteINS_7ParalOpEE4infoEv"
 "_ZN5TMBad6global8CompleteINS_7ParalOpEE5printENS0_12print_configE"
 "_ZN5TMBad6global8CompleteINS_7ParalOpEE7forwardERNS_11ForwardArgsIbEE"
 "_ZN5TMBad6global8CompleteINS_7ParalOpEE7forwardERNS_11ForwardArgsIdEE"
 "_ZN5TMBad6global8CompleteINS_7ParalOpEE7forwardERNS_11ForwardArgsINS_6WriterEEE"
 "_ZN5TMBad6global8CompleteINS_7ParalOpEE7forwardERNS_11ForwardArgsINS0_6ad_augEEE"
 "_ZN5TMBad6global8CompleteINS_7ParalOpEE7op_nameEv"
 "_ZN5TMBad6global8CompleteINS_7ParalOpEE7reverseERNS_11ReverseArgsIbEE"
 "_ZN5TMBad6global8CompleteINS_7ParalOpEE7reverseERNS_11ReverseArgsIdEE"
 "_ZN5TMBad6global8CompleteINS_7ParalOpEE7reverseERNS_11ReverseArgsINS_6WriterEEE"
 "_ZN5TMBad6global8CompleteINS_7ParalOpEE7reverseERNS_11ReverseArgsINS0_6ad_augEEE"
 "_ZN5TMBad6global8CompleteINS_7ParalOpEE9decrementERSt4pairIjjE"
 "_ZN5TMBad6global8CompleteINS_7ParalOpEE9incrementERSt4pairIjjE"
 "_ZN5TMBad6global8CompleteINS_7ParalOpEE9self_fuseEv"
 "_ZN5TMBad6global8CompleteINS_7ParalOpEED0Ev"
 "_ZN5TMBad6global8CompleteINS_7ParalOpEED1Ev"
 "_ZN5TMBad6global8CompleteINS_7RoundOpEE10deallocateEv"
 "_ZN5TMBad6global8CompleteINS_7RoundOpEE10identifierEv"
 "_ZN5TMBad6global8CompleteINS_7RoundOpEE10incompleteEv"
 "_ZN5TMBad6global8CompleteINS_7RoundOpEE10input_sizeEv"
 "_ZN5TMBad6global8CompleteINS_7RoundOpEE10other_fuseEPNS0_12OperatorPureE"
 "_ZN5TMBad6global8CompleteINS_7RoundOpEE11output_sizeEv"
 "_ZN5TMBad6global8CompleteINS_7RoundOpEE12dependenciesERNS_4ArgsIvEERNS_12DependenciesE"
 "_ZN5TMBad6global8CompleteINS_7RoundOpEE12forward_incrERNS_11ForwardArgsIbEE"
 "_ZN5TMBad6global8CompleteINS_7RoundOpEE12forward_incrERNS_11ForwardArgsIdEE"
 "_ZN5TMBad6global8CompleteINS_7RoundOpEE12forward_incrERNS_11ForwardArgsINS_6WriterEEE"
 "_ZN5TMBad6global8CompleteINS_7RoundOpEE12forward_incrERNS_11ForwardArgsINS0_6ad_augEEE"
 "_ZN5TMBad6global8CompleteINS_7RoundOpEE12reverse_decrERNS_11ReverseArgsIbEE"
 "_ZN5TMBad6global8CompleteINS_7RoundOpEE12reverse_decrERNS_11ReverseArgsIdEE"
 "_ZN5TMBad6global8CompleteINS_7RoundOpEE12reverse_decrERNS_11ReverseArgsINS_6WriterEEE"
 "_ZN5TMBad6global8CompleteINS_7RoundOpEE12reverse_decrERNS_11ReverseArgsINS0_6ad_augEEE"
 "_ZN5TMBad6global8CompleteINS_7RoundOpEE13operator_dataEv"
 "_ZN5TMBad6global8CompleteINS_7RoundOpEE23forward_incr_mark_denseERNS_11ForwardArgsIbEE"
 "_ZN5TMBad6global8CompleteINS_7RoundOpEE4copyEv"
 "_ZN5TMBad6global8CompleteINS_7RoundOpEE4infoEv"
 "_ZN5TMBad6global8CompleteINS_7RoundOpEE5printENS0_12print_configE"
 "_ZN5TMBad6global8CompleteINS_7RoundOpEE7forwardERNS_11ForwardArgsIbEE"
 "_ZN5TMBad6global8CompleteINS_7RoundOpEE7forwardERNS_11ForwardArgsIdEE"
 "_ZN5TMBad6global8CompleteINS_7RoundOpEE7forwardERNS_11ForwardArgsINS_6WriterEEE"
 "_ZN5TMBad6global8CompleteINS_7RoundOpEE7forwardERNS_11ForwardArgsINS0_6ad_augEEE"
 "_ZN5TMBad6global8CompleteINS_7RoundOpEE7op_nameEv"
 "_ZN5TMBad6global8CompleteINS_7RoundOpEE7reverseERNS_11ReverseArgsIbEE"
 "_ZN5TMBad6global8CompleteINS_7RoundOpEE7reverseERNS_11ReverseArgsIdEE"
 "_ZN5TMBad6global8CompleteINS_7RoundOpEE7reverseERNS_11ReverseArgsINS_6WriterEEE"
 "_ZN5TMBad6global8CompleteINS_7RoundOpEE7reverseERNS_11ReverseArgsINS0_6ad_augEEE"
 "_ZN5TMBad6global8CompleteINS_7RoundOpEE9decrementERSt4pairIjjE"
 "_ZN5TMBad6global8CompleteINS_7RoundOpEE9incrementERSt4pairIjjE"
 "_ZN5TMBad6global8CompleteINS_7RoundOpEE9self_fuseEv"
 "_ZN5TMBad6global8CompleteINS_7RoundOpEED0Ev"
 "_ZN5TMBad6global8CompleteINS_7RoundOpEED1Ev"
 "_ZN5TMBad6global8CompleteINS_7StackOpEE10deallocateEv"
 "_ZN5TMBad6global8CompleteINS_7StackOpEE10identifierEv"
 "_ZN5TMBad6global8CompleteINS_7StackOpEE10incompleteEv"
 "_ZN5TMBad6global8CompleteINS_7StackOpEE10input_sizeEv"
 "_ZN5TMBad6global8CompleteINS_7StackOpEE10other_fuseEPNS0_12OperatorPureE"
 "_ZN5TMBad6global8CompleteINS_7StackOpEE11output_sizeEv"
 "_ZN5TMBad6global8CompleteINS_7StackOpEE12dependenciesERNS_4ArgsIvEERNS_12DependenciesE"
 "_ZN5TMBad6global8CompleteINS_7StackOpEE12forward_incrERNS_11ForwardArgsIbEE"
 "_ZN5TMBad6global8CompleteINS_7StackOpEE12forward_incrERNS_11ForwardArgsIdEE"
 "_ZN5TMBad6global8CompleteINS_7StackOpEE12forward_incrERNS_11ForwardArgsINS_6WriterEEE"
 "_ZN5TMBad6global8CompleteINS_7StackOpEE12forward_incrERNS_11ForwardArgsINS0_6ad_augEEE"
 "_ZN5TMBad6global8CompleteINS_7StackOpEE12reverse_decrERNS_11ReverseArgsIbEE"
 "_ZN5TMBad6global8CompleteINS_7StackOpEE12reverse_decrERNS_11ReverseArgsIdEE"
 "_ZN5TMBad6global8CompleteINS_7StackOpEE12reverse_decrERNS_11ReverseArgsINS_6WriterEEE"
 "_ZN5TMBad6global8CompleteINS_7StackOpEE12reverse_decrERNS_11ReverseArgsINS0_6ad_augEEE"
 "_ZN5TMBad6global8CompleteINS_7StackOpEE13operator_dataEv"
 "_ZN5TMBad6global8CompleteINS_7StackOpEE23forward_incr_mark_denseERNS_11ForwardArgsIbEE"
 "_ZN5TMBad6global8CompleteINS_7StackOpEE4copyEv"
 "_ZN5TMBad6global8CompleteINS_7StackOpEE4infoEv"
 "_ZN5TMBad6global8CompleteINS_7StackOpEE5printENS0_12print_configE"
 "_ZN5TMBad6global8CompleteINS_7StackOpEE7forwardERNS_11ForwardArgsIbEE"
 "_ZN5TMBad6global8CompleteINS_7StackOpEE7forwardERNS_11ForwardArgsIdEE"
 "_ZN5TMBad6global8CompleteINS_7StackOpEE7forwardERNS_11ForwardArgsINS_6WriterEEE"
 "_ZN5TMBad6global8CompleteINS_7StackOpEE7forwardERNS_11ForwardArgsINS0_6ad_augEEE"
 "_ZN5TMBad6global8CompleteINS_7StackOpEE7op_nameEv"
 "_ZN5TMBad6global8CompleteINS_7StackOpEE7reverseERNS_11ReverseArgsIbEE"
 "_ZN5TMBad6global8CompleteINS_7StackOpEE7reverseERNS_11ReverseArgsIdEE"
 "_ZN5TMBad6global8CompleteINS_7StackOpEE7reverseERNS_11ReverseArgsINS_6WriterEEE"
 "_ZN5TMBad6global8CompleteINS_7StackOpEE7reverseERNS_11ReverseArgsINS0_6ad_augEEE"
 "_ZN5TMBad6global8CompleteINS_7StackOpEE9decrementERSt4pairIjjE"
 "_ZN5TMBad6global8CompleteINS_7StackOpEE9incrementERSt4pairIjjE"
 "_ZN5TMBad6global8CompleteINS_7StackOpEE9self_fuseEv"
 "_ZN5TMBad6global8CompleteINS_7StackOpEED0Ev"
 "_ZN5TMBad6global8CompleteINS_7StackOpEED1Ev"
 "_ZN5TMBad6global8CompleteINS_7TruncOpEE10deallocateEv"
 "_ZN5TMBad6global8CompleteINS_7TruncOpEE10identifierEv"
 "_ZN5TMBad6global8CompleteINS_7TruncOpEE10incompleteEv"
 "_ZN5TMBad6global8CompleteINS_7TruncOpEE10input_sizeEv"
 "_ZN5TMBad6global8CompleteINS_7TruncOpEE10other_fuseEPNS0_12OperatorPureE"
 "_ZN5TMBad6global8CompleteINS_7TruncOpEE11output_sizeEv"
 "_ZN5TMBad6global8CompleteINS_7TruncOpEE12dependenciesERNS_4ArgsIvEERNS_12DependenciesE"
 "_ZN5TMBad6global8CompleteINS_7TruncOpEE12forward_incrERNS_11ForwardArgsIbEE"
 "_ZN5TMBad6global8CompleteINS_7TruncOpEE12forward_incrERNS_11ForwardArgsIdEE"
 "_ZN5TMBad6global8CompleteINS_7TruncOpEE12forward_incrERNS_11ForwardArgsINS_6WriterEEE"
 "_ZN5TMBad6global8CompleteINS_7TruncOpEE12forward_incrERNS_11ForwardArgsINS0_6ad_augEEE"
 "_ZN5TMBad6global8CompleteINS_7TruncOpEE12reverse_decrERNS_11ReverseArgsIbEE"
 "_ZN5TMBad6global8CompleteINS_7TruncOpEE12reverse_decrERNS_11ReverseArgsIdEE"
 "_ZN5TMBad6global8CompleteINS_7TruncOpEE12reverse_decrERNS_11ReverseArgsINS_6WriterEEE"
 "_ZN5TMBad6global8CompleteINS_7TruncOpEE12reverse_decrERNS_11ReverseArgsINS0_6ad_augEEE"
 "_ZN5TMBad6global8CompleteINS_7TruncOpEE13operator_dataEv"
 "_ZN5TMBad6global8CompleteINS_7TruncOpEE23forward_incr_mark_denseERNS_11ForwardArgsIbEE"
 "_ZN5TMBad6global8CompleteINS_7TruncOpEE4copyEv"
 "_ZN5TMBad6global8CompleteINS_7TruncOpEE4infoEv"
 "_ZN5TMBad6global8CompleteINS_7TruncOpEE5printENS0_12print_configE"
 "_ZN5TMBad6global8CompleteINS_7TruncOpEE7forwardERNS_11ForwardArgsIbEE"
 "_ZN5TMBad6global8CompleteINS_7TruncOpEE7forwardERNS_11ForwardArgsIdEE"
 "_ZN5TMBad6global8CompleteINS_7TruncOpEE7forwardERNS_11ForwardArgsINS_6WriterEEE"
 "_ZN5TMBad6global8CompleteINS_7TruncOpEE7forwardERNS_11ForwardArgsINS0_6ad_augEEE"
 "_ZN5TMBad6global8CompleteINS_7TruncOpEE7op_nameEv"
 "_ZN5TMBad6global8CompleteINS_7TruncOpEE7reverseERNS_11ReverseArgsIbEE"
 "_ZN5TMBad6global8CompleteINS_7TruncOpEE7reverseERNS_11ReverseArgsIdEE"
 "_ZN5TMBad6global8CompleteINS_7TruncOpEE7reverseERNS_11ReverseArgsINS_6WriterEEE"
 "_ZN5TMBad6global8CompleteINS_7TruncOpEE7reverseERNS_11ReverseArgsINS0_6ad_augEEE"
 "_ZN5TMBad6global8CompleteINS_7TruncOpEE9decrementERSt4pairIjjE"
 "_ZN5TMBad6global8CompleteINS_7TruncOpEE9incrementERSt4pairIjjE"
 "_ZN5TMBad6global8CompleteINS_7TruncOpEE9self_fuseEv"
 "_ZN5TMBad6global8CompleteINS_7TruncOpEED0Ev"
 "_ZN5TMBad6global8CompleteINS_7TruncOpEED1Ev"
 "_ZN5TMBad6global8CompleteINS0_3RepIN6atomic14logspace_addOpILi0ELi2ELi1ELl9EEEEEE10deallocateEv"
 "_ZN5TMBad6global8CompleteINS0_3RepIN6atomic14logspace_addOpILi0ELi2ELi1ELl9EEEEEE10identifierEv"
 "_ZN5TMBad6global8CompleteINS0_3RepIN6atomic14logspace_addOpILi0ELi2ELi1ELl9EEEEEE10incompleteEv"
 "_ZN5TMBad6global8CompleteINS0_3RepIN6atomic14logspace_addOpILi0ELi2ELi1ELl9EEEEEE10input_sizeEv"
 "_ZN5TMBad6global8CompleteINS0_3RepIN6atomic14logspace_addOpILi0ELi2ELi1ELl9EEEEEE10other_fuseEPNS0_12OperatorPureE"
 "_ZN5TMBad6global8CompleteINS0_3RepIN6atomic14logspace_addOpILi0ELi2ELi1ELl9EEEEEE11output_sizeEv"
 "_ZN5TMBad6global8CompleteINS0_3RepIN6atomic14logspace_addOpILi0ELi2ELi1ELl9EEEEEE12dependenciesERNS_4ArgsIvEERNS_12DependenciesE"
 "_ZN5TMBad6global8CompleteINS0_3RepIN6atomic14logspace_addOpILi0ELi2ELi1ELl9EEEEEE12forward_incrERNS_11ForwardArgsIbEE"
 "_ZN5TMBad6global8CompleteINS0_3RepIN6atomic14logspace_addOpILi0ELi2ELi1ELl9EEEEEE12forward_incrERNS_11ForwardArgsIdEE"
 "_ZN5TMBad6global8CompleteINS0_3RepIN6atomic14logspace_addOpILi0ELi2ELi1ELl9EEEEEE12forward_incrERNS_11ForwardArgsINS_6WriterEEE"
 "_ZN5TMBad6global8CompleteINS0_3RepIN6atomic14logspace_addOpILi0ELi2ELi1ELl9EEEEEE12forward_incrERNS_11ForwardArgsINS0_6ad_augEEE"
 "_ZN5TMBad6global8CompleteINS0_3RepIN6atomic14logspace_addOpILi0ELi2ELi1ELl9EEEEEE12reverse_decrERNS_11ReverseArgsIbEE"
 "_ZN5TMBad6global8CompleteINS0_3RepIN6atomic14logspace_addOpILi0ELi2ELi1ELl9EEEEEE12reverse_decrERNS_11ReverseArgsIdEE"
 "_ZN5TMBad6global8CompleteINS0_3RepIN6atomic14logspace_addOpILi0ELi2ELi1ELl9EEEEEE12reverse_decrERNS_11ReverseArgsINS_6WriterEEE"
 "_ZN5TMBad6global8CompleteINS0_3RepIN6atomic14logspace_addOpILi0ELi2ELi1ELl9EEEEEE12reverse_decrERNS_11ReverseArgsINS0_6ad_augEEE"
 "_ZN5TMBad6global8CompleteINS0_3RepIN6atomic14logspace_addOpILi0ELi2ELi1ELl9EEEEEE13operator_dataEv"
 "_ZN5TMBad6global8CompleteINS0_3RepIN6atomic14logspace_addOpILi0ELi2ELi1ELl9EEEEEE23forward_incr_mark_denseERNS_11ForwardArgsIbEE"
 "_ZN5TMBad6global8CompleteINS0_3RepIN6atomic14logspace_addOpILi0ELi2ELi1ELl9EEEEEE4copyEv"
 "_ZN5TMBad6global8CompleteINS0_3RepIN6atomic14logspace_addOpILi0ELi2ELi1ELl9EEEEEE4infoEv"
 "_ZN5TMBad6global8CompleteINS0_3RepIN6atomic14logspace_addOpILi0ELi2ELi1ELl9EEEEEE5printENS0_12print_configE"
 "_ZN5TMBad6global8CompleteINS0_3RepIN6atomic14logspace_addOpILi0ELi2ELi1ELl9EEEEEE7forwardERNS_11ForwardArgsIbEE"
 "_ZN5TMBad6global8CompleteINS0_3RepIN6atomic14logspace_addOpILi0ELi2ELi1ELl9EEEEEE7forwardERNS_11ForwardArgsIdEE"
 "_ZN5TMBad6global8CompleteINS0_3RepIN6atomic14logspace_addOpILi0ELi2ELi1ELl9EEEEEE7forwardERNS_11ForwardArgsINS_6WriterEEE"
 "_ZN5TMBad6global8CompleteINS0_3RepIN6atomic14logspace_addOpILi0ELi2ELi1ELl9EEEEEE7forwardERNS_11ForwardArgsINS0_6ad_augEEE"
 "_ZN5TMBad6global8CompleteINS0_3RepIN6atomic14logspace_addOpILi0ELi2ELi1ELl9EEEEEE7op_nameEv"
 "_ZN5TMBad6global8CompleteINS0_3RepIN6atomic14logspace_addOpILi0ELi2ELi1ELl9EEEEEE7reverseERNS_11ReverseArgsIbEE"
 "_ZN5TMBad6global8CompleteINS0_3RepIN6atomic14logspace_addOpILi0ELi2ELi1ELl9EEEEEE7reverseERNS_11ReverseArgsIdEE"
 "_ZN5TMBad6global8CompleteINS0_3RepIN6atomic14logspace_addOpILi0ELi2ELi1ELl9EEEEEE7reverseERNS_11ReverseArgsINS_6WriterEEE"
 "_ZN5TMBad6global8CompleteINS0_3RepIN6atomic14logspace_addOpILi0ELi2ELi1ELl9EEEEEE7reverseERNS_11ReverseArgsINS0_6ad_augEEE"
 "_ZN5TMBad6global8CompleteINS0_3RepIN6atomic14logspace_addOpILi0ELi2ELi1ELl9EEEEEE9decrementERSt4pairIjjE"
 "_ZN5TMBad6global8CompleteINS0_3RepIN6atomic14logspace_addOpILi0ELi2ELi1ELl9EEEEEE9incrementERSt4pairIjjE"
 "_ZN5TMBad6global8CompleteINS0_3RepIN6atomic14logspace_addOpILi0ELi2ELi1ELl9EEEEEE9self_fuseEv"
 "_ZN5TMBad6global8CompleteINS0_3RepIN6atomic14logspace_addOpILi0ELi2ELi1ELl9EEEEEED0Ev"
 "_ZN5TMBad6global8CompleteINS0_3RepIN6atomic14logspace_addOpILi0ELi2ELi1ELl9EEEEEED1Ev"
 "_ZN5TMBad6global8CompleteINS0_3RepIN6atomic14logspace_addOpILi1ELi2ELi2ELl9EEEEEE10deallocateEv"
 "_ZN5TMBad6global8CompleteINS0_3RepIN6atomic14logspace_addOpILi1ELi2ELi2ELl9EEEEEE10identifierEv"
 "_ZN5TMBad6global8CompleteINS0_3RepIN6atomic14logspace_addOpILi1ELi2ELi2ELl9EEEEEE10incompleteEv"
 "_ZN5TMBad6global8CompleteINS0_3RepIN6atomic14logspace_addOpILi1ELi2ELi2ELl9EEEEEE10input_sizeEv"
 "_ZN5TMBad6global8CompleteINS0_3RepIN6atomic14logspace_addOpILi1ELi2ELi2ELl9EEEEEE10other_fuseEPNS0_12OperatorPureE"
 "_ZN5TMBad6global8CompleteINS0_3RepIN6atomic14logspace_addOpILi1ELi2ELi2ELl9EEEEEE11output_sizeEv"
 "_ZN5TMBad6global8CompleteINS0_3RepIN6atomic14logspace_addOpILi1ELi2ELi2ELl9EEEEEE12dependenciesERNS_4ArgsIvEERNS_12DependenciesE"
 "_ZN5TMBad6global8CompleteINS0_3RepIN6atomic14logspace_addOpILi1ELi2ELi2ELl9EEEEEE12forward_incrERNS_11ForwardArgsIbEE"
 "_ZN5TMBad6global8CompleteINS0_3RepIN6atomic14logspace_addOpILi1ELi2ELi2ELl9EEEEEE12forward_incrERNS_11ForwardArgsIdEE"
 "_ZN5TMBad6global8CompleteINS0_3RepIN6atomic14logspace_addOpILi1ELi2ELi2ELl9EEEEEE12forward_incrERNS_11ForwardArgsINS_6WriterEEE"
 "_ZN5TMBad6global8CompleteINS0_3RepIN6atomic14logspace_addOpILi1ELi2ELi2ELl9EEEEEE12forward_incrERNS_11ForwardArgsINS0_6ad_augEEE"
 "_ZN5TMBad6global8CompleteINS0_3RepIN6atomic14logspace_addOpILi1ELi2ELi2ELl9EEEEEE12reverse_decrERNS_11ReverseArgsIbEE"
 "_ZN5TMBad6global8CompleteINS0_3RepIN6atomic14logspace_addOpILi1ELi2ELi2ELl9EEEEEE12reverse_decrERNS_11ReverseArgsIdEE"
 "_ZN5TMBad6global8CompleteINS0_3RepIN6atomic14logspace_addOpILi1ELi2ELi2ELl9EEEEEE12reverse_decrERNS_11ReverseArgsINS_6WriterEEE"
 "_ZN5TMBad6global8CompleteINS0_3RepIN6atomic14logspace_addOpILi1ELi2ELi2ELl9EEEEEE12reverse_decrERNS_11ReverseArgsINS0_6ad_augEEE"
 "_ZN5TMBad6global8CompleteINS0_3RepIN6atomic14logspace_addOpILi1ELi2ELi2ELl9EEEEEE13operator_dataEv"
 "_ZN5TMBad6global8CompleteINS0_3RepIN6atomic14logspace_addOpILi1ELi2ELi2ELl9EEEEEE23forward_incr_mark_denseERNS_11ForwardArgsIbEE"
 "_ZN5TMBad6global8CompleteINS0_3RepIN6atomic14logspace_addOpILi1ELi2ELi2ELl9EEEEEE4copyEv"
 "_ZN5TMBad6global8CompleteINS0_3RepIN6atomic14logspace_addOpILi1ELi2ELi2ELl9EEEEEE4infoEv"
 "_ZN5TMBad6global8CompleteINS0_3RepIN6atomic14logspace_addOpILi1ELi2ELi2ELl9EEEEEE5printENS0_12print_configE"
 "_ZN5TMBad6global8CompleteINS0_3RepIN6atomic14logspace_addOpILi1ELi2ELi2ELl9EEEEEE7forwardERNS_11ForwardArgsIbEE"
 "_ZN5TMBad6global8CompleteINS0_3RepIN6atomic14logspace_addOpILi1ELi2ELi2ELl9EEEEEE7forwardERNS_11ForwardArgsIdEE"
 "_ZN5TMBad6global8CompleteINS0_3RepIN6atomic14logspace_addOpILi1ELi2ELi2ELl9EEEEEE7forwardERNS_11ForwardArgsINS_6WriterEEE"
 "_ZN5TMBad6global8CompleteINS0_3RepIN6atomic14logspace_addOpILi1ELi2ELi2ELl9EEEEEE7forwardERNS_11ForwardArgsINS0_6ad_augEEE"
 "_ZN5TMBad6global8CompleteINS0_3RepIN6atomic14logspace_addOpILi1ELi2ELi2ELl9EEEEEE7op_nameEv"
 "_ZN5TMBad6global8CompleteINS0_3RepIN6atomic14logspace_addOpILi1ELi2ELi2ELl9EEEEEE7reverseERNS_11ReverseArgsIbEE"
 "_ZN5TMBad6global8CompleteINS0_3RepIN6atomic14logspace_addOpILi1ELi2ELi2ELl9EEEEEE7reverseERNS_11ReverseArgsIdEE"
 "_ZN5TMBad6global8CompleteINS0_3RepIN6atomic14logspace_addOpILi1ELi2ELi2ELl9EEEEEE7reverseERNS_11ReverseArgsINS_6WriterEEE"
 "_ZN5TMBad6global8CompleteINS0_3RepIN6atomic14logspace_addOpILi1ELi2ELi2ELl9EEEEEE7reverseERNS_11ReverseArgsINS0_6ad_augEEE"
 "_ZN5TMBad6global8CompleteINS0_3RepIN6atomic14logspace_addOpILi1ELi2ELi2ELl9EEEEEE9decrementERSt4pairIjjE"
 "_ZN5TMBad6global8CompleteINS0_3RepIN6atomic14logspace_addOpILi1ELi2ELi2ELl9EEEEEE9incrementERSt4pairIjjE"
 "_ZN5TMBad6global8CompleteINS0_3RepIN6atomic14logspace_addOpILi1ELi2ELi2ELl9EEEEEE9self_fuseEv"
 "_ZN5TMBad6global8CompleteINS0_3RepIN6atomic14logspace_addOpILi1ELi2ELi2ELl9EEEEEED0Ev"
 "_ZN5TMBad6global8CompleteINS0_3RepIN6atomic14logspace_addOpILi1ELi2ELi2ELl9EEEEEED1Ev"
 "_ZN5TMBad6global8CompleteINS0_3RepIN6atomic14logspace_addOpILi2ELi2ELi4ELl9EEEEEE10deallocateEv"
 "_ZN5TMBad6global8CompleteINS0_3RepIN6atomic14logspace_addOpILi2ELi2ELi4ELl9EEEEEE10identifierEv"
 "_ZN5TMBad6global8CompleteINS0_3RepIN6atomic14logspace_addOpILi2ELi2ELi4ELl9EEEEEE10incompleteEv"
 "_ZN5TMBad6global8CompleteINS0_3RepIN6atomic14logspace_addOpILi2ELi2ELi4ELl9EEEEEE10input_sizeEv"
 "_ZN5TMBad6global8CompleteINS0_3RepIN6atomic14logspace_addOpILi2ELi2ELi4ELl9EEEEEE10other_fuseEPNS0_12OperatorPureE"
 "_ZN5TMBad6global8CompleteINS0_3RepIN6atomic14logspace_addOpILi2ELi2ELi4ELl9EEEEEE11output_sizeEv"
 "_ZN5TMBad6global8CompleteINS0_3RepIN6atomic14logspace_addOpILi2ELi2ELi4ELl9EEEEEE12dependenciesERNS_4ArgsIvEERNS_12DependenciesE"
 "_ZN5TMBad6global8CompleteINS0_3RepIN6atomic14logspace_addOpILi2ELi2ELi4ELl9EEEEEE12forward_incrERNS_11ForwardArgsIbEE"
 "_ZN5TMBad6global8CompleteINS0_3RepIN6atomic14logspace_addOpILi2ELi2ELi4ELl9EEEEEE12forward_incrERNS_11ForwardArgsIdEE"
 "_ZN5TMBad6global8CompleteINS0_3RepIN6atomic14logspace_addOpILi2ELi2ELi4ELl9EEEEEE12forward_incrERNS_11ForwardArgsINS_6WriterEEE"
 "_ZN5TMBad6global8CompleteINS0_3RepIN6atomic14logspace_addOpILi2ELi2ELi4ELl9EEEEEE12forward_incrERNS_11ForwardArgsINS0_6ad_augEEE"
 "_ZN5TMBad6global8CompleteINS0_3RepIN6atomic14logspace_addOpILi2ELi2ELi4ELl9EEEEEE12reverse_decrERNS_11ReverseArgsIbEE"
 "_ZN5TMBad6global8CompleteINS0_3RepIN6atomic14logspace_addOpILi2ELi2ELi4ELl9EEEEEE12reverse_decrERNS_11ReverseArgsIdEE"
 "_ZN5TMBad6global8CompleteINS0_3RepIN6atomic14logspace_addOpILi2ELi2ELi4ELl9EEEEEE12reverse_decrERNS_11ReverseArgsINS_6WriterEEE"
 "_ZN5TMBad6global8CompleteINS0_3RepIN6atomic14logspace_addOpILi2ELi2ELi4ELl9EEEEEE12reverse_decrERNS_11ReverseArgsINS0_6ad_augEEE"
 "_ZN5TMBad6global8CompleteINS0_3RepIN6atomic14logspace_addOpILi2ELi2ELi4ELl9EEEEEE13operator_dataEv"
 "_ZN5TMBad6global8CompleteINS0_3RepIN6atomic14logspace_addOpILi2ELi2ELi4ELl9EEEEEE23forward_incr_mark_denseERNS_11ForwardArgsIbEE"
 "_ZN5TMBad6global8CompleteINS0_3RepIN6atomic14logspace_addOpILi2ELi2ELi4ELl9EEEEEE4copyEv"
 "_ZN5TMBad6global8CompleteINS0_3RepIN6atomic14logspace_addOpILi2ELi2ELi4ELl9EEEEEE4infoEv"
 "_ZN5TMBad6global8CompleteINS0_3RepIN6atomic14logspace_addOpILi2ELi2ELi4ELl9EEEEEE5printENS0_12print_configE"
 "_ZN5TMBad6global8CompleteINS0_3RepIN6atomic14logspace_addOpILi2ELi2ELi4ELl9EEEEEE7forwardERNS_11ForwardArgsIbEE"
 "_ZN5TMBad6global8CompleteINS0_3RepIN6atomic14logspace_addOpILi2ELi2ELi4ELl9EEEEEE7forwardERNS_11ForwardArgsIdEE"
 "_ZN5TMBad6global8CompleteINS0_3RepIN6atomic14logspace_addOpILi2ELi2ELi4ELl9EEEEEE7forwardERNS_11ForwardArgsINS_6WriterEEE"
 "_ZN5TMBad6global8CompleteINS0_3RepIN6atomic14logspace_addOpILi2ELi2ELi4ELl9EEEEEE7forwardERNS_11ForwardArgsINS0_6ad_augEEE"
 "_ZN5TMBad6global8CompleteINS0_3RepIN6atomic14logspace_addOpILi2ELi2ELi4ELl9EEEEEE7op_nameEv"
 "_ZN5TMBad6global8CompleteINS0_3RepIN6atomic14logspace_addOpILi2ELi2ELi4ELl9EEEEEE7reverseERNS_11ReverseArgsIbEE"
 "_ZN5TMBad6global8CompleteINS0_3RepIN6atomic14logspace_addOpILi2ELi2ELi4ELl9EEEEEE7reverseERNS_11ReverseArgsIdEE"
 "_ZN5TMBad6global8CompleteINS0_3RepIN6atomic14logspace_addOpILi2ELi2ELi4ELl9EEEEEE7reverseERNS_11ReverseArgsINS_6WriterEEE"
 "_ZN5TMBad6global8CompleteINS0_3RepIN6atomic14logspace_addOpILi2ELi2ELi4ELl9EEEEEE7reverseERNS_11ReverseArgsINS0_6ad_augEEE"
 "_ZN5TMBad6global8CompleteINS0_3RepIN6atomic14logspace_addOpILi2ELi2ELi4ELl9EEEEEE9decrementERSt4pairIjjE"
 "_ZN5TMBad6global8CompleteINS0_3RepIN6atomic14logspace_addOpILi2ELi2ELi4ELl9EEEEEE9incrementERSt4pairIjjE"
 "_ZN5TMBad6global8CompleteINS0_3RepIN6atomic14logspace_addOpILi2ELi2ELi4ELl9EEEEEE9self_fuseEv"
 "_ZN5TMBad6global8CompleteINS0_3RepIN6atomic14logspace_addOpILi2ELi2ELi4ELl9EEEEEED0Ev"
 "_ZN5TMBad6global8CompleteINS0_3RepIN6atomic14logspace_addOpILi2ELi2ELi4ELl9EEEEEED1Ev"
 "_ZN5TMBad6global8CompleteINS0_3RepIN6atomic14logspace_addOpILi3ELi2ELi8ELl9EEEEEE10deallocateEv"
 "_ZN5TMBad6global8CompleteINS0_3RepIN6atomic14logspace_addOpILi3ELi2ELi8ELl9EEEEEE10identifierEv"
 "_ZN5TMBad6global8CompleteINS0_3RepIN6atomic14logspace_addOpILi3ELi2ELi8ELl9EEEEEE10incompleteEv"
 "_ZN5TMBad6global8CompleteINS0_3RepIN6atomic14logspace_addOpILi3ELi2ELi8ELl9EEEEEE10input_sizeEv"
 "_ZN5TMBad6global8CompleteINS0_3RepIN6atomic14logspace_addOpILi3ELi2ELi8ELl9EEEEEE10other_fuseEPNS0_12OperatorPureE"
 "_ZN5TMBad6global8CompleteINS0_3RepIN6atomic14logspace_addOpILi3ELi2ELi8ELl9EEEEEE11output_sizeEv"
 "_ZN5TMBad6global8CompleteINS0_3RepIN6atomic14logspace_addOpILi3ELi2ELi8ELl9EEEEEE12dependenciesERNS_4ArgsIvEERNS_12DependenciesE"
 "_ZN5TMBad6global8CompleteINS0_3RepIN6atomic14logspace_addOpILi3ELi2ELi8ELl9EEEEEE12forward_incrERNS_11ForwardArgsIbEE"
 "_ZN5TMBad6global8CompleteINS0_3RepIN6atomic14logspace_addOpILi3ELi2ELi8ELl9EEEEEE12forward_incrERNS_11ForwardArgsIdEE"
 "_ZN5TMBad6global8CompleteINS0_3RepIN6atomic14logspace_addOpILi3ELi2ELi8ELl9EEEEEE12forward_incrERNS_11ForwardArgsINS_6WriterEEE"
 "_ZN5TMBad6global8CompleteINS0_3RepIN6atomic14logspace_addOpILi3ELi2ELi8ELl9EEEEEE12forward_incrERNS_11ForwardArgsINS0_6ad_augEEE"
 "_ZN5TMBad6global8CompleteINS0_3RepIN6atomic14logspace_addOpILi3ELi2ELi8ELl9EEEEEE12reverse_decrERNS_11ReverseArgsIbEE"
 "_ZN5TMBad6global8CompleteINS0_3RepIN6atomic14logspace_addOpILi3ELi2ELi8ELl9EEEEEE12reverse_decrERNS_11ReverseArgsIdEE"
 "_ZN5TMBad6global8CompleteINS0_3RepIN6atomic14logspace_addOpILi3ELi2ELi8ELl9EEEEEE12reverse_decrERNS_11ReverseArgsINS_6WriterEEE"
 "_ZN5TMBad6global8CompleteINS0_3RepIN6atomic14logspace_addOpILi3ELi2ELi8ELl9EEEEEE12reverse_decrERNS_11ReverseArgsINS0_6ad_augEEE"
 "_ZN5TMBad6global8CompleteINS0_3RepIN6atomic14logspace_addOpILi3ELi2ELi8ELl9EEEEEE13operator_dataEv"
 "_ZN5TMBad6global8CompleteINS0_3RepIN6atomic14logspace_addOpILi3ELi2ELi8ELl9EEEEEE23forward_incr_mark_denseERNS_11ForwardArgsIbEE"
 "_ZN5TMBad6global8CompleteINS0_3RepIN6atomic14logspace_addOpILi3ELi2ELi8ELl9EEEEEE4copyEv"
 "_ZN5TMBad6global8CompleteINS0_3RepIN6atomic14logspace_addOpILi3ELi2ELi8ELl9EEEEEE4infoEv"
 "_ZN5TMBad6global8CompleteINS0_3RepIN6atomic14logspace_addOpILi3ELi2ELi8ELl9EEEEEE5printENS0_12print_configE"
 "_ZN5TMBad6global8CompleteINS0_3RepIN6atomic14logspace_addOpILi3ELi2ELi8ELl9EEEEEE7forwardERNS_11ForwardArgsIbEE"
 "_ZN5TMBad6global8CompleteINS0_3RepIN6atomic14logspace_addOpILi3ELi2ELi8ELl9EEEEEE7forwardERNS_11ForwardArgsIdEE"
 "_ZN5TMBad6global8CompleteINS0_3RepIN6atomic14logspace_addOpILi3ELi2ELi8ELl9EEEEEE7forwardERNS_11ForwardArgsINS_6WriterEEE"
 "_ZN5TMBad6global8CompleteINS0_3RepIN6atomic14logspace_addOpILi3ELi2ELi8ELl9EEEEEE7forwardERNS_11ForwardArgsINS0_6ad_augEEE"
 "_ZN5TMBad6global8CompleteINS0_3RepIN6atomic14logspace_addOpILi3ELi2ELi8ELl9EEEEEE7op_nameEv"
 "_ZN5TMBad6global8CompleteINS0_3RepIN6atomic14logspace_addOpILi3ELi2ELi8ELl9EEEEEE7reverseERNS_11ReverseArgsIbEE"
 "_ZN5TMBad6global8CompleteINS0_3RepIN6atomic14logspace_addOpILi3ELi2ELi8ELl9EEEEEE7reverseERNS_11ReverseArgsIdEE"
 "_ZN5TMBad6global8CompleteINS0_3RepIN6atomic14logspace_addOpILi3ELi2ELi8ELl9EEEEEE7reverseERNS_11ReverseArgsINS_6WriterEEE"
 "_ZN5TMBad6global8CompleteINS0_3RepIN6atomic14logspace_addOpILi3ELi2ELi8ELl9EEEEEE7reverseERNS_11ReverseArgsINS0_6ad_augEEE"
 "_ZN5TMBad6global8CompleteINS0_3RepIN6atomic14logspace_addOpILi3ELi2ELi8ELl9EEEEEE9decrementERSt4pairIjjE"
 "_ZN5TMBad6global8CompleteINS0_3RepIN6atomic14logspace_addOpILi3ELi2ELi8ELl9EEEEEE9incrementERSt4pairIjjE"
 "_ZN5TMBad6global8CompleteINS0_3RepIN6atomic14logspace_addOpILi3ELi2ELi8ELl9EEEEEE9self_fuseEv"
 "_ZN5TMBad6global8CompleteINS0_3RepIN6atomic14logspace_addOpILi3ELi2ELi8ELl9EEEEEED0Ev"
 "_ZN5TMBad6global8CompleteINS0_3RepIN6atomic14logspace_addOpILi3ELi2ELi8ELl9EEEEEED1Ev"
 "_ZN5TMBad6global8CompleteINS0_3RepIN6newton5TagOpIvEEEEE10deallocateEv"
 "_ZN5TMBad6global8CompleteINS0_3RepIN6newton5TagOpIvEEEEE10identifierEv"
 "_ZN5TMBad6global8CompleteINS0_3RepIN6newton5TagOpIvEEEEE10incompleteEv"
 "_ZN5TMBad6global8CompleteINS0_3RepIN6newton5TagOpIvEEEEE10input_sizeEv"
 "_ZN5TMBad6global8CompleteINS0_3RepIN6newton5TagOpIvEEEEE10other_fuseEPNS0_12OperatorPureE"
 "_ZN5TMBad6global8CompleteINS0_3RepIN6newton5TagOpIvEEEEE11output_sizeEv"
 "_ZN5TMBad6global8CompleteINS0_3RepIN6newton5TagOpIvEEEEE12dependenciesERNS_4ArgsIvEERNS_12DependenciesE"
 "_ZN5TMBad6global8CompleteINS0_3RepIN6newton5TagOpIvEEEEE12forward_incrERNS_11ForwardArgsIbEE"
 "_ZN5TMBad6global8CompleteINS0_3RepIN6newton5TagOpIvEEEEE12forward_incrERNS_11ForwardArgsIdEE"
 "_ZN5TMBad6global8CompleteINS0_3RepIN6newton5TagOpIvEEEEE12forward_incrERNS_11ForwardArgsINS_6WriterEEE"
 "_ZN5TMBad6global8CompleteINS0_3RepIN6newton5TagOpIvEEEEE12forward_incrERNS_11ForwardArgsINS0_6ad_augEEE"
 "_ZN5TMBad6global8CompleteINS0_3RepIN6newton5TagOpIvEEEEE12reverse_decrERNS_11ReverseArgsIbEE"
 "_ZN5TMBad6global8CompleteINS0_3RepIN6newton5TagOpIvEEEEE12reverse_decrERNS_11ReverseArgsIdEE"
 "_ZN5TMBad6global8CompleteINS0_3RepIN6newton5TagOpIvEEEEE12reverse_decrERNS_11ReverseArgsINS_6WriterEEE"
 "_ZN5TMBad6global8CompleteINS0_3RepIN6newton5TagOpIvEEEEE12reverse_decrERNS_11ReverseArgsINS0_6ad_augEEE"
 "_ZN5TMBad6global8CompleteINS0_3RepIN6newton5TagOpIvEEEEE13operator_dataEv"
 "_ZN5TMBad6global8CompleteINS0_3RepIN6newton5TagOpIvEEEEE23forward_incr_mark_denseERNS_11ForwardArgsIbEE"
 "_ZN5TMBad6global8CompleteINS0_3RepIN6newton5TagOpIvEEEEE4copyEv"
 "_ZN5TMBad6global8CompleteINS0_3RepIN6newton5TagOpIvEEEEE4infoEv"
 "_ZN5TMBad6global8CompleteINS0_3RepIN6newton5TagOpIvEEEEE5printENS0_12print_configE"
 "_ZN5TMBad6global8CompleteINS0_3RepIN6newton5TagOpIvEEEEE7forwardERNS_11ForwardArgsIbEE"
 "_ZN5TMBad6global8CompleteINS0_3RepIN6newton5TagOpIvEEEEE7forwardERNS_11ForwardArgsIdEE"
 "_ZN5TMBad6global8CompleteINS0_3RepIN6newton5TagOpIvEEEEE7forwardERNS_11ForwardArgsINS_6WriterEEE"
 "_ZN5TMBad6global8CompleteINS0_3RepIN6newton5TagOpIvEEEEE7forwardERNS_11ForwardArgsINS0_6ad_augEEE"
 "_ZN5TMBad6global8CompleteINS0_3RepIN6newton5TagOpIvEEEEE7op_nameEv"
 "_ZN5TMBad6global8CompleteINS0_3RepIN6newton5TagOpIvEEEEE7reverseERNS_11ReverseArgsIbEE"
 "_ZN5TMBad6global8CompleteINS0_3RepIN6newton5TagOpIvEEEEE7reverseERNS_11ReverseArgsIdEE"
 "_ZN5TMBad6global8CompleteINS0_3RepIN6newton5TagOpIvEEEEE7reverseERNS_11ReverseArgsINS_6WriterEEE"
 "_ZN5TMBad6global8CompleteINS0_3RepIN6newton5TagOpIvEEEEE7reverseERNS_11ReverseArgsINS0_6ad_augEEE"
 "_ZN5TMBad6global8CompleteINS0_3RepIN6newton5TagOpIvEEEEE9decrementERSt4pairIjjE"
 "_ZN5TMBad6global8CompleteINS0_3RepIN6newton5TagOpIvEEEEE9incrementERSt4pairIjjE"
 "_ZN5TMBad6global8CompleteINS0_3RepIN6newton5TagOpIvEEEEE9self_fuseEv"
 "_ZN5TMBad6global8CompleteINS0_3RepIN6newton5TagOpIvEEEEED0Ev"
 "_ZN5TMBad6global8CompleteINS0_3RepIN6newton5TagOpIvEEEEED1Ev"
 "_ZN5TMBad6global8CompleteINS0_3RepINS_11CondExpEqOpEEEE10deallocateEv"
 "_ZN5TMBad6global8CompleteINS0_3RepINS_11CondExpEqOpEEEE10identifierEv"
 "_ZN5TMBad6global8CompleteINS0_3RepINS_11CondExpEqOpEEEE10incompleteEv"
 "_ZN5TMBad6global8CompleteINS0_3RepINS_11CondExpEqOpEEEE10input_sizeEv"
 "_ZN5TMBad6global8CompleteINS0_3RepINS_11CondExpEqOpEEEE10other_fuseEPNS0_12OperatorPureE"
 "_ZN5TMBad6global8CompleteINS0_3RepINS_11CondExpEqOpEEEE11output_sizeEv"
 "_ZN5TMBad6global8CompleteINS0_3RepINS_11CondExpEqOpEEEE12dependenciesERNS_4ArgsIvEERNS_12DependenciesE"
 "_ZN5TMBad6global8CompleteINS0_3RepINS_11CondExpEqOpEEEE12forward_incrERNS_11ForwardArgsIbEE"
 "_ZN5TMBad6global8CompleteINS0_3RepINS_11CondExpEqOpEEEE12forward_incrERNS_11ForwardArgsIdEE"
 "_ZN5TMBad6global8CompleteINS0_3RepINS_11CondExpEqOpEEEE12forward_incrERNS_11ForwardArgsINS_6WriterEEE"
 "_ZN5TMBad6global8CompleteINS0_3RepINS_11CondExpEqOpEEEE12forward_incrERNS_11ForwardArgsINS0_6ad_augEEE"
 "_ZN5TMBad6global8CompleteINS0_3RepINS_11CondExpEqOpEEEE12reverse_decrERNS_11ReverseArgsIbEE"
 "_ZN5TMBad6global8CompleteINS0_3RepINS_11CondExpEqOpEEEE12reverse_decrERNS_11ReverseArgsIdEE"
 "_ZN5TMBad6global8CompleteINS0_3RepINS_11CondExpEqOpEEEE12reverse_decrERNS_11ReverseArgsINS_6WriterEEE"
 "_ZN5TMBad6global8CompleteINS0_3RepINS_11CondExpEqOpEEEE12reverse_decrERNS_11ReverseArgsINS0_6ad_augEEE"
 "_ZN5TMBad6global8CompleteINS0_3RepINS_11CondExpEqOpEEEE13operator_dataEv"
 "_ZN5TMBad6global8CompleteINS0_3RepINS_11CondExpEqOpEEEE23forward_incr_mark_denseERNS_11ForwardArgsIbEE"
 "_ZN5TMBad6global8CompleteINS0_3RepINS_11CondExpEqOpEEEE4copyEv"
 "_ZN5TMBad6global8CompleteINS0_3RepINS_11CondExpEqOpEEEE4infoEv"
 "_ZN5TMBad6global8CompleteINS0_3RepINS_11CondExpEqOpEEEE5printENS0_12print_configE"
 "_ZN5TMBad6global8CompleteINS0_3RepINS_11CondExpEqOpEEEE7forwardERNS_11ForwardArgsIbEE"
 "_ZN5TMBad6global8CompleteINS0_3RepINS_11CondExpEqOpEEEE7forwardERNS_11ForwardArgsIdEE"
 "_ZN5TMBad6global8CompleteINS0_3RepINS_11CondExpEqOpEEEE7forwardERNS_11ForwardArgsINS_6WriterEEE"
 "_ZN5TMBad6global8CompleteINS0_3RepINS_11CondExpEqOpEEEE7forwardERNS_11ForwardArgsINS0_6ad_augEEE"
 "_ZN5TMBad6global8CompleteINS0_3RepINS_11CondExpEqOpEEEE7op_nameEv"
 "_ZN5TMBad6global8CompleteINS0_3RepINS_11CondExpEqOpEEEE7reverseERNS_11ReverseArgsIbEE"
 "_ZN5TMBad6global8CompleteINS0_3RepINS_11CondExpEqOpEEEE7reverseERNS_11ReverseArgsIdEE"
 "_ZN5TMBad6global8CompleteINS0_3RepINS_11CondExpEqOpEEEE7reverseERNS_11ReverseArgsINS_6WriterEEE"
 "_ZN5TMBad6global8CompleteINS0_3RepINS_11CondExpEqOpEEEE7reverseERNS_11ReverseArgsINS0_6ad_augEEE"
 "_ZN5TMBad6global8CompleteINS0_3RepINS_11CondExpEqOpEEEE9decrementERSt4pairIjjE"
 "_ZN5TMBad6global8CompleteINS0_3RepINS_11CondExpEqOpEEEE9incrementERSt4pairIjjE"
 "_ZN5TMBad6global8CompleteINS0_3RepINS_11CondExpEqOpEEEE9self_fuseEv"
 "_ZN5TMBad6global8CompleteINS0_3RepINS_11CondExpEqOpEEEED0Ev"
 "_ZN5TMBad6global8CompleteINS0_3RepINS_11CondExpEqOpEEEED1Ev"
 "_ZN5TMBad6global8CompleteINS0_3RepINS_11CondExpGeOpEEEE10deallocateEv"
 "_ZN5TMBad6global8CompleteINS0_3RepINS_11CondExpGeOpEEEE10identifierEv"
 "_ZN5TMBad6global8CompleteINS0_3RepINS_11CondExpGeOpEEEE10incompleteEv"
 "_ZN5TMBad6global8CompleteINS0_3RepINS_11CondExpGeOpEEEE10input_sizeEv"
 "_ZN5TMBad6global8CompleteINS0_3RepINS_11CondExpGeOpEEEE10other_fuseEPNS0_12OperatorPureE"
 "_ZN5TMBad6global8CompleteINS0_3RepINS_11CondExpGeOpEEEE11output_sizeEv"
 "_ZN5TMBad6global8CompleteINS0_3RepINS_11CondExpGeOpEEEE12dependenciesERNS_4ArgsIvEERNS_12DependenciesE"
 "_ZN5TMBad6global8CompleteINS0_3RepINS_11CondExpGeOpEEEE12forward_incrERNS_11ForwardArgsIbEE"
 "_ZN5TMBad6global8CompleteINS0_3RepINS_11CondExpGeOpEEEE12forward_incrERNS_11ForwardArgsIdEE"
 "_ZN5TMBad6global8CompleteINS0_3RepINS_11CondExpGeOpEEEE12forward_incrERNS_11ForwardArgsINS_6WriterEEE"
 "_ZN5TMBad6global8CompleteINS0_3RepINS_11CondExpGeOpEEEE12forward_incrERNS_11ForwardArgsINS0_6ad_augEEE"
 "_ZN5TMBad6global8CompleteINS0_3RepINS_11CondExpGeOpEEEE12reverse_decrERNS_11ReverseArgsIbEE"
 "_ZN5TMBad6global8CompleteINS0_3RepINS_11CondExpGeOpEEEE12reverse_decrERNS_11ReverseArgsIdEE"
 "_ZN5TMBad6global8CompleteINS0_3RepINS_11CondExpGeOpEEEE12reverse_decrERNS_11ReverseArgsINS_6WriterEEE"
 "_ZN5TMBad6global8CompleteINS0_3RepINS_11CondExpGeOpEEEE12reverse_decrERNS_11ReverseArgsINS0_6ad_augEEE"
 "_ZN5TMBad6global8CompleteINS0_3RepINS_11CondExpGeOpEEEE13operator_dataEv"
 "_ZN5TMBad6global8CompleteINS0_3RepINS_11CondExpGeOpEEEE23forward_incr_mark_denseERNS_11ForwardArgsIbEE"
 "_ZN5TMBad6global8CompleteINS0_3RepINS_11CondExpGeOpEEEE4copyEv"
 "_ZN5TMBad6global8CompleteINS0_3RepINS_11CondExpGeOpEEEE4infoEv"
 "_ZN5TMBad6global8CompleteINS0_3RepINS_11CondExpGeOpEEEE5printENS0_12print_configE"
 "_ZN5TMBad6global8CompleteINS0_3RepINS_11CondExpGeOpEEEE7forwardERNS_11ForwardArgsIbEE"
 "_ZN5TMBad6global8CompleteINS0_3RepINS_11CondExpGeOpEEEE7forwardERNS_11ForwardArgsIdEE"
 "_ZN5TMBad6global8CompleteINS0_3RepINS_11CondExpGeOpEEEE7forwardERNS_11ForwardArgsINS_6WriterEEE"
 "_ZN5TMBad6global8CompleteINS0_3RepINS_11CondExpGeOpEEEE7forwardERNS_11ForwardArgsINS0_6ad_augEEE"
 "_ZN5TMBad6global8CompleteINS0_3RepINS_11CondExpGeOpEEEE7op_nameEv"
 "_ZN5TMBad6global8CompleteINS0_3RepINS_11CondExpGeOpEEEE7reverseERNS_11ReverseArgsIbEE"
 "_ZN5TMBad6global8CompleteINS0_3RepINS_11CondExpGeOpEEEE7reverseERNS_11ReverseArgsIdEE"
 "_ZN5TMBad6global8CompleteINS0_3RepINS_11CondExpGeOpEEEE7reverseERNS_11ReverseArgsINS_6WriterEEE"
 "_ZN5TMBad6global8CompleteINS0_3RepINS_11CondExpGeOpEEEE7reverseERNS_11ReverseArgsINS0_6ad_augEEE"
 "_ZN5TMBad6global8CompleteINS0_3RepINS_11CondExpGeOpEEEE9decrementERSt4pairIjjE"
 "_ZN5TMBad6global8CompleteINS0_3RepINS_11CondExpGeOpEEEE9incrementERSt4pairIjjE"
 "_ZN5TMBad6global8CompleteINS0_3RepINS_11CondExpGeOpEEEE9self_fuseEv"
 "_ZN5TMBad6global8CompleteINS0_3RepINS_11CondExpGeOpEEEED0Ev"
 "_ZN5TMBad6global8CompleteINS0_3RepINS_11CondExpGeOpEEEED1Ev"
 "_ZN5TMBad6global8CompleteINS0_3RepINS_11CondExpGtOpEEEE10deallocateEv"
 "_ZN5TMBad6global8CompleteINS0_3RepINS_11CondExpGtOpEEEE10identifierEv"
 "_ZN5TMBad6global8CompleteINS0_3RepINS_11CondExpGtOpEEEE10incompleteEv"
 "_ZN5TMBad6global8CompleteINS0_3RepINS_11CondExpGtOpEEEE10input_sizeEv"
 "_ZN5TMBad6global8CompleteINS0_3RepINS_11CondExpGtOpEEEE10other_fuseEPNS0_12OperatorPureE"
 "_ZN5TMBad6global8CompleteINS0_3RepINS_11CondExpGtOpEEEE11output_sizeEv"
 "_ZN5TMBad6global8CompleteINS0_3RepINS_11CondExpGtOpEEEE12dependenciesERNS_4ArgsIvEERNS_12DependenciesE"
 "_ZN5TMBad6global8CompleteINS0_3RepINS_11CondExpGtOpEEEE12forward_incrERNS_11ForwardArgsIbEE"
 "_ZN5TMBad6global8CompleteINS0_3RepINS_11CondExpGtOpEEEE12forward_incrERNS_11ForwardArgsIdEE"
 "_ZN5TMBad6global8CompleteINS0_3RepINS_11CondExpGtOpEEEE12forward_incrERNS_11ForwardArgsINS_6WriterEEE"
 "_ZN5TMBad6global8CompleteINS0_3RepINS_11CondExpGtOpEEEE12forward_incrERNS_11ForwardArgsINS0_6ad_augEEE"
 "_ZN5TMBad6global8CompleteINS0_3RepINS_11CondExpGtOpEEEE12reverse_decrERNS_11ReverseArgsIbEE"
 "_ZN5TMBad6global8CompleteINS0_3RepINS_11CondExpGtOpEEEE12reverse_decrERNS_11ReverseArgsIdEE"
 "_ZN5TMBad6global8CompleteINS0_3RepINS_11CondExpGtOpEEEE12reverse_decrERNS_11ReverseArgsINS_6WriterEEE"
 "_ZN5TMBad6global8CompleteINS0_3RepINS_11CondExpGtOpEEEE12reverse_decrERNS_11ReverseArgsINS0_6ad_augEEE"
 "_ZN5TMBad6global8CompleteINS0_3RepINS_11CondExpGtOpEEEE13operator_dataEv"
 "_ZN5TMBad6global8CompleteINS0_3RepINS_11CondExpGtOpEEEE23forward_incr_mark_denseERNS_11ForwardArgsIbEE"
 "_ZN5TMBad6global8CompleteINS0_3RepINS_11CondExpGtOpEEEE4copyEv"
 "_ZN5TMBad6global8CompleteINS0_3RepINS_11CondExpGtOpEEEE4infoEv"
 "_ZN5TMBad6global8CompleteINS0_3RepINS_11CondExpGtOpEEEE5printENS0_12print_configE"
 "_ZN5TMBad6global8CompleteINS0_3RepINS_11CondExpGtOpEEEE7forwardERNS_11ForwardArgsIbEE"
 "_ZN5TMBad6global8CompleteINS0_3RepINS_11CondExpGtOpEEEE7forwardERNS_11ForwardArgsIdEE"
 "_ZN5TMBad6global8CompleteINS0_3RepINS_11CondExpGtOpEEEE7forwardERNS_11ForwardArgsINS_6WriterEEE"
 "_ZN5TMBad6global8CompleteINS0_3RepINS_11CondExpGtOpEEEE7forwardERNS_11ForwardArgsINS0_6ad_augEEE"
 "_ZN5TMBad6global8CompleteINS0_3RepINS_11CondExpGtOpEEEE7op_nameEv"
 "_ZN5TMBad6global8CompleteINS0_3RepINS_11CondExpGtOpEEEE7reverseERNS_11ReverseArgsIbEE"
 "_ZN5TMBad6global8CompleteINS0_3RepINS_11CondExpGtOpEEEE7reverseERNS_11ReverseArgsIdEE"
 "_ZN5TMBad6global8CompleteINS0_3RepINS_11CondExpGtOpEEEE7reverseERNS_11ReverseArgsINS_6WriterEEE"
 "_ZN5TMBad6global8CompleteINS0_3RepINS_11CondExpGtOpEEEE7reverseERNS_11ReverseArgsINS0_6ad_augEEE"
 "_ZN5TMBad6global8CompleteINS0_3RepINS_11CondExpGtOpEEEE9decrementERSt4pairIjjE"
 "_ZN5TMBad6global8CompleteINS0_3RepINS_11CondExpGtOpEEEE9incrementERSt4pairIjjE"
 "_ZN5TMBad6global8CompleteINS0_3RepINS_11CondExpGtOpEEEE9self_fuseEv"
 "_ZN5TMBad6global8CompleteINS0_3RepINS_11CondExpGtOpEEEED0Ev"
 "_ZN5TMBad6global8CompleteINS0_3RepINS_11CondExpGtOpEEEED1Ev"
 "_ZN5TMBad6global8CompleteINS0_3RepINS_11CondExpLeOpEEEE10deallocateEv"
 "_ZN5TMBad6global8CompleteINS0_3RepINS_11CondExpLeOpEEEE10identifierEv"
 "_ZN5TMBad6global8CompleteINS0_3RepINS_11CondExpLeOpEEEE10incompleteEv"
 "_ZN5TMBad6global8CompleteINS0_3RepINS_11CondExpLeOpEEEE10input_sizeEv"
 "_ZN5TMBad6global8CompleteINS0_3RepINS_11CondExpLeOpEEEE10other_fuseEPNS0_12OperatorPureE"
 "_ZN5TMBad6global8CompleteINS0_3RepINS_11CondExpLeOpEEEE11output_sizeEv"
 "_ZN5TMBad6global8CompleteINS0_3RepINS_11CondExpLeOpEEEE12dependenciesERNS_4ArgsIvEERNS_12DependenciesE"
 "_ZN5TMBad6global8CompleteINS0_3RepINS_11CondExpLeOpEEEE12forward_incrERNS_11ForwardArgsIbEE"
 "_ZN5TMBad6global8CompleteINS0_3RepINS_11CondExpLeOpEEEE12forward_incrERNS_11ForwardArgsIdEE"
 "_ZN5TMBad6global8CompleteINS0_3RepINS_11CondExpLeOpEEEE12forward_incrERNS_11ForwardArgsINS_6WriterEEE"
 "_ZN5TMBad6global8CompleteINS0_3RepINS_11CondExpLeOpEEEE12forward_incrERNS_11ForwardArgsINS0_6ad_augEEE"
 "_ZN5TMBad6global8CompleteINS0_3RepINS_11CondExpLeOpEEEE12reverse_decrERNS_11ReverseArgsIbEE"
 "_ZN5TMBad6global8CompleteINS0_3RepINS_11CondExpLeOpEEEE12reverse_decrERNS_11ReverseArgsIdEE"
 "_ZN5TMBad6global8CompleteINS0_3RepINS_11CondExpLeOpEEEE12reverse_decrERNS_11ReverseArgsINS_6WriterEEE"
 "_ZN5TMBad6global8CompleteINS0_3RepINS_11CondExpLeOpEEEE12reverse_decrERNS_11ReverseArgsINS0_6ad_augEEE"
 "_ZN5TMBad6global8CompleteINS0_3RepINS_11CondExpLeOpEEEE13operator_dataEv"
 "_ZN5TMBad6global8CompleteINS0_3RepINS_11CondExpLeOpEEEE23forward_incr_mark_denseERNS_11ForwardArgsIbEE"
 "_ZN5TMBad6global8CompleteINS0_3RepINS_11CondExpLeOpEEEE4copyEv"
 "_ZN5TMBad6global8CompleteINS0_3RepINS_11CondExpLeOpEEEE4infoEv"
 "_ZN5TMBad6global8CompleteINS0_3RepINS_11CondExpLeOpEEEE5printENS0_12print_configE"
 "_ZN5TMBad6global8CompleteINS0_3RepINS_11CondExpLeOpEEEE7forwardERNS_11ForwardArgsIbEE"
 "_ZN5TMBad6global8CompleteINS0_3RepINS_11CondExpLeOpEEEE7forwardERNS_11ForwardArgsIdEE"
 "_ZN5TMBad6global8CompleteINS0_3RepINS_11CondExpLeOpEEEE7forwardERNS_11ForwardArgsINS_6WriterEEE"
 "_ZN5TMBad6global8CompleteINS0_3RepINS_11CondExpLeOpEEEE7forwardERNS_11ForwardArgsINS0_6ad_augEEE"
 "_ZN5TMBad6global8CompleteINS0_3RepINS_11CondExpLeOpEEEE7op_nameEv"
 "_ZN5TMBad6global8CompleteINS0_3RepINS_11CondExpLeOpEEEE7reverseERNS_11ReverseArgsIbEE"
 "_ZN5TMBad6global8CompleteINS0_3RepINS_11CondExpLeOpEEEE7reverseERNS_11ReverseArgsIdEE"
 "_ZN5TMBad6global8CompleteINS0_3RepINS_11CondExpLeOpEEEE7reverseERNS_11ReverseArgsINS_6WriterEEE"
 "_ZN5TMBad6global8CompleteINS0_3RepINS_11CondExpLeOpEEEE7reverseERNS_11ReverseArgsINS0_6ad_augEEE"
 "_ZN5TMBad6global8CompleteINS0_3RepINS_11CondExpLeOpEEEE9decrementERSt4pairIjjE"
 "_ZN5TMBad6global8CompleteINS0_3RepINS_11CondExpLeOpEEEE9incrementERSt4pairIjjE"
 "_ZN5TMBad6global8CompleteINS0_3RepINS_11CondExpLeOpEEEE9self_fuseEv"
 "_ZN5TMBad6global8CompleteINS0_3RepINS_11CondExpLeOpEEEED0Ev"
 "_ZN5TMBad6global8CompleteINS0_3RepINS_11CondExpLeOpEEEED1Ev"
 "_ZN5TMBad6global8CompleteINS0_3RepINS_11CondExpLtOpEEEE10deallocateEv"
 "_ZN5TMBad6global8CompleteINS0_3RepINS_11CondExpLtOpEEEE10identifierEv"
 "_ZN5TMBad6global8CompleteINS0_3RepINS_11CondExpLtOpEEEE10incompleteEv"
 "_ZN5TMBad6global8CompleteINS0_3RepINS_11CondExpLtOpEEEE10input_sizeEv"
 "_ZN5TMBad6global8CompleteINS0_3RepINS_11CondExpLtOpEEEE10other_fuseEPNS0_12OperatorPureE"
 "_ZN5TMBad6global8CompleteINS0_3RepINS_11CondExpLtOpEEEE11output_sizeEv"
 "_ZN5TMBad6global8CompleteINS0_3RepINS_11CondExpLtOpEEEE12dependenciesERNS_4ArgsIvEERNS_12DependenciesE"
 "_ZN5TMBad6global8CompleteINS0_3RepINS_11CondExpLtOpEEEE12forward_incrERNS_11ForwardArgsIbEE"
 "_ZN5TMBad6global8CompleteINS0_3RepINS_11CondExpLtOpEEEE12forward_incrERNS_11ForwardArgsIdEE"
 "_ZN5TMBad6global8CompleteINS0_3RepINS_11CondExpLtOpEEEE12forward_incrERNS_11ForwardArgsINS_6WriterEEE"
 "_ZN5TMBad6global8CompleteINS0_3RepINS_11CondExpLtOpEEEE12forward_incrERNS_11ForwardArgsINS0_6ad_augEEE"
 "_ZN5TMBad6global8CompleteINS0_3RepINS_11CondExpLtOpEEEE12reverse_decrERNS_11ReverseArgsIbEE"
 "_ZN5TMBad6global8CompleteINS0_3RepINS_11CondExpLtOpEEEE12reverse_decrERNS_11ReverseArgsIdEE"
 "_ZN5TMBad6global8CompleteINS0_3RepINS_11CondExpLtOpEEEE12reverse_decrERNS_11ReverseArgsINS_6WriterEEE"
 "_ZN5TMBad6global8CompleteINS0_3RepINS_11CondExpLtOpEEEE12reverse_decrERNS_11ReverseArgsINS0_6ad_augEEE"
 "_ZN5TMBad6global8CompleteINS0_3RepINS_11CondExpLtOpEEEE13operator_dataEv"
 "_ZN5TMBad6global8CompleteINS0_3RepINS_11CondExpLtOpEEEE23forward_incr_mark_denseERNS_11ForwardArgsIbEE"
 "_ZN5TMBad6global8CompleteINS0_3RepINS_11CondExpLtOpEEEE4copyEv"
 "_ZN5TMBad6global8CompleteINS0_3RepINS_11CondExpLtOpEEEE4infoEv"
 "_ZN5TMBad6global8CompleteINS0_3RepINS_11CondExpLtOpEEEE5printENS0_12print_configE"
 "_ZN5TMBad6global8CompleteINS0_3RepINS_11CondExpLtOpEEEE7forwardERNS_11ForwardArgsIbEE"
 "_ZN5TMBad6global8CompleteINS0_3RepINS_11CondExpLtOpEEEE7forwardERNS_11ForwardArgsIdEE"
 "_ZN5TMBad6global8CompleteINS0_3RepINS_11CondExpLtOpEEEE7forwardERNS_11ForwardArgsINS_6WriterEEE"
 "_ZN5TMBad6global8CompleteINS0_3RepINS_11CondExpLtOpEEEE7forwardERNS_11ForwardArgsINS0_6ad_augEEE"
 "_ZN5TMBad6global8CompleteINS0_3RepINS_11CondExpLtOpEEEE7op_nameEv"
 "_ZN5TMBad6global8CompleteINS0_3RepINS_11CondExpLtOpEEEE7reverseERNS_11ReverseArgsIbEE"
 "_ZN5TMBad6global8CompleteINS0_3RepINS_11CondExpLtOpEEEE7reverseERNS_11ReverseArgsIdEE"
 "_ZN5TMBad6global8CompleteINS0_3RepINS_11CondExpLtOpEEEE7reverseERNS_11ReverseArgsINS_6WriterEEE"
 "_ZN5TMBad6global8CompleteINS0_3RepINS_11CondExpLtOpEEEE7reverseERNS_11ReverseArgsINS0_6ad_augEEE"
 "_ZN5TMBad6global8CompleteINS0_3RepINS_11CondExpLtOpEEEE9decrementERSt4pairIjjE"
 "_ZN5TMBad6global8CompleteINS0_3RepINS_11CondExpLtOpEEEE9incrementERSt4pairIjjE"
 "_ZN5TMBad6global8CompleteINS0_3RepINS_11CondExpLtOpEEEE9self_fuseEv"
 "_ZN5TMBad6global8CompleteINS0_3RepINS_11CondExpLtOpEEEED0Ev"
 "_ZN5TMBad6global8CompleteINS0_3RepINS_11CondExpLtOpEEEED1Ev"
 "_ZN5TMBad6global8CompleteINS0_3RepINS_11CondExpNeOpEEEE10deallocateEv"
 "_ZN5TMBad6global8CompleteINS0_3RepINS_11CondExpNeOpEEEE10identifierEv"
 "_ZN5TMBad6global8CompleteINS0_3RepINS_11CondExpNeOpEEEE10incompleteEv"
 "_ZN5TMBad6global8CompleteINS0_3RepINS_11CondExpNeOpEEEE10input_sizeEv"
 "_ZN5TMBad6global8CompleteINS0_3RepINS_11CondExpNeOpEEEE10other_fuseEPNS0_12OperatorPureE"
 "_ZN5TMBad6global8CompleteINS0_3RepINS_11CondExpNeOpEEEE11output_sizeEv"
 "_ZN5TMBad6global8CompleteINS0_3RepINS_11CondExpNeOpEEEE12dependenciesERNS_4ArgsIvEERNS_12DependenciesE"
 "_ZN5TMBad6global8CompleteINS0_3RepINS_11CondExpNeOpEEEE12forward_incrERNS_11ForwardArgsIbEE"
 "_ZN5TMBad6global8CompleteINS0_3RepINS_11CondExpNeOpEEEE12forward_incrERNS_11ForwardArgsIdEE"
 "_ZN5TMBad6global8CompleteINS0_3RepINS_11CondExpNeOpEEEE12forward_incrERNS_11ForwardArgsINS_6WriterEEE"
 "_ZN5TMBad6global8CompleteINS0_3RepINS_11CondExpNeOpEEEE12forward_incrERNS_11ForwardArgsINS0_6ad_augEEE"
 "_ZN5TMBad6global8CompleteINS0_3RepINS_11CondExpNeOpEEEE12reverse_decrERNS_11ReverseArgsIbEE"
 "_ZN5TMBad6global8CompleteINS0_3RepINS_11CondExpNeOpEEEE12reverse_decrERNS_11ReverseArgsIdEE"
 "_ZN5TMBad6global8CompleteINS0_3RepINS_11CondExpNeOpEEEE12reverse_decrERNS_11ReverseArgsINS_6WriterEEE"
 "_ZN5TMBad6global8CompleteINS0_3RepINS_11CondExpNeOpEEEE12reverse_decrERNS_11ReverseArgsINS0_6ad_augEEE"
 "_ZN5TMBad6global8CompleteINS0_3RepINS_11CondExpNeOpEEEE13operator_dataEv"
 "_ZN5TMBad6global8CompleteINS0_3RepINS_11CondExpNeOpEEEE23forward_incr_mark_denseERNS_11ForwardArgsIbEE"
 "_ZN5TMBad6global8CompleteINS0_3RepINS_11CondExpNeOpEEEE4copyEv"
 "_ZN5TMBad6global8CompleteINS0_3RepINS_11CondExpNeOpEEEE4infoEv"
 "_ZN5TMBad6global8CompleteINS0_3RepINS_11CondExpNeOpEEEE5printENS0_12print_configE"
 "_ZN5TMBad6global8CompleteINS0_3RepINS_11CondExpNeOpEEEE7forwardERNS_11ForwardArgsIbEE"
 "_ZN5TMBad6global8CompleteINS0_3RepINS_11CondExpNeOpEEEE7forwardERNS_11ForwardArgsIdEE"
 "_ZN5TMBad6global8CompleteINS0_3RepINS_11CondExpNeOpEEEE7forwardERNS_11ForwardArgsINS_6WriterEEE"
 "_ZN5TMBad6global8CompleteINS0_3RepINS_11CondExpNeOpEEEE7forwardERNS_11ForwardArgsINS0_6ad_augEEE"
 "_ZN5TMBad6global8CompleteINS0_3RepINS_11CondExpNeOpEEEE7op_nameEv"
 "_ZN5TMBad6global8CompleteINS0_3RepINS_11CondExpNeOpEEEE7reverseERNS_11ReverseArgsIbEE"
 "_ZN5TMBad6global8CompleteINS0_3RepINS_11CondExpNeOpEEEE7reverseERNS_11ReverseArgsIdEE"
 "_ZN5TMBad6global8CompleteINS0_3RepINS_11CondExpNeOpEEEE7reverseERNS_11ReverseArgsINS_6WriterEEE"
 "_ZN5TMBad6global8CompleteINS0_3RepINS_11CondExpNeOpEEEE7reverseERNS_11ReverseArgsINS0_6ad_augEEE"
 "_ZN5TMBad6global8CompleteINS0_3RepINS_11CondExpNeOpEEEE9decrementERSt4pairIjjE"
 "_ZN5TMBad6global8CompleteINS0_3RepINS_11CondExpNeOpEEEE9incrementERSt4pairIjjE"
 "_ZN5TMBad6global8CompleteINS0_3RepINS_11CondExpNeOpEEEE9self_fuseEv"
 "_ZN5TMBad6global8CompleteINS0_3RepINS_11CondExpNeOpEEEED0Ev"
 "_ZN5TMBad6global8CompleteINS0_3RepINS_11CondExpNeOpEEEED1Ev"
 "_ZN5TMBad6global8CompleteINS0_3RepINS_5AbsOpEEEE10deallocateEv"
 "_ZN5TMBad6global8CompleteINS0_3RepINS_5AbsOpEEEE10identifierEv"
 "_ZN5TMBad6global8CompleteINS0_3RepINS_5AbsOpEEEE10incompleteEv"
 "_ZN5TMBad6global8CompleteINS0_3RepINS_5AbsOpEEEE10input_sizeEv"
 "_ZN5TMBad6global8CompleteINS0_3RepINS_5AbsOpEEEE10other_fuseEPNS0_12OperatorPureE"
 "_ZN5TMBad6global8CompleteINS0_3RepINS_5AbsOpEEEE11output_sizeEv"
 "_ZN5TMBad6global8CompleteINS0_3RepINS_5AbsOpEEEE12dependenciesERNS_4ArgsIvEERNS_12DependenciesE"
 "_ZN5TMBad6global8CompleteINS0_3RepINS_5AbsOpEEEE12forward_incrERNS_11ForwardArgsIbEE"
 "_ZN5TMBad6global8CompleteINS0_3RepINS_5AbsOpEEEE12forward_incrERNS_11ForwardArgsIdEE"
 "_ZN5TMBad6global8CompleteINS0_3RepINS_5AbsOpEEEE12forward_incrERNS_11ForwardArgsINS_6WriterEEE"
 "_ZN5TMBad6global8CompleteINS0_3RepINS_5AbsOpEEEE12forward_incrERNS_11ForwardArgsINS0_6ad_augEEE"
 "_ZN5TMBad6global8CompleteINS0_3RepINS_5AbsOpEEEE12reverse_decrERNS_11ReverseArgsIbEE"
 "_ZN5TMBad6global8CompleteINS0_3RepINS_5AbsOpEEEE12reverse_decrERNS_11ReverseArgsIdEE"
 "_ZN5TMBad6global8CompleteINS0_3RepINS_5AbsOpEEEE12reverse_decrERNS_11ReverseArgsINS_6WriterEEE"
 "_ZN5TMBad6global8CompleteINS0_3RepINS_5AbsOpEEEE12reverse_decrERNS_11ReverseArgsINS0_6ad_augEEE"
 "_ZN5TMBad6global8CompleteINS0_3RepINS_5AbsOpEEEE13operator_dataEv"
 "_ZN5TMBad6global8CompleteINS0_3RepINS_5AbsOpEEEE23forward_incr_mark_denseERNS_11ForwardArgsIbEE"
 "_ZN5TMBad6global8CompleteINS0_3RepINS_5AbsOpEEEE4copyEv"
 "_ZN5TMBad6global8CompleteINS0_3RepINS_5AbsOpEEEE4infoEv"
 "_ZN5TMBad6global8CompleteINS0_3RepINS_5AbsOpEEEE5printENS0_12print_configE"
 "_ZN5TMBad6global8CompleteINS0_3RepINS_5AbsOpEEEE7forwardERNS_11ForwardArgsIbEE"
 "_ZN5TMBad6global8CompleteINS0_3RepINS_5AbsOpEEEE7forwardERNS_11ForwardArgsIdEE"
 "_ZN5TMBad6global8CompleteINS0_3RepINS_5AbsOpEEEE7forwardERNS_11ForwardArgsINS_6WriterEEE"
 "_ZN5TMBad6global8CompleteINS0_3RepINS_5AbsOpEEEE7forwardERNS_11ForwardArgsINS0_6ad_augEEE"
 "_ZN5TMBad6global8CompleteINS0_3RepINS_5AbsOpEEEE7op_nameEv"
 "_ZN5TMBad6global8CompleteINS0_3RepINS_5AbsOpEEEE7reverseERNS_11ReverseArgsIbEE"
 "_ZN5TMBad6global8CompleteINS0_3RepINS_5AbsOpEEEE7reverseERNS_11ReverseArgsIdEE"
 "_ZN5TMBad6global8CompleteINS0_3RepINS_5AbsOpEEEE7reverseERNS_11ReverseArgsINS_6WriterEEE"
 "_ZN5TMBad6global8CompleteINS0_3RepINS_5AbsOpEEEE7reverseERNS_11ReverseArgsINS0_6ad_augEEE"
 "_ZN5TMBad6global8CompleteINS0_3RepINS_5AbsOpEEEE9decrementERSt4pairIjjE"
 "_ZN5TMBad6global8CompleteINS0_3RepINS_5AbsOpEEEE9incrementERSt4pairIjjE"
 "_ZN5TMBad6global8CompleteINS0_3RepINS_5AbsOpEEEE9self_fuseEv"
 "_ZN5TMBad6global8CompleteINS0_3RepINS_5AbsOpEEEED0Ev"
 "_ZN5TMBad6global8CompleteINS0_3RepINS_5AbsOpEEEED1Ev"
 "_ZN5TMBad6global8CompleteINS0_3RepINS_5CosOpEEEE10deallocateEv"
 "_ZN5TMBad6global8CompleteINS0_3RepINS_5CosOpEEEE10identifierEv"
 "_ZN5TMBad6global8CompleteINS0_3RepINS_5CosOpEEEE10incompleteEv"
 "_ZN5TMBad6global8CompleteINS0_3RepINS_5CosOpEEEE10input_sizeEv"
 "_ZN5TMBad6global8CompleteINS0_3RepINS_5CosOpEEEE10other_fuseEPNS0_12OperatorPureE"
 "_ZN5TMBad6global8CompleteINS0_3RepINS_5CosOpEEEE11output_sizeEv"
 "_ZN5TMBad6global8CompleteINS0_3RepINS_5CosOpEEEE12dependenciesERNS_4ArgsIvEERNS_12DependenciesE"
 "_ZN5TMBad6global8CompleteINS0_3RepINS_5CosOpEEEE12forward_incrERNS_11ForwardArgsIbEE"
 "_ZN5TMBad6global8CompleteINS0_3RepINS_5CosOpEEEE12forward_incrERNS_11ForwardArgsIdEE"
 "_ZN5TMBad6global8CompleteINS0_3RepINS_5CosOpEEEE12forward_incrERNS_11ForwardArgsINS_6WriterEEE"
 "_ZN5TMBad6global8CompleteINS0_3RepINS_5CosOpEEEE12forward_incrERNS_11ForwardArgsINS0_6ad_augEEE"
 "_ZN5TMBad6global8CompleteINS0_3RepINS_5CosOpEEEE12reverse_decrERNS_11ReverseArgsIbEE"
 "_ZN5TMBad6global8CompleteINS0_3RepINS_5CosOpEEEE12reverse_decrERNS_11ReverseArgsIdEE"
 "_ZN5TMBad6global8CompleteINS0_3RepINS_5CosOpEEEE12reverse_decrERNS_11ReverseArgsINS_6WriterEEE"
 "_ZN5TMBad6global8CompleteINS0_3RepINS_5CosOpEEEE12reverse_decrERNS_11ReverseArgsINS0_6ad_augEEE"
 "_ZN5TMBad6global8CompleteINS0_3RepINS_5CosOpEEEE13operator_dataEv"
 "_ZN5TMBad6global8CompleteINS0_3RepINS_5CosOpEEEE23forward_incr_mark_denseERNS_11ForwardArgsIbEE"
 "_ZN5TMBad6global8CompleteINS0_3RepINS_5CosOpEEEE4copyEv"
 "_ZN5TMBad6global8CompleteINS0_3RepINS_5CosOpEEEE4infoEv"
 "_ZN5TMBad6global8CompleteINS0_3RepINS_5CosOpEEEE5printENS0_12print_configE"
 "_ZN5TMBad6global8CompleteINS0_3RepINS_5CosOpEEEE7forwardERNS_11ForwardArgsIbEE"
 "_ZN5TMBad6global8CompleteINS0_3RepINS_5CosOpEEEE7forwardERNS_11ForwardArgsIdEE"
 "_ZN5TMBad6global8CompleteINS0_3RepINS_5CosOpEEEE7forwardERNS_11ForwardArgsINS_6WriterEEE"
 "_ZN5TMBad6global8CompleteINS0_3RepINS_5CosOpEEEE7forwardERNS_11ForwardArgsINS0_6ad_augEEE"
 "_ZN5TMBad6global8CompleteINS0_3RepINS_5CosOpEEEE7op_nameEv"
 "_ZN5TMBad6global8CompleteINS0_3RepINS_5CosOpEEEE7reverseERNS_11ReverseArgsIbEE"
 "_ZN5TMBad6global8CompleteINS0_3RepINS_5CosOpEEEE7reverseERNS_11ReverseArgsIdEE"
 "_ZN5TMBad6global8CompleteINS0_3RepINS_5CosOpEEEE7reverseERNS_11ReverseArgsINS_6WriterEEE"
 "_ZN5TMBad6global8CompleteINS0_3RepINS_5CosOpEEEE7reverseERNS_11ReverseArgsINS0_6ad_augEEE"
 "_ZN5TMBad6global8CompleteINS0_3RepINS_5CosOpEEEE9decrementERSt4pairIjjE"
 "_ZN5TMBad6global8CompleteINS0_3RepINS_5CosOpEEEE9incrementERSt4pairIjjE"
 "_ZN5TMBad6global8CompleteINS0_3RepINS_5CosOpEEEE9self_fuseEv"
 "_ZN5TMBad6global8CompleteINS0_3RepINS_5CosOpEEEED0Ev"
 "_ZN5TMBad6global8CompleteINS0_3RepINS_5CosOpEEEED1Ev"
 "_ZN5TMBad6global8CompleteINS0_3RepINS_5Expm1EEEE10deallocateEv"
 "_ZN5TMBad6global8CompleteINS0_3RepINS_5Expm1EEEE10identifierEv"
 "_ZN5TMBad6global8CompleteINS0_3RepINS_5Expm1EEEE10incompleteEv"
 "_ZN5TMBad6global8CompleteINS0_3RepINS_5Expm1EEEE10input_sizeEv"
 "_ZN5TMBad6global8CompleteINS0_3RepINS_5Expm1EEEE10other_fuseEPNS0_12OperatorPureE"
 "_ZN5TMBad6global8CompleteINS0_3RepINS_5Expm1EEEE11output_sizeEv"
 "_ZN5TMBad6global8CompleteINS0_3RepINS_5Expm1EEEE12dependenciesERNS_4ArgsIvEERNS_12DependenciesE"
 "_ZN5TMBad6global8CompleteINS0_3RepINS_5Expm1EEEE12forward_incrERNS_11ForwardArgsIbEE"
 "_ZN5TMBad6global8CompleteINS0_3RepINS_5Expm1EEEE12forward_incrERNS_11ForwardArgsIdEE"
 "_ZN5TMBad6global8CompleteINS0_3RepINS_5Expm1EEEE12forward_incrERNS_11ForwardArgsINS_6WriterEEE"
 "_ZN5TMBad6global8CompleteINS0_3RepINS_5Expm1EEEE12forward_incrERNS_11ForwardArgsINS0_6ad_augEEE"
 "_ZN5TMBad6global8CompleteINS0_3RepINS_5Expm1EEEE12reverse_decrERNS_11ReverseArgsIbEE"
 "_ZN5TMBad6global8CompleteINS0_3RepINS_5Expm1EEEE12reverse_decrERNS_11ReverseArgsIdEE"
 "_ZN5TMBad6global8CompleteINS0_3RepINS_5Expm1EEEE12reverse_decrERNS_11ReverseArgsINS_6WriterEEE"
 "_ZN5TMBad6global8CompleteINS0_3RepINS_5Expm1EEEE12reverse_decrERNS_11ReverseArgsINS0_6ad_augEEE"
 "_ZN5TMBad6global8CompleteINS0_3RepINS_5Expm1EEEE13operator_dataEv"
 "_ZN5TMBad6global8CompleteINS0_3RepINS_5Expm1EEEE23forward_incr_mark_denseERNS_11ForwardArgsIbEE"
 "_ZN5TMBad6global8CompleteINS0_3RepINS_5Expm1EEEE4copyEv"
 "_ZN5TMBad6global8CompleteINS0_3RepINS_5Expm1EEEE4infoEv"
 "_ZN5TMBad6global8CompleteINS0_3RepINS_5Expm1EEEE5printENS0_12print_configE"
 "_ZN5TMBad6global8CompleteINS0_3RepINS_5Expm1EEEE7forwardERNS_11ForwardArgsIbEE"
 "_ZN5TMBad6global8CompleteINS0_3RepINS_5Expm1EEEE7forwardERNS_11ForwardArgsIdEE"
 "_ZN5TMBad6global8CompleteINS0_3RepINS_5Expm1EEEE7forwardERNS_11ForwardArgsINS_6WriterEEE"
 "_ZN5TMBad6global8CompleteINS0_3RepINS_5Expm1EEEE7forwardERNS_11ForwardArgsINS0_6ad_augEEE"
 "_ZN5TMBad6global8CompleteINS0_3RepINS_5Expm1EEEE7op_nameEv"
 "_ZN5TMBad6global8CompleteINS0_3RepINS_5Expm1EEEE7reverseERNS_11ReverseArgsIbEE"
 "_ZN5TMBad6global8CompleteINS0_3RepINS_5Expm1EEEE7reverseERNS_11ReverseArgsIdEE"
 "_ZN5TMBad6global8CompleteINS0_3RepINS_5Expm1EEEE7reverseERNS_11ReverseArgsINS_6WriterEEE"
 "_ZN5TMBad6global8CompleteINS0_3RepINS_5Expm1EEEE7reverseERNS_11ReverseArgsINS0_6ad_augEEE"
 "_ZN5TMBad6global8CompleteINS0_3RepINS_5Expm1EEEE9decrementERSt4pairIjjE"
 "_ZN5TMBad6global8CompleteINS0_3RepINS_5Expm1EEEE9incrementERSt4pairIjjE"
 "_ZN5TMBad6global8CompleteINS0_3RepINS_5Expm1EEEE9self_fuseEv"
 "_ZN5TMBad6global8CompleteINS0_3RepINS_5Expm1EEEED0Ev"
 "_ZN5TMBad6global8CompleteINS0_3RepINS_5Expm1EEEED1Ev"
 "_ZN5TMBad6global8CompleteINS0_3RepINS_5ExpOpEEEE10deallocateEv"
 "_ZN5TMBad6global8CompleteINS0_3RepINS_5ExpOpEEEE10identifierEv"
 "_ZN5TMBad6global8CompleteINS0_3RepINS_5ExpOpEEEE10incompleteEv"
 "_ZN5TMBad6global8CompleteINS0_3RepINS_5ExpOpEEEE10input_sizeEv"
 "_ZN5TMBad6global8CompleteINS0_3RepINS_5ExpOpEEEE10other_fuseEPNS0_12OperatorPureE"
 "_ZN5TMBad6global8CompleteINS0_3RepINS_5ExpOpEEEE11output_sizeEv"
 "_ZN5TMBad6global8CompleteINS0_3RepINS_5ExpOpEEEE12dependenciesERNS_4ArgsIvEERNS_12DependenciesE"
 "_ZN5TMBad6global8CompleteINS0_3RepINS_5ExpOpEEEE12forward_incrERNS_11ForwardArgsIbEE"
 "_ZN5TMBad6global8CompleteINS0_3RepINS_5ExpOpEEEE12forward_incrERNS_11ForwardArgsIdEE"
 "_ZN5TMBad6global8CompleteINS0_3RepINS_5ExpOpEEEE12forward_incrERNS_11ForwardArgsINS_6WriterEEE"
 "_ZN5TMBad6global8CompleteINS0_3RepINS_5ExpOpEEEE12forward_incrERNS_11ForwardArgsINS0_6ad_augEEE"
 "_ZN5TMBad6global8CompleteINS0_3RepINS_5ExpOpEEEE12reverse_decrERNS_11ReverseArgsIbEE"
 "_ZN5TMBad6global8CompleteINS0_3RepINS_5ExpOpEEEE12reverse_decrERNS_11ReverseArgsIdEE"
 "_ZN5TMBad6global8CompleteINS0_3RepINS_5ExpOpEEEE12reverse_decrERNS_11ReverseArgsINS_6WriterEEE"
 "_ZN5TMBad6global8CompleteINS0_3RepINS_5ExpOpEEEE12reverse_decrERNS_11ReverseArgsINS0_6ad_augEEE"
 "_ZN5TMBad6global8CompleteINS0_3RepINS_5ExpOpEEEE13operator_dataEv"
 "_ZN5TMBad6global8CompleteINS0_3RepINS_5ExpOpEEEE23forward_incr_mark_denseERNS_11ForwardArgsIbEE"
 "_ZN5TMBad6global8CompleteINS0_3RepINS_5ExpOpEEEE4copyEv"
 "_ZN5TMBad6global8CompleteINS0_3RepINS_5ExpOpEEEE4infoEv"
 "_ZN5TMBad6global8CompleteINS0_3RepINS_5ExpOpEEEE5printENS0_12print_configE"
 "_ZN5TMBad6global8CompleteINS0_3RepINS_5ExpOpEEEE7forwardERNS_11ForwardArgsIbEE"
 "_ZN5TMBad6global8CompleteINS0_3RepINS_5ExpOpEEEE7forwardERNS_11ForwardArgsIdEE"
 "_ZN5TMBad6global8CompleteINS0_3RepINS_5ExpOpEEEE7forwardERNS_11ForwardArgsINS_6WriterEEE"
 "_ZN5TMBad6global8CompleteINS0_3RepINS_5ExpOpEEEE7forwardERNS_11ForwardArgsINS0_6ad_augEEE"
 "_ZN5TMBad6global8CompleteINS0_3RepINS_5ExpOpEEEE7op_nameEv"
 "_ZN5TMBad6global8CompleteINS0_3RepINS_5ExpOpEEEE7reverseERNS_11ReverseArgsIbEE"
 "_ZN5TMBad6global8CompleteINS0_3RepINS_5ExpOpEEEE7reverseERNS_11ReverseArgsIdEE"
 "_ZN5TMBad6global8CompleteINS0_3RepINS_5ExpOpEEEE7reverseERNS_11ReverseArgsINS_6WriterEEE"
 "_ZN5TMBad6global8CompleteINS0_3RepINS_5ExpOpEEEE7reverseERNS_11ReverseArgsINS0_6ad_augEEE"
 "_ZN5TMBad6global8CompleteINS0_3RepINS_5ExpOpEEEE9decrementERSt4pairIjjE"
 "_ZN5TMBad6global8CompleteINS0_3RepINS_5ExpOpEEEE9incrementERSt4pairIjjE"
 "_ZN5TMBad6global8CompleteINS0_3RepINS_5ExpOpEEEE9self_fuseEv"
 "_ZN5TMBad6global8CompleteINS0_3RepINS_5ExpOpEEEED0Ev"
 "_ZN5TMBad6global8CompleteINS0_3RepINS_5ExpOpEEEED1Ev"
 "_ZN5TMBad6global8CompleteINS0_3RepINS_5Ge0OpEEEE10deallocateEv"
 "_ZN5TMBad6global8CompleteINS0_3RepINS_5Ge0OpEEEE10identifierEv"
 "_ZN5TMBad6global8CompleteINS0_3RepINS_5Ge0OpEEEE10incompleteEv"
 "_ZN5TMBad6global8CompleteINS0_3RepINS_5Ge0OpEEEE10input_sizeEv"
 "_ZN5TMBad6global8CompleteINS0_3RepINS_5Ge0OpEEEE10other_fuseEPNS0_12OperatorPureE"
 "_ZN5TMBad6global8CompleteINS0_3RepINS_5Ge0OpEEEE11output_sizeEv"
 "_ZN5TMBad6global8CompleteINS0_3RepINS_5Ge0OpEEEE12dependenciesERNS_4ArgsIvEERNS_12DependenciesE"
 "_ZN5TMBad6global8CompleteINS0_3RepINS_5Ge0OpEEEE12forward_incrERNS_11ForwardArgsIbEE"
 "_ZN5TMBad6global8CompleteINS0_3RepINS_5Ge0OpEEEE12forward_incrERNS_11ForwardArgsIdEE"
 "_ZN5TMBad6global8CompleteINS0_3RepINS_5Ge0OpEEEE12forward_incrERNS_11ForwardArgsINS_6WriterEEE"
 "_ZN5TMBad6global8CompleteINS0_3RepINS_5Ge0OpEEEE12forward_incrERNS_11ForwardArgsINS0_6ad_augEEE"
 "_ZN5TMBad6global8CompleteINS0_3RepINS_5Ge0OpEEEE12reverse_decrERNS_11ReverseArgsIbEE"
 "_ZN5TMBad6global8CompleteINS0_3RepINS_5Ge0OpEEEE12reverse_decrERNS_11ReverseArgsIdEE"
 "_ZN5TMBad6global8CompleteINS0_3RepINS_5Ge0OpEEEE12reverse_decrERNS_11ReverseArgsINS_6WriterEEE"
 "_ZN5TMBad6global8CompleteINS0_3RepINS_5Ge0OpEEEE12reverse_decrERNS_11ReverseArgsINS0_6ad_augEEE"
 "_ZN5TMBad6global8CompleteINS0_3RepINS_5Ge0OpEEEE13operator_dataEv"
 "_ZN5TMBad6global8CompleteINS0_3RepINS_5Ge0OpEEEE23forward_incr_mark_denseERNS_11ForwardArgsIbEE"
 "_ZN5TMBad6global8CompleteINS0_3RepINS_5Ge0OpEEEE4copyEv"
 "_ZN5TMBad6global8CompleteINS0_3RepINS_5Ge0OpEEEE4infoEv"
 "_ZN5TMBad6global8CompleteINS0_3RepINS_5Ge0OpEEEE5printENS0_12print_configE"
 "_ZN5TMBad6global8CompleteINS0_3RepINS_5Ge0OpEEEE7forwardERNS_11ForwardArgsIbEE"
 "_ZN5TMBad6global8CompleteINS0_3RepINS_5Ge0OpEEEE7forwardERNS_11ForwardArgsIdEE"
 "_ZN5TMBad6global8CompleteINS0_3RepINS_5Ge0OpEEEE7forwardERNS_11ForwardArgsINS_6WriterEEE"
 "_ZN5TMBad6global8CompleteINS0_3RepINS_5Ge0OpEEEE7forwardERNS_11ForwardArgsINS0_6ad_augEEE"
 "_ZN5TMBad6global8CompleteINS0_3RepINS_5Ge0OpEEEE7op_nameEv"
 "_ZN5TMBad6global8CompleteINS0_3RepINS_5Ge0OpEEEE7reverseERNS_11ReverseArgsIbEE"
 "_ZN5TMBad6global8CompleteINS0_3RepINS_5Ge0OpEEEE7reverseERNS_11ReverseArgsIdEE"
 "_ZN5TMBad6global8CompleteINS0_3RepINS_5Ge0OpEEEE7reverseERNS_11ReverseArgsINS_6WriterEEE"
 "_ZN5TMBad6global8CompleteINS0_3RepINS_5Ge0OpEEEE7reverseERNS_11ReverseArgsINS0_6ad_augEEE"
 "_ZN5TMBad6global8CompleteINS0_3RepINS_5Ge0OpEEEE9decrementERSt4pairIjjE"
 "_ZN5TMBad6global8CompleteINS0_3RepINS_5Ge0OpEEEE9incrementERSt4pairIjjE"
 "_ZN5TMBad6global8CompleteINS0_3RepINS_5Ge0OpEEEE9self_fuseEv"
 "_ZN5TMBad6global8CompleteINS0_3RepINS_5Ge0OpEEEED0Ev"
 "_ZN5TMBad6global8CompleteINS0_3RepINS_5Ge0OpEEEED1Ev"
 "_ZN5TMBad6global8CompleteINS0_3RepINS_5Log1pEEEE10deallocateEv"
 "_ZN5TMBad6global8CompleteINS0_3RepINS_5Log1pEEEE10identifierEv"
 "_ZN5TMBad6global8CompleteINS0_3RepINS_5Log1pEEEE10incompleteEv"
 "_ZN5TMBad6global8CompleteINS0_3RepINS_5Log1pEEEE10input_sizeEv"
 "_ZN5TMBad6global8CompleteINS0_3RepINS_5Log1pEEEE10other_fuseEPNS0_12OperatorPureE"
 "_ZN5TMBad6global8CompleteINS0_3RepINS_5Log1pEEEE11output_sizeEv"
 "_ZN5TMBad6global8CompleteINS0_3RepINS_5Log1pEEEE12dependenciesERNS_4ArgsIvEERNS_12DependenciesE"
 "_ZN5TMBad6global8CompleteINS0_3RepINS_5Log1pEEEE12forward_incrERNS_11ForwardArgsIbEE"
 "_ZN5TMBad6global8CompleteINS0_3RepINS_5Log1pEEEE12forward_incrERNS_11ForwardArgsIdEE"
 "_ZN5TMBad6global8CompleteINS0_3RepINS_5Log1pEEEE12forward_incrERNS_11ForwardArgsINS_6WriterEEE"
 "_ZN5TMBad6global8CompleteINS0_3RepINS_5Log1pEEEE12forward_incrERNS_11ForwardArgsINS0_6ad_augEEE"
 "_ZN5TMBad6global8CompleteINS0_3RepINS_5Log1pEEEE12reverse_decrERNS_11ReverseArgsIbEE"
 "_ZN5TMBad6global8CompleteINS0_3RepINS_5Log1pEEEE12reverse_decrERNS_11ReverseArgsIdEE"
 "_ZN5TMBad6global8CompleteINS0_3RepINS_5Log1pEEEE12reverse_decrERNS_11ReverseArgsINS_6WriterEEE"
 "_ZN5TMBad6global8CompleteINS0_3RepINS_5Log1pEEEE12reverse_decrERNS_11ReverseArgsINS0_6ad_augEEE"
 "_ZN5TMBad6global8CompleteINS0_3RepINS_5Log1pEEEE13operator_dataEv"
 "_ZN5TMBad6global8CompleteINS0_3RepINS_5Log1pEEEE23forward_incr_mark_denseERNS_11ForwardArgsIbEE"
 "_ZN5TMBad6global8CompleteINS0_3RepINS_5Log1pEEEE4copyEv"
 "_ZN5TMBad6global8CompleteINS0_3RepINS_5Log1pEEEE4infoEv"
 "_ZN5TMBad6global8CompleteINS0_3RepINS_5Log1pEEEE5printENS0_12print_configE"
 "_ZN5TMBad6global8CompleteINS0_3RepINS_5Log1pEEEE7forwardERNS_11ForwardArgsIbEE"
 "_ZN5TMBad6global8CompleteINS0_3RepINS_5Log1pEEEE7forwardERNS_11ForwardArgsIdEE"
 "_ZN5TMBad6global8CompleteINS0_3RepINS_5Log1pEEEE7forwardERNS_11ForwardArgsINS_6WriterEEE"
 "_ZN5TMBad6global8CompleteINS0_3RepINS_5Log1pEEEE7forwardERNS_11ForwardArgsINS0_6ad_augEEE"
 "_ZN5TMBad6global8CompleteINS0_3RepINS_5Log1pEEEE7op_nameEv"
 "_ZN5TMBad6global8CompleteINS0_3RepINS_5Log1pEEEE7reverseERNS_11ReverseArgsIbEE"
 "_ZN5TMBad6global8CompleteINS0_3RepINS_5Log1pEEEE7reverseERNS_11ReverseArgsIdEE"
 "_ZN5TMBad6global8CompleteINS0_3RepINS_5Log1pEEEE7reverseERNS_11ReverseArgsINS_6WriterEEE"
 "_ZN5TMBad6global8CompleteINS0_3RepINS_5Log1pEEEE7reverseERNS_11ReverseArgsINS0_6ad_augEEE"
 "_ZN5TMBad6global8CompleteINS0_3RepINS_5Log1pEEEE9decrementERSt4pairIjjE"
 "_ZN5TMBad6global8CompleteINS0_3RepINS_5Log1pEEEE9incrementERSt4pairIjjE"
 "_ZN5TMBad6global8CompleteINS0_3RepINS_5Log1pEEEE9self_fuseEv"
 "_ZN5TMBad6global8CompleteINS0_3RepINS_5Log1pEEEED0Ev"
 "_ZN5TMBad6global8CompleteINS0_3RepINS_5Log1pEEEED1Ev"
 "_ZN5TMBad6global8CompleteINS0_3RepINS_5LogOpEEEE10deallocateEv"
 "_ZN5TMBad6global8CompleteINS0_3RepINS_5LogOpEEEE10identifierEv"
 "_ZN5TMBad6global8CompleteINS0_3RepINS_5LogOpEEEE10incompleteEv"
 "_ZN5TMBad6global8CompleteINS0_3RepINS_5LogOpEEEE10input_sizeEv"
 "_ZN5TMBad6global8CompleteINS0_3RepINS_5LogOpEEEE10other_fuseEPNS0_12OperatorPureE"
 "_ZN5TMBad6global8CompleteINS0_3RepINS_5LogOpEEEE11output_sizeEv"
 "_ZN5TMBad6global8CompleteINS0_3RepINS_5LogOpEEEE12dependenciesERNS_4ArgsIvEERNS_12DependenciesE"
 "_ZN5TMBad6global8CompleteINS0_3RepINS_5LogOpEEEE12forward_incrERNS_11ForwardArgsIbEE"
 "_ZN5TMBad6global8CompleteINS0_3RepINS_5LogOpEEEE12forward_incrERNS_11ForwardArgsIdEE"
 "_ZN5TMBad6global8CompleteINS0_3RepINS_5LogOpEEEE12forward_incrERNS_11ForwardArgsINS_6WriterEEE"
 "_ZN5TMBad6global8CompleteINS0_3RepINS_5LogOpEEEE12forward_incrERNS_11ForwardArgsINS0_6ad_augEEE"
 "_ZN5TMBad6global8CompleteINS0_3RepINS_5LogOpEEEE12reverse_decrERNS_11ReverseArgsIbEE"
 "_ZN5TMBad6global8CompleteINS0_3RepINS_5LogOpEEEE12reverse_decrERNS_11ReverseArgsIdEE"
 "_ZN5TMBad6global8CompleteINS0_3RepINS_5LogOpEEEE12reverse_decrERNS_11ReverseArgsINS_6WriterEEE"
 "_ZN5TMBad6global8CompleteINS0_3RepINS_5LogOpEEEE12reverse_decrERNS_11ReverseArgsINS0_6ad_augEEE"
 "_ZN5TMBad6global8CompleteINS0_3RepINS_5LogOpEEEE13operator_dataEv"
 "_ZN5TMBad6global8CompleteINS0_3RepINS_5LogOpEEEE23forward_incr_mark_denseERNS_11ForwardArgsIbEE"
 "_ZN5TMBad6global8CompleteINS0_3RepINS_5LogOpEEEE4copyEv"
 "_ZN5TMBad6global8CompleteINS0_3RepINS_5LogOpEEEE4infoEv"
 "_ZN5TMBad6global8CompleteINS0_3RepINS_5LogOpEEEE5printENS0_12print_configE"
 "_ZN5TMBad6global8CompleteINS0_3RepINS_5LogOpEEEE7forwardERNS_11ForwardArgsIbEE"
 "_ZN5TMBad6global8CompleteINS0_3RepINS_5LogOpEEEE7forwardERNS_11ForwardArgsIdEE"
 "_ZN5TMBad6global8CompleteINS0_3RepINS_5LogOpEEEE7forwardERNS_11ForwardArgsINS_6WriterEEE"
 "_ZN5TMBad6global8CompleteINS0_3RepINS_5LogOpEEEE7forwardERNS_11ForwardArgsINS0_6ad_augEEE"
 "_ZN5TMBad6global8CompleteINS0_3RepINS_5LogOpEEEE7op_nameEv"
 "_ZN5TMBad6global8CompleteINS0_3RepINS_5LogOpEEEE7reverseERNS_11ReverseArgsIbEE"
 "_ZN5TMBad6global8CompleteINS0_3RepINS_5LogOpEEEE7reverseERNS_11ReverseArgsIdEE"
 "_ZN5TMBad6global8CompleteINS0_3RepINS_5LogOpEEEE7reverseERNS_11ReverseArgsINS_6WriterEEE"
 "_ZN5TMBad6global8CompleteINS0_3RepINS_5LogOpEEEE7reverseERNS_11ReverseArgsINS0_6ad_augEEE"
 "_ZN5TMBad6global8CompleteINS0_3RepINS_5LogOpEEEE9decrementERSt4pairIjjE"
 "_ZN5TMBad6global8CompleteINS0_3RepINS_5LogOpEEEE9incrementERSt4pairIjjE"
 "_ZN5TMBad6global8CompleteINS0_3RepINS_5LogOpEEEE9self_fuseEv"
 "_ZN5TMBad6global8CompleteINS0_3RepINS_5LogOpEEEED0Ev"
 "_ZN5TMBad6global8CompleteINS0_3RepINS_5LogOpEEEED1Ev"
 "_ZN5TMBad6global8CompleteINS0_3RepINS_5Lt0OpEEEE10deallocateEv"
 "_ZN5TMBad6global8CompleteINS0_3RepINS_5Lt0OpEEEE10identifierEv"
 "_ZN5TMBad6global8CompleteINS0_3RepINS_5Lt0OpEEEE10incompleteEv"
 "_ZN5TMBad6global8CompleteINS0_3RepINS_5Lt0OpEEEE10input_sizeEv"
 "_ZN5TMBad6global8CompleteINS0_3RepINS_5Lt0OpEEEE10other_fuseEPNS0_12OperatorPureE"
 "_ZN5TMBad6global8CompleteINS0_3RepINS_5Lt0OpEEEE11output_sizeEv"
 "_ZN5TMBad6global8CompleteINS0_3RepINS_5Lt0OpEEEE12dependenciesERNS_4ArgsIvEERNS_12DependenciesE"
 "_ZN5TMBad6global8CompleteINS0_3RepINS_5Lt0OpEEEE12forward_incrERNS_11ForwardArgsIbEE"
 "_ZN5TMBad6global8CompleteINS0_3RepINS_5Lt0OpEEEE12forward_incrERNS_11ForwardArgsIdEE"
 "_ZN5TMBad6global8CompleteINS0_3RepINS_5Lt0OpEEEE12forward_incrERNS_11ForwardArgsINS_6WriterEEE"
 "_ZN5TMBad6global8CompleteINS0_3RepINS_5Lt0OpEEEE12forward_incrERNS_11ForwardArgsINS0_6ad_augEEE"
 "_ZN5TMBad6global8CompleteINS0_3RepINS_5Lt0OpEEEE12reverse_decrERNS_11ReverseArgsIbEE"
 "_ZN5TMBad6global8CompleteINS0_3RepINS_5Lt0OpEEEE12reverse_decrERNS_11ReverseArgsIdEE"
 "_ZN5TMBad6global8CompleteINS0_3RepINS_5Lt0OpEEEE12reverse_decrERNS_11ReverseArgsINS_6WriterEEE"
 "_ZN5TMBad6global8CompleteINS0_3RepINS_5Lt0OpEEEE12reverse_decrERNS_11ReverseArgsINS0_6ad_augEEE"
 "_ZN5TMBad6global8CompleteINS0_3RepINS_5Lt0OpEEEE13operator_dataEv"
 "_ZN5TMBad6global8CompleteINS0_3RepINS_5Lt0OpEEEE23forward_incr_mark_denseERNS_11ForwardArgsIbEE"
 "_ZN5TMBad6global8CompleteINS0_3RepINS_5Lt0OpEEEE4copyEv"
 "_ZN5TMBad6global8CompleteINS0_3RepINS_5Lt0OpEEEE4infoEv"
 "_ZN5TMBad6global8CompleteINS0_3RepINS_5Lt0OpEEEE5printENS0_12print_configE"
 "_ZN5TMBad6global8CompleteINS0_3RepINS_5Lt0OpEEEE7forwardERNS_11ForwardArgsIbEE"
 "_ZN5TMBad6global8CompleteINS0_3RepINS_5Lt0OpEEEE7forwardERNS_11ForwardArgsIdEE"
 "_ZN5TMBad6global8CompleteINS0_3RepINS_5Lt0OpEEEE7forwardERNS_11ForwardArgsINS_6WriterEEE"
 "_ZN5TMBad6global8CompleteINS0_3RepINS_5Lt0OpEEEE7forwardERNS_11ForwardArgsINS0_6ad_augEEE"
 "_ZN5TMBad6global8CompleteINS0_3RepINS_5Lt0OpEEEE7op_nameEv"
 "_ZN5TMBad6global8CompleteINS0_3RepINS_5Lt0OpEEEE7reverseERNS_11ReverseArgsIbEE"
 "_ZN5TMBad6global8CompleteINS0_3RepINS_5Lt0OpEEEE7reverseERNS_11ReverseArgsIdEE"
 "_ZN5TMBad6global8CompleteINS0_3RepINS_5Lt0OpEEEE7reverseERNS_11ReverseArgsINS_6WriterEEE"
 "_ZN5TMBad6global8CompleteINS0_3RepINS_5Lt0OpEEEE7reverseERNS_11ReverseArgsINS0_6ad_augEEE"
 "_ZN5TMBad6global8CompleteINS0_3RepINS_5Lt0OpEEEE9decrementERSt4pairIjjE"
 "_ZN5TMBad6global8CompleteINS0_3RepINS_5Lt0OpEEEE9incrementERSt4pairIjjE"
 "_ZN5TMBad6global8CompleteINS0_3RepINS_5Lt0OpEEEE9self_fuseEv"
 "_ZN5TMBad6global8CompleteINS0_3RepINS_5Lt0OpEEEED0Ev"
 "_ZN5TMBad6global8CompleteINS0_3RepINS_5Lt0OpEEEED1Ev"
 "_ZN5TMBad6global8CompleteINS0_3RepINS_5MaxOpEEEE10deallocateEv"
 "_ZN5TMBad6global8CompleteINS0_3RepINS_5MaxOpEEEE10identifierEv"
 "_ZN5TMBad6global8CompleteINS0_3RepINS_5MaxOpEEEE10incompleteEv"
 "_ZN5TMBad6global8CompleteINS0_3RepINS_5MaxOpEEEE10input_sizeEv"
 "_ZN5TMBad6global8CompleteINS0_3RepINS_5MaxOpEEEE10other_fuseEPNS0_12OperatorPureE"
 "_ZN5TMBad6global8CompleteINS0_3RepINS_5MaxOpEEEE11output_sizeEv"
 "_ZN5TMBad6global8CompleteINS0_3RepINS_5MaxOpEEEE12dependenciesERNS_4ArgsIvEERNS_12DependenciesE"
 "_ZN5TMBad6global8CompleteINS0_3RepINS_5MaxOpEEEE12forward_incrERNS_11ForwardArgsIbEE"
 "_ZN5TMBad6global8CompleteINS0_3RepINS_5MaxOpEEEE12forward_incrERNS_11ForwardArgsIdEE"
 "_ZN5TMBad6global8CompleteINS0_3RepINS_5MaxOpEEEE12forward_incrERNS_11ForwardArgsINS_6WriterEEE"
 "_ZN5TMBad6global8CompleteINS0_3RepINS_5MaxOpEEEE12forward_incrERNS_11ForwardArgsINS0_6ad_augEEE"
 "_ZN5TMBad6global8CompleteINS0_3RepINS_5MaxOpEEEE12reverse_decrERNS_11ReverseArgsIbEE"
 "_ZN5TMBad6global8CompleteINS0_3RepINS_5MaxOpEEEE12reverse_decrERNS_11ReverseArgsIdEE"
 "_ZN5TMBad6global8CompleteINS0_3RepINS_5MaxOpEEEE12reverse_decrERNS_11ReverseArgsINS_6WriterEEE"
 "_ZN5TMBad6global8CompleteINS0_3RepINS_5MaxOpEEEE12reverse_decrERNS_11ReverseArgsINS0_6ad_augEEE"
 "_ZN5TMBad6global8CompleteINS0_3RepINS_5MaxOpEEEE13operator_dataEv"
 "_ZN5TMBad6global8CompleteINS0_3RepINS_5MaxOpEEEE23forward_incr_mark_denseERNS_11ForwardArgsIbEE"
 "_ZN5TMBad6global8CompleteINS0_3RepINS_5MaxOpEEEE4copyEv"
 "_ZN5TMBad6global8CompleteINS0_3RepINS_5MaxOpEEEE4infoEv"
 "_ZN5TMBad6global8CompleteINS0_3RepINS_5MaxOpEEEE5printENS0_12print_configE"
 "_ZN5TMBad6global8CompleteINS0_3RepINS_5MaxOpEEEE7forwardERNS_11ForwardArgsIbEE"
 "_ZN5TMBad6global8CompleteINS0_3RepINS_5MaxOpEEEE7forwardERNS_11ForwardArgsIdEE"
 "_ZN5TMBad6global8CompleteINS0_3RepINS_5MaxOpEEEE7forwardERNS_11ForwardArgsINS_6WriterEEE"
 "_ZN5TMBad6global8CompleteINS0_3RepINS_5MaxOpEEEE7forwardERNS_11ForwardArgsINS0_6ad_augEEE"
 "_ZN5TMBad6global8CompleteINS0_3RepINS_5MaxOpEEEE7op_nameEv"
 "_ZN5TMBad6global8CompleteINS0_3RepINS_5MaxOpEEEE7reverseERNS_11ReverseArgsIbEE"
 "_ZN5TMBad6global8CompleteINS0_3RepINS_5MaxOpEEEE7reverseERNS_11ReverseArgsIdEE"
 "_ZN5TMBad6global8CompleteINS0_3RepINS_5MaxOpEEEE7reverseERNS_11ReverseArgsINS_6WriterEEE"
 "_ZN5TMBad6global8CompleteINS0_3RepINS_5MaxOpEEEE7reverseERNS_11ReverseArgsINS0_6ad_augEEE"
 "_ZN5TMBad6global8CompleteINS0_3RepINS_5MaxOpEEEE9decrementERSt4pairIjjE"
 "_ZN5TMBad6global8CompleteINS0_3RepINS_5MaxOpEEEE9incrementERSt4pairIjjE"
 "_ZN5TMBad6global8CompleteINS0_3RepINS_5MaxOpEEEE9self_fuseEv"
 "_ZN5TMBad6global8CompleteINS0_3RepINS_5MaxOpEEEED0Ev"
 "_ZN5TMBad6global8CompleteINS0_3RepINS_5MaxOpEEEED1Ev"
 "_ZN5TMBad6global8CompleteINS0_3RepINS_5MinOpEEEE10deallocateEv"
 "_ZN5TMBad6global8CompleteINS0_3RepINS_5MinOpEEEE10identifierEv"
 "_ZN5TMBad6global8CompleteINS0_3RepINS_5MinOpEEEE10incompleteEv"
 "_ZN5TMBad6global8CompleteINS0_3RepINS_5MinOpEEEE10input_sizeEv"
 "_ZN5TMBad6global8CompleteINS0_3RepINS_5MinOpEEEE10other_fuseEPNS0_12OperatorPureE"
 "_ZN5TMBad6global8CompleteINS0_3RepINS_5MinOpEEEE11output_sizeEv"
 "_ZN5TMBad6global8CompleteINS0_3RepINS_5MinOpEEEE12dependenciesERNS_4ArgsIvEERNS_12DependenciesE"
 "_ZN5TMBad6global8CompleteINS0_3RepINS_5MinOpEEEE12forward_incrERNS_11ForwardArgsIbEE"
 "_ZN5TMBad6global8CompleteINS0_3RepINS_5MinOpEEEE12forward_incrERNS_11ForwardArgsIdEE"
 "_ZN5TMBad6global8CompleteINS0_3RepINS_5MinOpEEEE12forward_incrERNS_11ForwardArgsINS_6WriterEEE"
 "_ZN5TMBad6global8CompleteINS0_3RepINS_5MinOpEEEE12forward_incrERNS_11ForwardArgsINS0_6ad_augEEE"
 "_ZN5TMBad6global8CompleteINS0_3RepINS_5MinOpEEEE12reverse_decrERNS_11ReverseArgsIbEE"
 "_ZN5TMBad6global8CompleteINS0_3RepINS_5MinOpEEEE12reverse_decrERNS_11ReverseArgsIdEE"
 "_ZN5TMBad6global8CompleteINS0_3RepINS_5MinOpEEEE12reverse_decrERNS_11ReverseArgsINS_6WriterEEE"
 "_ZN5TMBad6global8CompleteINS0_3RepINS_5MinOpEEEE12reverse_decrERNS_11ReverseArgsINS0_6ad_augEEE"
 "_ZN5TMBad6global8CompleteINS0_3RepINS_5MinOpEEEE13operator_dataEv"
 "_ZN5TMBad6global8CompleteINS0_3RepINS_5MinOpEEEE23forward_incr_mark_denseERNS_11ForwardArgsIbEE"
 "_ZN5TMBad6global8CompleteINS0_3RepINS_5MinOpEEEE4copyEv"
 "_ZN5TMBad6global8CompleteINS0_3RepINS_5MinOpEEEE4infoEv"
 "_ZN5TMBad6global8CompleteINS0_3RepINS_5MinOpEEEE5printENS0_12print_configE"
 "_ZN5TMBad6global8CompleteINS0_3RepINS_5MinOpEEEE7forwardERNS_11ForwardArgsIbEE"
 "_ZN5TMBad6global8CompleteINS0_3RepINS_5MinOpEEEE7forwardERNS_11ForwardArgsIdEE"
 "_ZN5TMBad6global8CompleteINS0_3RepINS_5MinOpEEEE7forwardERNS_11ForwardArgsINS_6WriterEEE"
 "_ZN5TMBad6global8CompleteINS0_3RepINS_5MinOpEEEE7forwardERNS_11ForwardArgsINS0_6ad_augEEE"
 "_ZN5TMBad6global8CompleteINS0_3RepINS_5MinOpEEEE7op_nameEv"
 "_ZN5TMBad6global8CompleteINS0_3RepINS_5MinOpEEEE7reverseERNS_11ReverseArgsIbEE"
 "_ZN5TMBad6global8CompleteINS0_3RepINS_5MinOpEEEE7reverseERNS_11ReverseArgsIdEE"
 "_ZN5TMBad6global8CompleteINS0_3RepINS_5MinOpEEEE7reverseERNS_11ReverseArgsINS_6WriterEEE"
 "_ZN5TMBad6global8CompleteINS0_3RepINS_5MinOpEEEE7reverseERNS_11ReverseArgsINS0_6ad_augEEE"
 "_ZN5TMBad6global8CompleteINS0_3RepINS_5MinOpEEEE9decrementERSt4pairIjjE"
 "_ZN5TMBad6global8CompleteINS0_3RepINS_5MinOpEEEE9incrementERSt4pairIjjE"
 "_ZN5TMBad6global8CompleteINS0_3RepINS_5MinOpEEEE9self_fuseEv"
 "_ZN5TMBad6global8CompleteINS0_3RepINS_5MinOpEEEED0Ev"
 "_ZN5TMBad6global8CompleteINS0_3RepINS_5MinOpEEEED1Ev"
 "_ZN5TMBad6global8CompleteINS0_3RepINS_5PowOpEEEE10deallocateEv"
 "_ZN5TMBad6global8CompleteINS0_3RepINS_5PowOpEEEE10identifierEv"
 "_ZN5TMBad6global8CompleteINS0_3RepINS_5PowOpEEEE10incompleteEv"
 "_ZN5TMBad6global8CompleteINS0_3RepINS_5PowOpEEEE10input_sizeEv"
 "_ZN5TMBad6global8CompleteINS0_3RepINS_5PowOpEEEE10other_fuseEPNS0_12OperatorPureE"
 "_ZN5TMBad6global8CompleteINS0_3RepINS_5PowOpEEEE11output_sizeEv"
 "_ZN5TMBad6global8CompleteINS0_3RepINS_5PowOpEEEE12dependenciesERNS_4ArgsIvEERNS_12DependenciesE"
 "_ZN5TMBad6global8CompleteINS0_3RepINS_5PowOpEEEE12forward_incrERNS_11ForwardArgsIbEE"
 "_ZN5TMBad6global8CompleteINS0_3RepINS_5PowOpEEEE12forward_incrERNS_11ForwardArgsIdEE"
 "_ZN5TMBad6global8CompleteINS0_3RepINS_5PowOpEEEE12forward_incrERNS_11ForwardArgsINS_6WriterEEE"
 "_ZN5TMBad6global8CompleteINS0_3RepINS_5PowOpEEEE12forward_incrERNS_11ForwardArgsINS0_6ad_augEEE"
 "_ZN5TMBad6global8CompleteINS0_3RepINS_5PowOpEEEE12reverse_decrERNS_11ReverseArgsIbEE"
 "_ZN5TMBad6global8CompleteINS0_3RepINS_5PowOpEEEE12reverse_decrERNS_11ReverseArgsIdEE"
 "_ZN5TMBad6global8CompleteINS0_3RepINS_5PowOpEEEE12reverse_decrERNS_11ReverseArgsINS_6WriterEEE"
 "_ZN5TMBad6global8CompleteINS0_3RepINS_5PowOpEEEE12reverse_decrERNS_11ReverseArgsINS0_6ad_augEEE"
 "_ZN5TMBad6global8CompleteINS0_3RepINS_5PowOpEEEE13operator_dataEv"
 "_ZN5TMBad6global8CompleteINS0_3RepINS_5PowOpEEEE23forward_incr_mark_denseERNS_11ForwardArgsIbEE"
 "_ZN5TMBad6global8CompleteINS0_3RepINS_5PowOpEEEE4copyEv"
 "_ZN5TMBad6global8CompleteINS0_3RepINS_5PowOpEEEE4infoEv"
 "_ZN5TMBad6global8CompleteINS0_3RepINS_5PowOpEEEE5printENS0_12print_configE"
 "_ZN5TMBad6global8CompleteINS0_3RepINS_5PowOpEEEE7forwardERNS_11ForwardArgsIbEE"
 "_ZN5TMBad6global8CompleteINS0_3RepINS_5PowOpEEEE7forwardERNS_11ForwardArgsIdEE"
 "_ZN5TMBad6global8CompleteINS0_3RepINS_5PowOpEEEE7forwardERNS_11ForwardArgsINS_6WriterEEE"
 "_ZN5TMBad6global8CompleteINS0_3RepINS_5PowOpEEEE7forwardERNS_11ForwardArgsINS0_6ad_augEEE"
 "_ZN5TMBad6global8CompleteINS0_3RepINS_5PowOpEEEE7op_nameEv"
 "_ZN5TMBad6global8CompleteINS0_3RepINS_5PowOpEEEE7reverseERNS_11ReverseArgsIbEE"
 "_ZN5TMBad6global8CompleteINS0_3RepINS_5PowOpEEEE7reverseERNS_11ReverseArgsIdEE"
 "_ZN5TMBad6global8CompleteINS0_3RepINS_5PowOpEEEE7reverseERNS_11ReverseArgsINS_6WriterEEE"
 "_ZN5TMBad6global8CompleteINS0_3RepINS_5PowOpEEEE7reverseERNS_11ReverseArgsINS0_6ad_augEEE"
 "_ZN5TMBad6global8CompleteINS0_3RepINS_5PowOpEEEE9decrementERSt4pairIjjE"
 "_ZN5TMBad6global8CompleteINS0_3RepINS_5PowOpEEEE9incrementERSt4pairIjjE"
 "_ZN5TMBad6global8CompleteINS0_3RepINS_5PowOpEEEE9self_fuseEv"
 "_ZN5TMBad6global8CompleteINS0_3RepINS_5PowOpEEEED0Ev"
 "_ZN5TMBad6global8CompleteINS0_3RepINS_5PowOpEEEED1Ev"
 "_ZN5TMBad6global8CompleteINS0_3RepINS_5SinOpEEEE10deallocateEv"
 "_ZN5TMBad6global8CompleteINS0_3RepINS_5SinOpEEEE10identifierEv"
 "_ZN5TMBad6global8CompleteINS0_3RepINS_5SinOpEEEE10incompleteEv"
 "_ZN5TMBad6global8CompleteINS0_3RepINS_5SinOpEEEE10input_sizeEv"
 "_ZN5TMBad6global8CompleteINS0_3RepINS_5SinOpEEEE10other_fuseEPNS0_12OperatorPureE"
 "_ZN5TMBad6global8CompleteINS0_3RepINS_5SinOpEEEE11output_sizeEv"
 "_ZN5TMBad6global8CompleteINS0_3RepINS_5SinOpEEEE12dependenciesERNS_4ArgsIvEERNS_12DependenciesE"
 "_ZN5TMBad6global8CompleteINS0_3RepINS_5SinOpEEEE12forward_incrERNS_11ForwardArgsIbEE"
 "_ZN5TMBad6global8CompleteINS0_3RepINS_5SinOpEEEE12forward_incrERNS_11ForwardArgsIdEE"
 "_ZN5TMBad6global8CompleteINS0_3RepINS_5SinOpEEEE12forward_incrERNS_11ForwardArgsINS_6WriterEEE"
 "_ZN5TMBad6global8CompleteINS0_3RepINS_5SinOpEEEE12forward_incrERNS_11ForwardArgsINS0_6ad_augEEE"
 "_ZN5TMBad6global8CompleteINS0_3RepINS_5SinOpEEEE12reverse_decrERNS_11ReverseArgsIbEE"
 "_ZN5TMBad6global8CompleteINS0_3RepINS_5SinOpEEEE12reverse_decrERNS_11ReverseArgsIdEE"
 "_ZN5TMBad6global8CompleteINS0_3RepINS_5SinOpEEEE12reverse_decrERNS_11ReverseArgsINS_6WriterEEE"
 "_ZN5TMBad6global8CompleteINS0_3RepINS_5SinOpEEEE12reverse_decrERNS_11ReverseArgsINS0_6ad_augEEE"
 "_ZN5TMBad6global8CompleteINS0_3RepINS_5SinOpEEEE13operator_dataEv"
 "_ZN5TMBad6global8CompleteINS0_3RepINS_5SinOpEEEE23forward_incr_mark_denseERNS_11ForwardArgsIbEE"
 "_ZN5TMBad6global8CompleteINS0_3RepINS_5SinOpEEEE4copyEv"
 "_ZN5TMBad6global8CompleteINS0_3RepINS_5SinOpEEEE4infoEv"
 "_ZN5TMBad6global8CompleteINS0_3RepINS_5SinOpEEEE5printENS0_12print_configE"
 "_ZN5TMBad6global8CompleteINS0_3RepINS_5SinOpEEEE7forwardERNS_11ForwardArgsIbEE"
 "_ZN5TMBad6global8CompleteINS0_3RepINS_5SinOpEEEE7forwardERNS_11ForwardArgsIdEE"
 "_ZN5TMBad6global8CompleteINS0_3RepINS_5SinOpEEEE7forwardERNS_11ForwardArgsINS_6WriterEEE"
 "_ZN5TMBad6global8CompleteINS0_3RepINS_5SinOpEEEE7forwardERNS_11ForwardArgsINS0_6ad_augEEE"
 "_ZN5TMBad6global8CompleteINS0_3RepINS_5SinOpEEEE7op_nameEv"
 "_ZN5TMBad6global8CompleteINS0_3RepINS_5SinOpEEEE7reverseERNS_11ReverseArgsIbEE"
 "_ZN5TMBad6global8CompleteINS0_3RepINS_5SinOpEEEE7reverseERNS_11ReverseArgsIdEE"
 "_ZN5TMBad6global8CompleteINS0_3RepINS_5SinOpEEEE7reverseERNS_11ReverseArgsINS_6WriterEEE"
 "_ZN5TMBad6global8CompleteINS0_3RepINS_5SinOpEEEE7reverseERNS_11ReverseArgsINS0_6ad_augEEE"
 "_ZN5TMBad6global8CompleteINS0_3RepINS_5SinOpEEEE9decrementERSt4pairIjjE"
 "_ZN5TMBad6global8CompleteINS0_3RepINS_5SinOpEEEE9incrementERSt4pairIjjE"
 "_ZN5TMBad6global8CompleteINS0_3RepINS_5SinOpEEEE9self_fuseEv"
 "_ZN5TMBad6global8CompleteINS0_3RepINS_5SinOpEEEED0Ev"
 "_ZN5TMBad6global8CompleteINS0_3RepINS_5SinOpEEEED1Ev"
 "_ZN5TMBad6global8CompleteINS0_3RepINS_5TanOpEEEE10deallocateEv"
 "_ZN5TMBad6global8CompleteINS0_3RepINS_5TanOpEEEE10identifierEv"
 "_ZN5TMBad6global8CompleteINS0_3RepINS_5TanOpEEEE10incompleteEv"
 "_ZN5TMBad6global8CompleteINS0_3RepINS_5TanOpEEEE10input_sizeEv"
 "_ZN5TMBad6global8CompleteINS0_3RepINS_5TanOpEEEE10other_fuseEPNS0_12OperatorPureE"
 "_ZN5TMBad6global8CompleteINS0_3RepINS_5TanOpEEEE11output_sizeEv"
 "_ZN5TMBad6global8CompleteINS0_3RepINS_5TanOpEEEE12dependenciesERNS_4ArgsIvEERNS_12DependenciesE"
 "_ZN5TMBad6global8CompleteINS0_3RepINS_5TanOpEEEE12forward_incrERNS_11ForwardArgsIbEE"
 "_ZN5TMBad6global8CompleteINS0_3RepINS_5TanOpEEEE12forward_incrERNS_11ForwardArgsIdEE"
 "_ZN5TMBad6global8CompleteINS0_3RepINS_5TanOpEEEE12forward_incrERNS_11ForwardArgsINS_6WriterEEE"
 "_ZN5TMBad6global8CompleteINS0_3RepINS_5TanOpEEEE12forward_incrERNS_11ForwardArgsINS0_6ad_augEEE"
 "_ZN5TMBad6global8CompleteINS0_3RepINS_5TanOpEEEE12reverse_decrERNS_11ReverseArgsIbEE"
 "_ZN5TMBad6global8CompleteINS0_3RepINS_5TanOpEEEE12reverse_decrERNS_11ReverseArgsIdEE"
 "_ZN5TMBad6global8CompleteINS0_3RepINS_5TanOpEEEE12reverse_decrERNS_11ReverseArgsINS_6WriterEEE"
 "_ZN5TMBad6global8CompleteINS0_3RepINS_5TanOpEEEE12reverse_decrERNS_11ReverseArgsINS0_6ad_augEEE"
 "_ZN5TMBad6global8CompleteINS0_3RepINS_5TanOpEEEE13operator_dataEv"
 "_ZN5TMBad6global8CompleteINS0_3RepINS_5TanOpEEEE23forward_incr_mark_denseERNS_11ForwardArgsIbEE"
 "_ZN5TMBad6global8CompleteINS0_3RepINS_5TanOpEEEE4copyEv"
 "_ZN5TMBad6global8CompleteINS0_3RepINS_5TanOpEEEE4infoEv"
 "_ZN5TMBad6global8CompleteINS0_3RepINS_5TanOpEEEE5printENS0_12print_configE"
 "_ZN5TMBad6global8CompleteINS0_3RepINS_5TanOpEEEE7forwardERNS_11ForwardArgsIbEE"
 "_ZN5TMBad6global8CompleteINS0_3RepINS_5TanOpEEEE7forwardERNS_11ForwardArgsIdEE"
 "_ZN5TMBad6global8CompleteINS0_3RepINS_5TanOpEEEE7forwardERNS_11ForwardArgsINS_6WriterEEE"
 "_ZN5TMBad6global8CompleteINS0_3RepINS_5TanOpEEEE7forwardERNS_11ForwardArgsINS0_6ad_augEEE"
 "_ZN5TMBad6global8CompleteINS0_3RepINS_5TanOpEEEE7op_nameEv"
 "_ZN5TMBad6global8CompleteINS0_3RepINS_5TanOpEEEE7reverseERNS_11ReverseArgsIbEE"
 "_ZN5TMBad6global8CompleteINS0_3RepINS_5TanOpEEEE7reverseERNS_11ReverseArgsIdEE"
 "_ZN5TMBad6global8CompleteINS0_3RepINS_5TanOpEEEE7reverseERNS_11ReverseArgsINS_6WriterEEE"
 "_ZN5TMBad6global8CompleteINS0_3RepINS_5TanOpEEEE7reverseERNS_11ReverseArgsINS0_6ad_augEEE"
 "_ZN5TMBad6global8CompleteINS0_3RepINS_5TanOpEEEE9decrementERSt4pairIjjE"
 "_ZN5TMBad6global8CompleteINS0_3RepINS_5TanOpEEEE9incrementERSt4pairIjjE"
 "_ZN5TMBad6global8CompleteINS0_3RepINS_5TanOpEEEE9self_fuseEv"
 "_ZN5TMBad6global8CompleteINS0_3RepINS_5TanOpEEEED0Ev"
 "_ZN5TMBad6global8CompleteINS0_3RepINS_5TanOpEEEED1Ev"
 "_ZN5TMBad6global8CompleteINS0_3RepINS_6AcosOpEEEE10deallocateEv"
 "_ZN5TMBad6global8CompleteINS0_3RepINS_6AcosOpEEEE10identifierEv"
 "_ZN5TMBad6global8CompleteINS0_3RepINS_6AcosOpEEEE10incompleteEv"
 "_ZN5TMBad6global8CompleteINS0_3RepINS_6AcosOpEEEE10input_sizeEv"
 "_ZN5TMBad6global8CompleteINS0_3RepINS_6AcosOpEEEE10other_fuseEPNS0_12OperatorPureE"
 "_ZN5TMBad6global8CompleteINS0_3RepINS_6AcosOpEEEE11output_sizeEv"
 "_ZN5TMBad6global8CompleteINS0_3RepINS_6AcosOpEEEE12dependenciesERNS_4ArgsIvEERNS_12DependenciesE"
 "_ZN5TMBad6global8CompleteINS0_3RepINS_6AcosOpEEEE12forward_incrERNS_11ForwardArgsIbEE"
 "_ZN5TMBad6global8CompleteINS0_3RepINS_6AcosOpEEEE12forward_incrERNS_11ForwardArgsIdEE"
 "_ZN5TMBad6global8CompleteINS0_3RepINS_6AcosOpEEEE12forward_incrERNS_11ForwardArgsINS_6WriterEEE"
 "_ZN5TMBad6global8CompleteINS0_3RepINS_6AcosOpEEEE12forward_incrERNS_11ForwardArgsINS0_6ad_augEEE"
 "_ZN5TMBad6global8CompleteINS0_3RepINS_6AcosOpEEEE12reverse_decrERNS_11ReverseArgsIbEE"
 "_ZN5TMBad6global8CompleteINS0_3RepINS_6AcosOpEEEE12reverse_decrERNS_11ReverseArgsIdEE"
 "_ZN5TMBad6global8CompleteINS0_3RepINS_6AcosOpEEEE12reverse_decrERNS_11ReverseArgsINS_6WriterEEE"
 "_ZN5TMBad6global8CompleteINS0_3RepINS_6AcosOpEEEE12reverse_decrERNS_11ReverseArgsINS0_6ad_augEEE"
 "_ZN5TMBad6global8CompleteINS0_3RepINS_6AcosOpEEEE13operator_dataEv"
 "_ZN5TMBad6global8CompleteINS0_3RepINS_6AcosOpEEEE23forward_incr_mark_denseERNS_11ForwardArgsIbEE"
 "_ZN5TMBad6global8CompleteINS0_3RepINS_6AcosOpEEEE4copyEv"
 "_ZN5TMBad6global8CompleteINS0_3RepINS_6AcosOpEEEE4infoEv"
 "_ZN5TMBad6global8CompleteINS0_3RepINS_6AcosOpEEEE5printENS0_12print_configE"
 "_ZN5TMBad6global8CompleteINS0_3RepINS_6AcosOpEEEE7forwardERNS_11ForwardArgsIbEE"
 "_ZN5TMBad6global8CompleteINS0_3RepINS_6AcosOpEEEE7forwardERNS_11ForwardArgsIdEE"
 "_ZN5TMBad6global8CompleteINS0_3RepINS_6AcosOpEEEE7forwardERNS_11ForwardArgsINS_6WriterEEE"
 "_ZN5TMBad6global8CompleteINS0_3RepINS_6AcosOpEEEE7forwardERNS_11ForwardArgsINS0_6ad_augEEE"
 "_ZN5TMBad6global8CompleteINS0_3RepINS_6AcosOpEEEE7op_nameEv"
 "_ZN5TMBad6global8CompleteINS0_3RepINS_6AcosOpEEEE7reverseERNS_11ReverseArgsIbEE"
 "_ZN5TMBad6global8CompleteINS0_3RepINS_6AcosOpEEEE7reverseERNS_11ReverseArgsIdEE"
 "_ZN5TMBad6global8CompleteINS0_3RepINS_6AcosOpEEEE7reverseERNS_11ReverseArgsINS_6WriterEEE"
 "_ZN5TMBad6global8CompleteINS0_3RepINS_6AcosOpEEEE7reverseERNS_11ReverseArgsINS0_6ad_augEEE"
 "_ZN5TMBad6global8CompleteINS0_3RepINS_6AcosOpEEEE9decrementERSt4pairIjjE"
 "_ZN5TMBad6global8CompleteINS0_3RepINS_6AcosOpEEEE9incrementERSt4pairIjjE"
 "_ZN5TMBad6global8CompleteINS0_3RepINS_6AcosOpEEEE9self_fuseEv"
 "_ZN5TMBad6global8CompleteINS0_3RepINS_6AcosOpEEEED0Ev"
 "_ZN5TMBad6global8CompleteINS0_3RepINS_6AcosOpEEEED1Ev"
 "_ZN5TMBad6global8CompleteINS0_3RepINS_6AsinOpEEEE10deallocateEv"
 "_ZN5TMBad6global8CompleteINS0_3RepINS_6AsinOpEEEE10identifierEv"
 "_ZN5TMBad6global8CompleteINS0_3RepINS_6AsinOpEEEE10incompleteEv"
 "_ZN5TMBad6global8CompleteINS0_3RepINS_6AsinOpEEEE10input_sizeEv"
 "_ZN5TMBad6global8CompleteINS0_3RepINS_6AsinOpEEEE10other_fuseEPNS0_12OperatorPureE"
 "_ZN5TMBad6global8CompleteINS0_3RepINS_6AsinOpEEEE11output_sizeEv"
 "_ZN5TMBad6global8CompleteINS0_3RepINS_6AsinOpEEEE12dependenciesERNS_4ArgsIvEERNS_12DependenciesE"
 "_ZN5TMBad6global8CompleteINS0_3RepINS_6AsinOpEEEE12forward_incrERNS_11ForwardArgsIbEE"
 "_ZN5TMBad6global8CompleteINS0_3RepINS_6AsinOpEEEE12forward_incrERNS_11ForwardArgsIdEE"
 "_ZN5TMBad6global8CompleteINS0_3RepINS_6AsinOpEEEE12forward_incrERNS_11ForwardArgsINS_6WriterEEE"
 "_ZN5TMBad6global8CompleteINS0_3RepINS_6AsinOpEEEE12forward_incrERNS_11ForwardArgsINS0_6ad_augEEE"
 "_ZN5TMBad6global8CompleteINS0_3RepINS_6AsinOpEEEE12reverse_decrERNS_11ReverseArgsIbEE"
 "_ZN5TMBad6global8CompleteINS0_3RepINS_6AsinOpEEEE12reverse_decrERNS_11ReverseArgsIdEE"
 "_ZN5TMBad6global8CompleteINS0_3RepINS_6AsinOpEEEE12reverse_decrERNS_11ReverseArgsINS_6WriterEEE"
 "_ZN5TMBad6global8CompleteINS0_3RepINS_6AsinOpEEEE12reverse_decrERNS_11ReverseArgsINS0_6ad_augEEE"
 "_ZN5TMBad6global8CompleteINS0_3RepINS_6AsinOpEEEE13operator_dataEv"
 "_ZN5TMBad6global8CompleteINS0_3RepINS_6AsinOpEEEE23forward_incr_mark_denseERNS_11ForwardArgsIbEE"
 "_ZN5TMBad6global8CompleteINS0_3RepINS_6AsinOpEEEE4copyEv"
 "_ZN5TMBad6global8CompleteINS0_3RepINS_6AsinOpEEEE4infoEv"
 "_ZN5TMBad6global8CompleteINS0_3RepINS_6AsinOpEEEE5printENS0_12print_configE"
 "_ZN5TMBad6global8CompleteINS0_3RepINS_6AsinOpEEEE7forwardERNS_11ForwardArgsIbEE"
 "_ZN5TMBad6global8CompleteINS0_3RepINS_6AsinOpEEEE7forwardERNS_11ForwardArgsIdEE"
 "_ZN5TMBad6global8CompleteINS0_3RepINS_6AsinOpEEEE7forwardERNS_11ForwardArgsINS_6WriterEEE"
 "_ZN5TMBad6global8CompleteINS0_3RepINS_6AsinOpEEEE7forwardERNS_11ForwardArgsINS0_6ad_augEEE"
 "_ZN5TMBad6global8CompleteINS0_3RepINS_6AsinOpEEEE7op_nameEv"
 "_ZN5TMBad6global8CompleteINS0_3RepINS_6AsinOpEEEE7reverseERNS_11ReverseArgsIbEE"
 "_ZN5TMBad6global8CompleteINS0_3RepINS_6AsinOpEEEE7reverseERNS_11ReverseArgsIdEE"
 "_ZN5TMBad6global8CompleteINS0_3RepINS_6AsinOpEEEE7reverseERNS_11ReverseArgsINS_6WriterEEE"
 "_ZN5TMBad6global8CompleteINS0_3RepINS_6AsinOpEEEE7reverseERNS_11ReverseArgsINS0_6ad_augEEE"
 "_ZN5TMBad6global8CompleteINS0_3RepINS_6AsinOpEEEE9decrementERSt4pairIjjE"
 "_ZN5TMBad6global8CompleteINS0_3RepINS_6AsinOpEEEE9incrementERSt4pairIjjE"
 "_ZN5TMBad6global8CompleteINS0_3RepINS_6AsinOpEEEE9self_fuseEv"
 "_ZN5TMBad6global8CompleteINS0_3RepINS_6AsinOpEEEED0Ev"
 "_ZN5TMBad6global8CompleteINS0_3RepINS_6AsinOpEEEED1Ev"
 "_ZN5TMBad6global8CompleteINS0_3RepINS_6AtanOpEEEE10deallocateEv"
 "_ZN5TMBad6global8CompleteINS0_3RepINS_6AtanOpEEEE10identifierEv"
 "_ZN5TMBad6global8CompleteINS0_3RepINS_6AtanOpEEEE10incompleteEv"
 "_ZN5TMBad6global8CompleteINS0_3RepINS_6AtanOpEEEE10input_sizeEv"
 "_ZN5TMBad6global8CompleteINS0_3RepINS_6AtanOpEEEE10other_fuseEPNS0_12OperatorPureE"
 "_ZN5TMBad6global8CompleteINS0_3RepINS_6AtanOpEEEE11output_sizeEv"
 "_ZN5TMBad6global8CompleteINS0_3RepINS_6AtanOpEEEE12dependenciesERNS_4ArgsIvEERNS_12DependenciesE"
 "_ZN5TMBad6global8CompleteINS0_3RepINS_6AtanOpEEEE12forward_incrERNS_11ForwardArgsIbEE"
 "_ZN5TMBad6global8CompleteINS0_3RepINS_6AtanOpEEEE12forward_incrERNS_11ForwardArgsIdEE"
 "_ZN5TMBad6global8CompleteINS0_3RepINS_6AtanOpEEEE12forward_incrERNS_11ForwardArgsINS_6WriterEEE"
 "_ZN5TMBad6global8CompleteINS0_3RepINS_6AtanOpEEEE12forward_incrERNS_11ForwardArgsINS0_6ad_augEEE"
 "_ZN5TMBad6global8CompleteINS0_3RepINS_6AtanOpEEEE12reverse_decrERNS_11ReverseArgsIbEE"
 "_ZN5TMBad6global8CompleteINS0_3RepINS_6AtanOpEEEE12reverse_decrERNS_11ReverseArgsIdEE"
 "_ZN5TMBad6global8CompleteINS0_3RepINS_6AtanOpEEEE12reverse_decrERNS_11ReverseArgsINS_6WriterEEE"
 "_ZN5TMBad6global8CompleteINS0_3RepINS_6AtanOpEEEE12reverse_decrERNS_11ReverseArgsINS0_6ad_augEEE"
 "_ZN5TMBad6global8CompleteINS0_3RepINS_6AtanOpEEEE13operator_dataEv"
 "_ZN5TMBad6global8CompleteINS0_3RepINS_6AtanOpEEEE23forward_incr_mark_denseERNS_11ForwardArgsIbEE"
 "_ZN5TMBad6global8CompleteINS0_3RepINS_6AtanOpEEEE4copyEv"
 "_ZN5TMBad6global8CompleteINS0_3RepINS_6AtanOpEEEE4infoEv"
 "_ZN5TMBad6global8CompleteINS0_3RepINS_6AtanOpEEEE5printENS0_12print_configE"
 "_ZN5TMBad6global8CompleteINS0_3RepINS_6AtanOpEEEE7forwardERNS_11ForwardArgsIbEE"
 "_ZN5TMBad6global8CompleteINS0_3RepINS_6AtanOpEEEE7forwardERNS_11ForwardArgsIdEE"
 "_ZN5TMBad6global8CompleteINS0_3RepINS_6AtanOpEEEE7forwardERNS_11ForwardArgsINS_6WriterEEE"
 "_ZN5TMBad6global8CompleteINS0_3RepINS_6AtanOpEEEE7forwardERNS_11ForwardArgsINS0_6ad_augEEE"
 "_ZN5TMBad6global8CompleteINS0_3RepINS_6AtanOpEEEE7op_nameEv"
 "_ZN5TMBad6global8CompleteINS0_3RepINS_6AtanOpEEEE7reverseERNS_11ReverseArgsIbEE"
 "_ZN5TMBad6global8CompleteINS0_3RepINS_6AtanOpEEEE7reverseERNS_11ReverseArgsIdEE"
 "_ZN5TMBad6global8CompleteINS0_3RepINS_6AtanOpEEEE7reverseERNS_11ReverseArgsINS_6WriterEEE"
 "_ZN5TMBad6global8CompleteINS0_3RepINS_6AtanOpEEEE7reverseERNS_11ReverseArgsINS0_6ad_augEEE"
 "_ZN5TMBad6global8CompleteINS0_3RepINS_6AtanOpEEEE9decrementERSt4pairIjjE"
 "_ZN5TMBad6global8CompleteINS0_3RepINS_6AtanOpEEEE9incrementERSt4pairIjjE"
 "_ZN5TMBad6global8CompleteINS0_3RepINS_6AtanOpEEEE9self_fuseEv"
 "_ZN5TMBad6global8CompleteINS0_3RepINS_6AtanOpEEEED0Ev"
 "_ZN5TMBad6global8CompleteINS0_3RepINS_6AtanOpEEEED1Ev"
 "_ZN5TMBad6global8CompleteINS0_3RepINS_6CeilOpEEEE10deallocateEv"
 "_ZN5TMBad6global8CompleteINS0_3RepINS_6CeilOpEEEE10identifierEv"
 "_ZN5TMBad6global8CompleteINS0_3RepINS_6CeilOpEEEE10incompleteEv"
 "_ZN5TMBad6global8CompleteINS0_3RepINS_6CeilOpEEEE10input_sizeEv"
 "_ZN5TMBad6global8CompleteINS0_3RepINS_6CeilOpEEEE10other_fuseEPNS0_12OperatorPureE"
 "_ZN5TMBad6global8CompleteINS0_3RepINS_6CeilOpEEEE11output_sizeEv"
 "_ZN5TMBad6global8CompleteINS0_3RepINS_6CeilOpEEEE12dependenciesERNS_4ArgsIvEERNS_12DependenciesE"
 "_ZN5TMBad6global8CompleteINS0_3RepINS_6CeilOpEEEE12forward_incrERNS_11ForwardArgsIbEE"
 "_ZN5TMBad6global8CompleteINS0_3RepINS_6CeilOpEEEE12forward_incrERNS_11ForwardArgsIdEE"
 "_ZN5TMBad6global8CompleteINS0_3RepINS_6CeilOpEEEE12forward_incrERNS_11ForwardArgsINS_6WriterEEE"
 "_ZN5TMBad6global8CompleteINS0_3RepINS_6CeilOpEEEE12forward_incrERNS_11ForwardArgsINS0_6ad_augEEE"
 "_ZN5TMBad6global8CompleteINS0_3RepINS_6CeilOpEEEE12reverse_decrERNS_11ReverseArgsIbEE"
 "_ZN5TMBad6global8CompleteINS0_3RepINS_6CeilOpEEEE12reverse_decrERNS_11ReverseArgsIdEE"
 "_ZN5TMBad6global8CompleteINS0_3RepINS_6CeilOpEEEE12reverse_decrERNS_11ReverseArgsINS_6WriterEEE"
 "_ZN5TMBad6global8CompleteINS0_3RepINS_6CeilOpEEEE12reverse_decrERNS_11ReverseArgsINS0_6ad_augEEE"
 "_ZN5TMBad6global8CompleteINS0_3RepINS_6CeilOpEEEE13operator_dataEv"
 "_ZN5TMBad6global8CompleteINS0_3RepINS_6CeilOpEEEE23forward_incr_mark_denseERNS_11ForwardArgsIbEE"
 "_ZN5TMBad6global8CompleteINS0_3RepINS_6CeilOpEEEE4copyEv"
 "_ZN5TMBad6global8CompleteINS0_3RepINS_6CeilOpEEEE4infoEv"
 "_ZN5TMBad6global8CompleteINS0_3RepINS_6CeilOpEEEE5printENS0_12print_configE"
 "_ZN5TMBad6global8CompleteINS0_3RepINS_6CeilOpEEEE7forwardERNS_11ForwardArgsIbEE"
 "_ZN5TMBad6global8CompleteINS0_3RepINS_6CeilOpEEEE7forwardERNS_11ForwardArgsIdEE"
 "_ZN5TMBad6global8CompleteINS0_3RepINS_6CeilOpEEEE7forwardERNS_11ForwardArgsINS_6WriterEEE"
 "_ZN5TMBad6global8CompleteINS0_3RepINS_6CeilOpEEEE7forwardERNS_11ForwardArgsINS0_6ad_augEEE"
 "_ZN5TMBad6global8CompleteINS0_3RepINS_6CeilOpEEEE7op_nameEv"
 "_ZN5TMBad6global8CompleteINS0_3RepINS_6CeilOpEEEE7reverseERNS_11ReverseArgsIbEE"
 "_ZN5TMBad6global8CompleteINS0_3RepINS_6CeilOpEEEE7reverseERNS_11ReverseArgsIdEE"
 "_ZN5TMBad6global8CompleteINS0_3RepINS_6CeilOpEEEE7reverseERNS_11ReverseArgsINS_6WriterEEE"
 "_ZN5TMBad6global8CompleteINS0_3RepINS_6CeilOpEEEE7reverseERNS_11ReverseArgsINS0_6ad_augEEE"
 "_ZN5TMBad6global8CompleteINS0_3RepINS_6CeilOpEEEE9decrementERSt4pairIjjE"
 "_ZN5TMBad6global8CompleteINS0_3RepINS_6CeilOpEEEE9incrementERSt4pairIjjE"
 "_ZN5TMBad6global8CompleteINS0_3RepINS_6CeilOpEEEE9self_fuseEv"
 "_ZN5TMBad6global8CompleteINS0_3RepINS_6CeilOpEEEED0Ev"
 "_ZN5TMBad6global8CompleteINS0_3RepINS_6CeilOpEEEED1Ev"
 "_ZN5TMBad6global8CompleteINS0_3RepINS_6CoshOpEEEE10deallocateEv"
 "_ZN5TMBad6global8CompleteINS0_3RepINS_6CoshOpEEEE10identifierEv"
 "_ZN5TMBad6global8CompleteINS0_3RepINS_6CoshOpEEEE10incompleteEv"
 "_ZN5TMBad6global8CompleteINS0_3RepINS_6CoshOpEEEE10input_sizeEv"
 "_ZN5TMBad6global8CompleteINS0_3RepINS_6CoshOpEEEE10other_fuseEPNS0_12OperatorPureE"
 "_ZN5TMBad6global8CompleteINS0_3RepINS_6CoshOpEEEE11output_sizeEv"
 "_ZN5TMBad6global8CompleteINS0_3RepINS_6CoshOpEEEE12dependenciesERNS_4ArgsIvEERNS_12DependenciesE"
 "_ZN5TMBad6global8CompleteINS0_3RepINS_6CoshOpEEEE12forward_incrERNS_11ForwardArgsIbEE"
 "_ZN5TMBad6global8CompleteINS0_3RepINS_6CoshOpEEEE12forward_incrERNS_11ForwardArgsIdEE"
 "_ZN5TMBad6global8CompleteINS0_3RepINS_6CoshOpEEEE12forward_incrERNS_11ForwardArgsINS_6WriterEEE"
 "_ZN5TMBad6global8CompleteINS0_3RepINS_6CoshOpEEEE12forward_incrERNS_11ForwardArgsINS0_6ad_augEEE"
 "_ZN5TMBad6global8CompleteINS0_3RepINS_6CoshOpEEEE12reverse_decrERNS_11ReverseArgsIbEE"
 "_ZN5TMBad6global8CompleteINS0_3RepINS_6CoshOpEEEE12reverse_decrERNS_11ReverseArgsIdEE"
 "_ZN5TMBad6global8CompleteINS0_3RepINS_6CoshOpEEEE12reverse_decrERNS_11ReverseArgsINS_6WriterEEE"
 "_ZN5TMBad6global8CompleteINS0_3RepINS_6CoshOpEEEE12reverse_decrERNS_11ReverseArgsINS0_6ad_augEEE"
 "_ZN5TMBad6global8CompleteINS0_3RepINS_6CoshOpEEEE13operator_dataEv"
 "_ZN5TMBad6global8CompleteINS0_3RepINS_6CoshOpEEEE23forward_incr_mark_denseERNS_11ForwardArgsIbEE"
 "_ZN5TMBad6global8CompleteINS0_3RepINS_6CoshOpEEEE4copyEv"
 "_ZN5TMBad6global8CompleteINS0_3RepINS_6CoshOpEEEE4infoEv"
 "_ZN5TMBad6global8CompleteINS0_3RepINS_6CoshOpEEEE5printENS0_12print_configE"
 "_ZN5TMBad6global8CompleteINS0_3RepINS_6CoshOpEEEE7forwardERNS_11ForwardArgsIbEE"
 "_ZN5TMBad6global8CompleteINS0_3RepINS_6CoshOpEEEE7forwardERNS_11ForwardArgsIdEE"
 "_ZN5TMBad6global8CompleteINS0_3RepINS_6CoshOpEEEE7forwardERNS_11ForwardArgsINS_6WriterEEE"
 "_ZN5TMBad6global8CompleteINS0_3RepINS_6CoshOpEEEE7forwardERNS_11ForwardArgsINS0_6ad_augEEE"
 "_ZN5TMBad6global8CompleteINS0_3RepINS_6CoshOpEEEE7op_nameEv"
 "_ZN5TMBad6global8CompleteINS0_3RepINS_6CoshOpEEEE7reverseERNS_11ReverseArgsIbEE"
 "_ZN5TMBad6global8CompleteINS0_3RepINS_6CoshOpEEEE7reverseERNS_11ReverseArgsIdEE"
 "_ZN5TMBad6global8CompleteINS0_3RepINS_6CoshOpEEEE7reverseERNS_11ReverseArgsINS_6WriterEEE"
 "_ZN5TMBad6global8CompleteINS0_3RepINS_6CoshOpEEEE7reverseERNS_11ReverseArgsINS0_6ad_augEEE"
 "_ZN5TMBad6global8CompleteINS0_3RepINS_6CoshOpEEEE9decrementERSt4pairIjjE"
 "_ZN5TMBad6global8CompleteINS0_3RepINS_6CoshOpEEEE9incrementERSt4pairIjjE"
 "_ZN5TMBad6global8CompleteINS0_3RepINS_6CoshOpEEEE9self_fuseEv"
 "_ZN5TMBad6global8CompleteINS0_3RepINS_6CoshOpEEEED0Ev"
 "_ZN5TMBad6global8CompleteINS0_3RepINS_6CoshOpEEEED1Ev"
 "_ZN5TMBad6global8CompleteINS0_3RepINS_6SignOpEEEE10deallocateEv"
 "_ZN5TMBad6global8CompleteINS0_3RepINS_6SignOpEEEE10identifierEv"
 "_ZN5TMBad6global8CompleteINS0_3RepINS_6SignOpEEEE10incompleteEv"
 "_ZN5TMBad6global8CompleteINS0_3RepINS_6SignOpEEEE10input_sizeEv"
 "_ZN5TMBad6global8CompleteINS0_3RepINS_6SignOpEEEE10other_fuseEPNS0_12OperatorPureE"
 "_ZN5TMBad6global8CompleteINS0_3RepINS_6SignOpEEEE11output_sizeEv"
 "_ZN5TMBad6global8CompleteINS0_3RepINS_6SignOpEEEE12dependenciesERNS_4ArgsIvEERNS_12DependenciesE"
 "_ZN5TMBad6global8CompleteINS0_3RepINS_6SignOpEEEE12forward_incrERNS_11ForwardArgsIbEE"
 "_ZN5TMBad6global8CompleteINS0_3RepINS_6SignOpEEEE12forward_incrERNS_11ForwardArgsIdEE"
 "_ZN5TMBad6global8CompleteINS0_3RepINS_6SignOpEEEE12forward_incrERNS_11ForwardArgsINS_6WriterEEE"
 "_ZN5TMBad6global8CompleteINS0_3RepINS_6SignOpEEEE12forward_incrERNS_11ForwardArgsINS0_6ad_augEEE"
 "_ZN5TMBad6global8CompleteINS0_3RepINS_6SignOpEEEE12reverse_decrERNS_11ReverseArgsIbEE"
 "_ZN5TMBad6global8CompleteINS0_3RepINS_6SignOpEEEE12reverse_decrERNS_11ReverseArgsIdEE"
 "_ZN5TMBad6global8CompleteINS0_3RepINS_6SignOpEEEE12reverse_decrERNS_11ReverseArgsINS_6WriterEEE"
 "_ZN5TMBad6global8CompleteINS0_3RepINS_6SignOpEEEE12reverse_decrERNS_11ReverseArgsINS0_6ad_augEEE"
 "_ZN5TMBad6global8CompleteINS0_3RepINS_6SignOpEEEE13operator_dataEv"
 "_ZN5TMBad6global8CompleteINS0_3RepINS_6SignOpEEEE23forward_incr_mark_denseERNS_11ForwardArgsIbEE"
 "_ZN5TMBad6global8CompleteINS0_3RepINS_6SignOpEEEE4copyEv"
 "_ZN5TMBad6global8CompleteINS0_3RepINS_6SignOpEEEE4infoEv"
 "_ZN5TMBad6global8CompleteINS0_3RepINS_6SignOpEEEE5printENS0_12print_configE"
 "_ZN5TMBad6global8CompleteINS0_3RepINS_6SignOpEEEE7forwardERNS_11ForwardArgsIbEE"
 "_ZN5TMBad6global8CompleteINS0_3RepINS_6SignOpEEEE7forwardERNS_11ForwardArgsIdEE"
 "_ZN5TMBad6global8CompleteINS0_3RepINS_6SignOpEEEE7forwardERNS_11ForwardArgsINS_6WriterEEE"
 "_ZN5TMBad6global8CompleteINS0_3RepINS_6SignOpEEEE7forwardERNS_11ForwardArgsINS0_6ad_augEEE"
 "_ZN5TMBad6global8CompleteINS0_3RepINS_6SignOpEEEE7op_nameEv"
 "_ZN5TMBad6global8CompleteINS0_3RepINS_6SignOpEEEE7reverseERNS_11ReverseArgsIbEE"
 "_ZN5TMBad6global8CompleteINS0_3RepINS_6SignOpEEEE7reverseERNS_11ReverseArgsIdEE"
 "_ZN5TMBad6global8CompleteINS0_3RepINS_6SignOpEEEE7reverseERNS_11ReverseArgsINS_6WriterEEE"
 "_ZN5TMBad6global8CompleteINS0_3RepINS_6SignOpEEEE7reverseERNS_11ReverseArgsINS0_6ad_augEEE"
 "_ZN5TMBad6global8CompleteINS0_3RepINS_6SignOpEEEE9decrementERSt4pairIjjE"
 "_ZN5TMBad6global8CompleteINS0_3RepINS_6SignOpEEEE9incrementERSt4pairIjjE"
 "_ZN5TMBad6global8CompleteINS0_3RepINS_6SignOpEEEE9self_fuseEv"
 "_ZN5TMBad6global8CompleteINS0_3RepINS_6SignOpEEEED0Ev"
 "_ZN5TMBad6global8CompleteINS0_3RepINS_6SignOpEEEED1Ev"
 "_ZN5TMBad6global8CompleteINS0_3RepINS_6SinhOpEEEE10deallocateEv"
 "_ZN5TMBad6global8CompleteINS0_3RepINS_6SinhOpEEEE10identifierEv"
 "_ZN5TMBad6global8CompleteINS0_3RepINS_6SinhOpEEEE10incompleteEv"
 "_ZN5TMBad6global8CompleteINS0_3RepINS_6SinhOpEEEE10input_sizeEv"
 "_ZN5TMBad6global8CompleteINS0_3RepINS_6SinhOpEEEE10other_fuseEPNS0_12OperatorPureE"
 "_ZN5TMBad6global8CompleteINS0_3RepINS_6SinhOpEEEE11output_sizeEv"
 "_ZN5TMBad6global8CompleteINS0_3RepINS_6SinhOpEEEE12dependenciesERNS_4ArgsIvEERNS_12DependenciesE"
 "_ZN5TMBad6global8CompleteINS0_3RepINS_6SinhOpEEEE12forward_incrERNS_11ForwardArgsIbEE"
 "_ZN5TMBad6global8CompleteINS0_3RepINS_6SinhOpEEEE12forward_incrERNS_11ForwardArgsIdEE"
 "_ZN5TMBad6global8CompleteINS0_3RepINS_6SinhOpEEEE12forward_incrERNS_11ForwardArgsINS_6WriterEEE"
 "_ZN5TMBad6global8CompleteINS0_3RepINS_6SinhOpEEEE12forward_incrERNS_11ForwardArgsINS0_6ad_augEEE"
 "_ZN5TMBad6global8CompleteINS0_3RepINS_6SinhOpEEEE12reverse_decrERNS_11ReverseArgsIbEE"
 "_ZN5TMBad6global8CompleteINS0_3RepINS_6SinhOpEEEE12reverse_decrERNS_11ReverseArgsIdEE"
 "_ZN5TMBad6global8CompleteINS0_3RepINS_6SinhOpEEEE12reverse_decrERNS_11ReverseArgsINS_6WriterEEE"
 "_ZN5TMBad6global8CompleteINS0_3RepINS_6SinhOpEEEE12reverse_decrERNS_11ReverseArgsINS0_6ad_augEEE"
 "_ZN5TMBad6global8CompleteINS0_3RepINS_6SinhOpEEEE13operator_dataEv"
 "_ZN5TMBad6global8CompleteINS0_3RepINS_6SinhOpEEEE23forward_incr_mark_denseERNS_11ForwardArgsIbEE"
 "_ZN5TMBad6global8CompleteINS0_3RepINS_6SinhOpEEEE4copyEv"
 "_ZN5TMBad6global8CompleteINS0_3RepINS_6SinhOpEEEE4infoEv"
 "_ZN5TMBad6global8CompleteINS0_3RepINS_6SinhOpEEEE5printENS0_12print_configE"
 "_ZN5TMBad6global8CompleteINS0_3RepINS_6SinhOpEEEE7forwardERNS_11ForwardArgsIbEE"
 "_ZN5TMBad6global8CompleteINS0_3RepINS_6SinhOpEEEE7forwardERNS_11ForwardArgsIdEE"
 "_ZN5TMBad6global8CompleteINS0_3RepINS_6SinhOpEEEE7forwardERNS_11ForwardArgsINS_6WriterEEE"
 "_ZN5TMBad6global8CompleteINS0_3RepINS_6SinhOpEEEE7forwardERNS_11ForwardArgsINS0_6ad_augEEE"
 "_ZN5TMBad6global8CompleteINS0_3RepINS_6SinhOpEEEE7op_nameEv"
 "_ZN5TMBad6global8CompleteINS0_3RepINS_6SinhOpEEEE7reverseERNS_11ReverseArgsIbEE"
 "_ZN5TMBad6global8CompleteINS0_3RepINS_6SinhOpEEEE7reverseERNS_11ReverseArgsIdEE"
 "_ZN5TMBad6global8CompleteINS0_3RepINS_6SinhOpEEEE7reverseERNS_11ReverseArgsINS_6WriterEEE"
 "_ZN5TMBad6global8CompleteINS0_3RepINS_6SinhOpEEEE7reverseERNS_11ReverseArgsINS0_6ad_augEEE"
 "_ZN5TMBad6global8CompleteINS0_3RepINS_6SinhOpEEEE9decrementERSt4pairIjjE"
 "_ZN5TMBad6global8CompleteINS0_3RepINS_6SinhOpEEEE9incrementERSt4pairIjjE"
 "_ZN5TMBad6global8CompleteINS0_3RepINS_6SinhOpEEEE9self_fuseEv"
 "_ZN5TMBad6global8CompleteINS0_3RepINS_6SinhOpEEEED0Ev"
 "_ZN5TMBad6global8CompleteINS0_3RepINS_6SinhOpEEEED1Ev"
 "_ZN5TMBad6global8CompleteINS0_3RepINS_6SqrtOpEEEE10deallocateEv"
 "_ZN5TMBad6global8CompleteINS0_3RepINS_6SqrtOpEEEE10identifierEv"
 "_ZN5TMBad6global8CompleteINS0_3RepINS_6SqrtOpEEEE10incompleteEv"
 "_ZN5TMBad6global8CompleteINS0_3RepINS_6SqrtOpEEEE10input_sizeEv"
 "_ZN5TMBad6global8CompleteINS0_3RepINS_6SqrtOpEEEE10other_fuseEPNS0_12OperatorPureE"
 "_ZN5TMBad6global8CompleteINS0_3RepINS_6SqrtOpEEEE11output_sizeEv"
 "_ZN5TMBad6global8CompleteINS0_3RepINS_6SqrtOpEEEE12dependenciesERNS_4ArgsIvEERNS_12DependenciesE"
 "_ZN5TMBad6global8CompleteINS0_3RepINS_6SqrtOpEEEE12forward_incrERNS_11ForwardArgsIbEE"
 "_ZN5TMBad6global8CompleteINS0_3RepINS_6SqrtOpEEEE12forward_incrERNS_11ForwardArgsIdEE"
 "_ZN5TMBad6global8CompleteINS0_3RepINS_6SqrtOpEEEE12forward_incrERNS_11ForwardArgsINS_6WriterEEE"
 "_ZN5TMBad6global8CompleteINS0_3RepINS_6SqrtOpEEEE12forward_incrERNS_11ForwardArgsINS0_6ad_augEEE"
 "_ZN5TMBad6global8CompleteINS0_3RepINS_6SqrtOpEEEE12reverse_decrERNS_11ReverseArgsIbEE"
 "_ZN5TMBad6global8CompleteINS0_3RepINS_6SqrtOpEEEE12reverse_decrERNS_11ReverseArgsIdEE"
 "_ZN5TMBad6global8CompleteINS0_3RepINS_6SqrtOpEEEE12reverse_decrERNS_11ReverseArgsINS_6WriterEEE"
 "_ZN5TMBad6global8CompleteINS0_3RepINS_6SqrtOpEEEE12reverse_decrERNS_11ReverseArgsINS0_6ad_augEEE"
 "_ZN5TMBad6global8CompleteINS0_3RepINS_6SqrtOpEEEE13operator_dataEv"
 "_ZN5TMBad6global8CompleteINS0_3RepINS_6SqrtOpEEEE23forward_incr_mark_denseERNS_11ForwardArgsIbEE"
 "_ZN5TMBad6global8CompleteINS0_3RepINS_6SqrtOpEEEE4copyEv"
 "_ZN5TMBad6global8CompleteINS0_3RepINS_6SqrtOpEEEE4infoEv"
 "_ZN5TMBad6global8CompleteINS0_3RepINS_6SqrtOpEEEE5printENS0_12print_configE"
 "_ZN5TMBad6global8CompleteINS0_3RepINS_6SqrtOpEEEE7forwardERNS_11ForwardArgsIbEE"
 "_ZN5TMBad6global8CompleteINS0_3RepINS_6SqrtOpEEEE7forwardERNS_11ForwardArgsIdEE"
 "_ZN5TMBad6global8CompleteINS0_3RepINS_6SqrtOpEEEE7forwardERNS_11ForwardArgsINS_6WriterEEE"
 "_ZN5TMBad6global8CompleteINS0_3RepINS_6SqrtOpEEEE7forwardERNS_11ForwardArgsINS0_6ad_augEEE"
 "_ZN5TMBad6global8CompleteINS0_3RepINS_6SqrtOpEEEE7op_nameEv"
 "_ZN5TMBad6global8CompleteINS0_3RepINS_6SqrtOpEEEE7reverseERNS_11ReverseArgsIbEE"
 "_ZN5TMBad6global8CompleteINS0_3RepINS_6SqrtOpEEEE7reverseERNS_11ReverseArgsIdEE"
 "_ZN5TMBad6global8CompleteINS0_3RepINS_6SqrtOpEEEE7reverseERNS_11ReverseArgsINS_6WriterEEE"
 "_ZN5TMBad6global8CompleteINS0_3RepINS_6SqrtOpEEEE7reverseERNS_11ReverseArgsINS0_6ad_augEEE"
 "_ZN5TMBad6global8CompleteINS0_3RepINS_6SqrtOpEEEE9decrementERSt4pairIjjE"
 "_ZN5TMBad6global8CompleteINS0_3RepINS_6SqrtOpEEEE9incrementERSt4pairIjjE"
 "_ZN5TMBad6global8CompleteINS0_3RepINS_6SqrtOpEEEE9self_fuseEv"
 "_ZN5TMBad6global8CompleteINS0_3RepINS_6SqrtOpEEEED0Ev"
 "_ZN5TMBad6global8CompleteINS0_3RepINS_6SqrtOpEEEED1Ev"
 "_ZN5TMBad6global8CompleteINS0_3RepINS_6TanhOpEEEE10deallocateEv"
 "_ZN5TMBad6global8CompleteINS0_3RepINS_6TanhOpEEEE10identifierEv"
 "_ZN5TMBad6global8CompleteINS0_3RepINS_6TanhOpEEEE10incompleteEv"
 "_ZN5TMBad6global8CompleteINS0_3RepINS_6TanhOpEEEE10input_sizeEv"
 "_ZN5TMBad6global8CompleteINS0_3RepINS_6TanhOpEEEE10other_fuseEPNS0_12OperatorPureE"
 "_ZN5TMBad6global8CompleteINS0_3RepINS_6TanhOpEEEE11output_sizeEv"
 "_ZN5TMBad6global8CompleteINS0_3RepINS_6TanhOpEEEE12dependenciesERNS_4ArgsIvEERNS_12DependenciesE"
 "_ZN5TMBad6global8CompleteINS0_3RepINS_6TanhOpEEEE12forward_incrERNS_11ForwardArgsIbEE"
 "_ZN5TMBad6global8CompleteINS0_3RepINS_6TanhOpEEEE12forward_incrERNS_11ForwardArgsIdEE"
 "_ZN5TMBad6global8CompleteINS0_3RepINS_6TanhOpEEEE12forward_incrERNS_11ForwardArgsINS_6WriterEEE"
 "_ZN5TMBad6global8CompleteINS0_3RepINS_6TanhOpEEEE12forward_incrERNS_11ForwardArgsINS0_6ad_augEEE"
 "_ZN5TMBad6global8CompleteINS0_3RepINS_6TanhOpEEEE12reverse_decrERNS_11ReverseArgsIbEE"
 "_ZN5TMBad6global8CompleteINS0_3RepINS_6TanhOpEEEE12reverse_decrERNS_11ReverseArgsIdEE"
 "_ZN5TMBad6global8CompleteINS0_3RepINS_6TanhOpEEEE12reverse_decrERNS_11ReverseArgsINS_6WriterEEE"
 "_ZN5TMBad6global8CompleteINS0_3RepINS_6TanhOpEEEE12reverse_decrERNS_11ReverseArgsINS0_6ad_augEEE"
 "_ZN5TMBad6global8CompleteINS0_3RepINS_6TanhOpEEEE13operator_dataEv"
 "_ZN5TMBad6global8CompleteINS0_3RepINS_6TanhOpEEEE23forward_incr_mark_denseERNS_11ForwardArgsIbEE"
 "_ZN5TMBad6global8CompleteINS0_3RepINS_6TanhOpEEEE4copyEv"
 "_ZN5TMBad6global8CompleteINS0_3RepINS_6TanhOpEEEE4infoEv"
 "_ZN5TMBad6global8CompleteINS0_3RepINS_6TanhOpEEEE5printENS0_12print_configE"
 "_ZN5TMBad6global8CompleteINS0_3RepINS_6TanhOpEEEE7forwardERNS_11ForwardArgsIbEE"
 "_ZN5TMBad6global8CompleteINS0_3RepINS_6TanhOpEEEE7forwardERNS_11ForwardArgsIdEE"
 "_ZN5TMBad6global8CompleteINS0_3RepINS_6TanhOpEEEE7forwardERNS_11ForwardArgsINS_6WriterEEE"
 "_ZN5TMBad6global8CompleteINS0_3RepINS_6TanhOpEEEE7forwardERNS_11ForwardArgsINS0_6ad_augEEE"
 "_ZN5TMBad6global8CompleteINS0_3RepINS_6TanhOpEEEE7op_nameEv"
 "_ZN5TMBad6global8CompleteINS0_3RepINS_6TanhOpEEEE7reverseERNS_11ReverseArgsIbEE"
 "_ZN5TMBad6global8CompleteINS0_3RepINS_6TanhOpEEEE7reverseERNS_11ReverseArgsIdEE"
 "_ZN5TMBad6global8CompleteINS0_3RepINS_6TanhOpEEEE7reverseERNS_11ReverseArgsINS_6WriterEEE"
 "_ZN5TMBad6global8CompleteINS0_3RepINS_6TanhOpEEEE7reverseERNS_11ReverseArgsINS0_6ad_augEEE"
 "_ZN5TMBad6global8CompleteINS0_3RepINS_6TanhOpEEEE9decrementERSt4pairIjjE"
 "_ZN5TMBad6global8CompleteINS0_3RepINS_6TanhOpEEEE9incrementERSt4pairIjjE"
 "_ZN5TMBad6global8CompleteINS0_3RepINS_6TanhOpEEEE9self_fuseEv"
 "_ZN5TMBad6global8CompleteINS0_3RepINS_6TanhOpEEEED0Ev"
 "_ZN5TMBad6global8CompleteINS0_3RepINS_6TanhOpEEEED1Ev"
 "_ZN5TMBad6global8CompleteINS0_3RepINS_7FloorOpEEEE10deallocateEv"
 "_ZN5TMBad6global8CompleteINS0_3RepINS_7FloorOpEEEE10identifierEv"
 "_ZN5TMBad6global8CompleteINS0_3RepINS_7FloorOpEEEE10incompleteEv"
 "_ZN5TMBad6global8CompleteINS0_3RepINS_7FloorOpEEEE10input_sizeEv"
 "_ZN5TMBad6global8CompleteINS0_3RepINS_7FloorOpEEEE10other_fuseEPNS0_12OperatorPureE"
 "_ZN5TMBad6global8CompleteINS0_3RepINS_7FloorOpEEEE11output_sizeEv"
 "_ZN5TMBad6global8CompleteINS0_3RepINS_7FloorOpEEEE12dependenciesERNS_4ArgsIvEERNS_12DependenciesE"
 "_ZN5TMBad6global8CompleteINS0_3RepINS_7FloorOpEEEE12forward_incrERNS_11ForwardArgsIbEE"
 "_ZN5TMBad6global8CompleteINS0_3RepINS_7FloorOpEEEE12forward_incrERNS_11ForwardArgsIdEE"
 "_ZN5TMBad6global8CompleteINS0_3RepINS_7FloorOpEEEE12forward_incrERNS_11ForwardArgsINS_6WriterEEE"
 "_ZN5TMBad6global8CompleteINS0_3RepINS_7FloorOpEEEE12forward_incrERNS_11ForwardArgsINS0_6ad_augEEE"
 "_ZN5TMBad6global8CompleteINS0_3RepINS_7FloorOpEEEE12reverse_decrERNS_11ReverseArgsIbEE"
 "_ZN5TMBad6global8CompleteINS0_3RepINS_7FloorOpEEEE12reverse_decrERNS_11ReverseArgsIdEE"
 "_ZN5TMBad6global8CompleteINS0_3RepINS_7FloorOpEEEE12reverse_decrERNS_11ReverseArgsINS_6WriterEEE"
 "_ZN5TMBad6global8CompleteINS0_3RepINS_7FloorOpEEEE12reverse_decrERNS_11ReverseArgsINS0_6ad_augEEE"
 "_ZN5TMBad6global8CompleteINS0_3RepINS_7FloorOpEEEE13operator_dataEv"
 "_ZN5TMBad6global8CompleteINS0_3RepINS_7FloorOpEEEE23forward_incr_mark_denseERNS_11ForwardArgsIbEE"
 "_ZN5TMBad6global8CompleteINS0_3RepINS_7FloorOpEEEE4copyEv"
 "_ZN5TMBad6global8CompleteINS0_3RepINS_7FloorOpEEEE4infoEv"
 "_ZN5TMBad6global8CompleteINS0_3RepINS_7FloorOpEEEE5printENS0_12print_configE"
 "_ZN5TMBad6global8CompleteINS0_3RepINS_7FloorOpEEEE7forwardERNS_11ForwardArgsIbEE"
 "_ZN5TMBad6global8CompleteINS0_3RepINS_7FloorOpEEEE7forwardERNS_11ForwardArgsIdEE"
 "_ZN5TMBad6global8CompleteINS0_3RepINS_7FloorOpEEEE7forwardERNS_11ForwardArgsINS_6WriterEEE"
 "_ZN5TMBad6global8CompleteINS0_3RepINS_7FloorOpEEEE7forwardERNS_11ForwardArgsINS0_6ad_augEEE"
 "_ZN5TMBad6global8CompleteINS0_3RepINS_7FloorOpEEEE7op_nameEv"
 "_ZN5TMBad6global8CompleteINS0_3RepINS_7FloorOpEEEE7reverseERNS_11ReverseArgsIbEE"
 "_ZN5TMBad6global8CompleteINS0_3RepINS_7FloorOpEEEE7reverseERNS_11ReverseArgsIdEE"
 "_ZN5TMBad6global8CompleteINS0_3RepINS_7FloorOpEEEE7reverseERNS_11ReverseArgsINS_6WriterEEE"
 "_ZN5TMBad6global8CompleteINS0_3RepINS_7FloorOpEEEE7reverseERNS_11ReverseArgsINS0_6ad_augEEE"
 "_ZN5TMBad6global8CompleteINS0_3RepINS_7FloorOpEEEE9decrementERSt4pairIjjE"
 "_ZN5TMBad6global8CompleteINS0_3RepINS_7FloorOpEEEE9incrementERSt4pairIjjE"
 "_ZN5TMBad6global8CompleteINS0_3RepINS_7FloorOpEEEE9self_fuseEv"
 "_ZN5TMBad6global8CompleteINS0_3RepINS_7FloorOpEEEED0Ev"
 "_ZN5TMBad6global8CompleteINS0_3RepINS_7FloorOpEEEED1Ev"
 "_ZN5TMBad6global8CompleteINS0_3RepINS_7RoundOpEEEE10deallocateEv"
 "_ZN5TMBad6global8CompleteINS0_3RepINS_7RoundOpEEEE10identifierEv"
 "_ZN5TMBad6global8CompleteINS0_3RepINS_7RoundOpEEEE10incompleteEv"
 "_ZN5TMBad6global8CompleteINS0_3RepINS_7RoundOpEEEE10input_sizeEv"
 "_ZN5TMBad6global8CompleteINS0_3RepINS_7RoundOpEEEE10other_fuseEPNS0_12OperatorPureE"
 "_ZN5TMBad6global8CompleteINS0_3RepINS_7RoundOpEEEE11output_sizeEv"
 "_ZN5TMBad6global8CompleteINS0_3RepINS_7RoundOpEEEE12dependenciesERNS_4ArgsIvEERNS_12DependenciesE"
 "_ZN5TMBad6global8CompleteINS0_3RepINS_7RoundOpEEEE12forward_incrERNS_11ForwardArgsIbEE"
 "_ZN5TMBad6global8CompleteINS0_3RepINS_7RoundOpEEEE12forward_incrERNS_11ForwardArgsIdEE"
 "_ZN5TMBad6global8CompleteINS0_3RepINS_7RoundOpEEEE12forward_incrERNS_11ForwardArgsINS_6WriterEEE"
 "_ZN5TMBad6global8CompleteINS0_3RepINS_7RoundOpEEEE12forward_incrERNS_11ForwardArgsINS0_6ad_augEEE"
 "_ZN5TMBad6global8CompleteINS0_3RepINS_7RoundOpEEEE12reverse_decrERNS_11ReverseArgsIbEE"
 "_ZN5TMBad6global8CompleteINS0_3RepINS_7RoundOpEEEE12reverse_decrERNS_11ReverseArgsIdEE"
 "_ZN5TMBad6global8CompleteINS0_3RepINS_7RoundOpEEEE12reverse_decrERNS_11ReverseArgsINS_6WriterEEE"
 "_ZN5TMBad6global8CompleteINS0_3RepINS_7RoundOpEEEE12reverse_decrERNS_11ReverseArgsINS0_6ad_augEEE"
 "_ZN5TMBad6global8CompleteINS0_3RepINS_7RoundOpEEEE13operator_dataEv"
 "_ZN5TMBad6global8CompleteINS0_3RepINS_7RoundOpEEEE23forward_incr_mark_denseERNS_11ForwardArgsIbEE"
 "_ZN5TMBad6global8CompleteINS0_3RepINS_7RoundOpEEEE4copyEv"
 "_ZN5TMBad6global8CompleteINS0_3RepINS_7RoundOpEEEE4infoEv"
 "_ZN5TMBad6global8CompleteINS0_3RepINS_7RoundOpEEEE5printENS0_12print_configE"
 "_ZN5TMBad6global8CompleteINS0_3RepINS_7RoundOpEEEE7forwardERNS_11ForwardArgsIbEE"
 "_ZN5TMBad6global8CompleteINS0_3RepINS_7RoundOpEEEE7forwardERNS_11ForwardArgsIdEE"
 "_ZN5TMBad6global8CompleteINS0_3RepINS_7RoundOpEEEE7forwardERNS_11ForwardArgsINS_6WriterEEE"
 "_ZN5TMBad6global8CompleteINS0_3RepINS_7RoundOpEEEE7forwardERNS_11ForwardArgsINS0_6ad_augEEE"
 "_ZN5TMBad6global8CompleteINS0_3RepINS_7RoundOpEEEE7op_nameEv"
 "_ZN5TMBad6global8CompleteINS0_3RepINS_7RoundOpEEEE7reverseERNS_11ReverseArgsIbEE"
 "_ZN5TMBad6global8CompleteINS0_3RepINS_7RoundOpEEEE7reverseERNS_11ReverseArgsIdEE"
 "_ZN5TMBad6global8CompleteINS0_3RepINS_7RoundOpEEEE7reverseERNS_11ReverseArgsINS_6WriterEEE"
 "_ZN5TMBad6global8CompleteINS0_3RepINS_7RoundOpEEEE7reverseERNS_11ReverseArgsINS0_6ad_augEEE"
 "_ZN5TMBad6global8CompleteINS0_3RepINS_7RoundOpEEEE9decrementERSt4pairIjjE"
 "_ZN5TMBad6global8CompleteINS0_3RepINS_7RoundOpEEEE9incrementERSt4pairIjjE"
 "_ZN5TMBad6global8CompleteINS0_3RepINS_7RoundOpEEEE9self_fuseEv"
 "_ZN5TMBad6global8CompleteINS0_3RepINS_7RoundOpEEEED0Ev"
 "_ZN5TMBad6global8CompleteINS0_3RepINS_7RoundOpEEEED1Ev"
 "_ZN5TMBad6global8CompleteINS0_3RepINS_7TruncOpEEEE10deallocateEv"
 "_ZN5TMBad6global8CompleteINS0_3RepINS_7TruncOpEEEE10identifierEv"
 "_ZN5TMBad6global8CompleteINS0_3RepINS_7TruncOpEEEE10incompleteEv"
 "_ZN5TMBad6global8CompleteINS0_3RepINS_7TruncOpEEEE10input_sizeEv"
 "_ZN5TMBad6global8CompleteINS0_3RepINS_7TruncOpEEEE10other_fuseEPNS0_12OperatorPureE"
 "_ZN5TMBad6global8CompleteINS0_3RepINS_7TruncOpEEEE11output_sizeEv"
 "_ZN5TMBad6global8CompleteINS0_3RepINS_7TruncOpEEEE12dependenciesERNS_4ArgsIvEERNS_12DependenciesE"
 "_ZN5TMBad6global8CompleteINS0_3RepINS_7TruncOpEEEE12forward_incrERNS_11ForwardArgsIbEE"
 "_ZN5TMBad6global8CompleteINS0_3RepINS_7TruncOpEEEE12forward_incrERNS_11ForwardArgsIdEE"
 "_ZN5TMBad6global8CompleteINS0_3RepINS_7TruncOpEEEE12forward_incrERNS_11ForwardArgsINS_6WriterEEE"
 "_ZN5TMBad6global8CompleteINS0_3RepINS_7TruncOpEEEE12forward_incrERNS_11ForwardArgsINS0_6ad_augEEE"
 "_ZN5TMBad6global8CompleteINS0_3RepINS_7TruncOpEEEE12reverse_decrERNS_11ReverseArgsIbEE"
 "_ZN5TMBad6global8CompleteINS0_3RepINS_7TruncOpEEEE12reverse_decrERNS_11ReverseArgsIdEE"
 "_ZN5TMBad6global8CompleteINS0_3RepINS_7TruncOpEEEE12reverse_decrERNS_11ReverseArgsINS_6WriterEEE"
 "_ZN5TMBad6global8CompleteINS0_3RepINS_7TruncOpEEEE12reverse_decrERNS_11ReverseArgsINS0_6ad_augEEE"
 "_ZN5TMBad6global8CompleteINS0_3RepINS_7TruncOpEEEE13operator_dataEv"
 "_ZN5TMBad6global8CompleteINS0_3RepINS_7TruncOpEEEE23forward_incr_mark_denseERNS_11ForwardArgsIbEE"
 "_ZN5TMBad6global8CompleteINS0_3RepINS_7TruncOpEEEE4copyEv"
 "_ZN5TMBad6global8CompleteINS0_3RepINS_7TruncOpEEEE4infoEv"
 "_ZN5TMBad6global8CompleteINS0_3RepINS_7TruncOpEEEE5printENS0_12print_configE"
 "_ZN5TMBad6global8CompleteINS0_3RepINS_7TruncOpEEEE7forwardERNS_11ForwardArgsIbEE"
 "_ZN5TMBad6global8CompleteINS0_3RepINS_7TruncOpEEEE7forwardERNS_11ForwardArgsIdEE"
 "_ZN5TMBad6global8CompleteINS0_3RepINS_7TruncOpEEEE7forwardERNS_11ForwardArgsINS_6WriterEEE"
 "_ZN5TMBad6global8CompleteINS0_3RepINS_7TruncOpEEEE7forwardERNS_11ForwardArgsINS0_6ad_augEEE"
 "_ZN5TMBad6global8CompleteINS0_3RepINS_7TruncOpEEEE7op_nameEv"
 "_ZN5TMBad6global8CompleteINS0_3RepINS_7TruncOpEEEE7reverseERNS_11ReverseArgsIbEE"
 "_ZN5TMBad6global8CompleteINS0_3RepINS_7TruncOpEEEE7reverseERNS_11ReverseArgsIdEE"
 "_ZN5TMBad6global8CompleteINS0_3RepINS_7TruncOpEEEE7reverseERNS_11ReverseArgsINS_6WriterEEE"
 "_ZN5TMBad6global8CompleteINS0_3RepINS_7TruncOpEEEE7reverseERNS_11ReverseArgsINS0_6ad_augEEE"
 "_ZN5TMBad6global8CompleteINS0_3RepINS_7TruncOpEEEE9decrementERSt4pairIjjE"
 "_ZN5TMBad6global8CompleteINS0_3RepINS_7TruncOpEEEE9incrementERSt4pairIjjE"
 "_ZN5TMBad6global8CompleteINS0_3RepINS_7TruncOpEEEE9self_fuseEv"
 "_ZN5TMBad6global8CompleteINS0_3RepINS_7TruncOpEEEED0Ev"
 "_ZN5TMBad6global8CompleteINS0_3RepINS_7TruncOpEEEED1Ev"
 "_ZN5TMBad6global8CompleteINS0_3RepINS0_5DepOpEEEE10deallocateEv"
 "_ZN5TMBad6global8CompleteINS0_3RepINS0_5DepOpEEEE10identifierEv"
 "_ZN5TMBad6global8CompleteINS0_3RepINS0_5DepOpEEEE10incompleteEv"
 "_ZN5TMBad6global8CompleteINS0_3RepINS0_5DepOpEEEE10input_sizeEv"
 "_ZN5TMBad6global8CompleteINS0_3RepINS0_5DepOpEEEE10other_fuseEPNS0_12OperatorPureE"
 "_ZN5TMBad6global8CompleteINS0_3RepINS0_5DepOpEEEE11output_sizeEv"
 "_ZN5TMBad6global8CompleteINS0_3RepINS0_5DepOpEEEE12dependenciesERNS_4ArgsIvEERNS_12DependenciesE"
 "_ZN5TMBad6global8CompleteINS0_3RepINS0_5DepOpEEEE12forward_incrERNS_11ForwardArgsIbEE"
 "_ZN5TMBad6global8CompleteINS0_3RepINS0_5DepOpEEEE12forward_incrERNS_11ForwardArgsIdEE"
 "_ZN5TMBad6global8CompleteINS0_3RepINS0_5DepOpEEEE12forward_incrERNS_11ForwardArgsINS_6WriterEEE"
 "_ZN5TMBad6global8CompleteINS0_3RepINS0_5DepOpEEEE12forward_incrERNS_11ForwardArgsINS0_6ad_augEEE"
 "_ZN5TMBad6global8CompleteINS0_3RepINS0_5DepOpEEEE12reverse_decrERNS_11ReverseArgsIbEE"
 "_ZN5TMBad6global8CompleteINS0_3RepINS0_5DepOpEEEE12reverse_decrERNS_11ReverseArgsIdEE"
 "_ZN5TMBad6global8CompleteINS0_3RepINS0_5DepOpEEEE12reverse_decrERNS_11ReverseArgsINS_6WriterEEE"
 "_ZN5TMBad6global8CompleteINS0_3RepINS0_5DepOpEEEE12reverse_decrERNS_11ReverseArgsINS0_6ad_augEEE"
 "_ZN5TMBad6global8CompleteINS0_3RepINS0_5DepOpEEEE13operator_dataEv"
 "_ZN5TMBad6global8CompleteINS0_3RepINS0_5DepOpEEEE23forward_incr_mark_denseERNS_11ForwardArgsIbEE"
 "_ZN5TMBad6global8CompleteINS0_3RepINS0_5DepOpEEEE4copyEv"
 "_ZN5TMBad6global8CompleteINS0_3RepINS0_5DepOpEEEE4infoEv"
 "_ZN5TMBad6global8CompleteINS0_3RepINS0_5DepOpEEEE5printENS0_12print_configE"
 "_ZN5TMBad6global8CompleteINS0_3RepINS0_5DepOpEEEE7forwardERNS_11ForwardArgsIbEE"
 "_ZN5TMBad6global8CompleteINS0_3RepINS0_5DepOpEEEE7forwardERNS_11ForwardArgsIdEE"
 "_ZN5TMBad6global8CompleteINS0_3RepINS0_5DepOpEEEE7forwardERNS_11ForwardArgsINS_6WriterEEE"
 "_ZN5TMBad6global8CompleteINS0_3RepINS0_5DepOpEEEE7forwardERNS_11ForwardArgsINS0_6ad_augEEE"
 "_ZN5TMBad6global8CompleteINS0_3RepINS0_5DepOpEEEE7op_nameEv"
 "_ZN5TMBad6global8CompleteINS0_3RepINS0_5DepOpEEEE7reverseERNS_11ReverseArgsIbEE"
 "_ZN5TMBad6global8CompleteINS0_3RepINS0_5DepOpEEEE7reverseERNS_11ReverseArgsIdEE"
 "_ZN5TMBad6global8CompleteINS0_3RepINS0_5DepOpEEEE7reverseERNS_11ReverseArgsINS_6WriterEEE"
 "_ZN5TMBad6global8CompleteINS0_3RepINS0_5DepOpEEEE7reverseERNS_11ReverseArgsINS0_6ad_augEEE"
 "_ZN5TMBad6global8CompleteINS0_3RepINS0_5DepOpEEEE9decrementERSt4pairIjjE"
 "_ZN5TMBad6global8CompleteINS0_3RepINS0_5DepOpEEEE9incrementERSt4pairIjjE"
 "_ZN5TMBad6global8CompleteINS0_3RepINS0_5DepOpEEEE9self_fuseEv"
 "_ZN5TMBad6global8CompleteINS0_3RepINS0_5DepOpEEEED0Ev"
 "_ZN5TMBad6global8CompleteINS0_3RepINS0_5DepOpEEEED1Ev"
 "_ZN5TMBad6global8CompleteINS0_3RepINS0_5FusedINS0_8ad_plain6AddOp_ILb1ELb1EEENS4_6MulOp_ILb1ELb1EEEEEEEE10deallocateEv"
 "_ZN5TMBad6global8CompleteINS0_3RepINS0_5FusedINS0_8ad_plain6AddOp_ILb1ELb1EEENS4_6MulOp_ILb1ELb1EEEEEEEE10identifierEv"
 "_ZN5TMBad6global8CompleteINS0_3RepINS0_5FusedINS0_8ad_plain6AddOp_ILb1ELb1EEENS4_6MulOp_ILb1ELb1EEEEEEEE10incompleteEv"
 "_ZN5TMBad6global8CompleteINS0_3RepINS0_5FusedINS0_8ad_plain6AddOp_ILb1ELb1EEENS4_6MulOp_ILb1ELb1EEEEEEEE10input_sizeEv"
 "_ZN5TMBad6global8CompleteINS0_3RepINS0_5FusedINS0_8ad_plain6AddOp_ILb1ELb1EEENS4_6MulOp_ILb1ELb1EEEEEEEE10other_fuseEPNS0_12OperatorPureE"
 "_ZN5TMBad6global8CompleteINS0_3RepINS0_5FusedINS0_8ad_plain6AddOp_ILb1ELb1EEENS4_6MulOp_ILb1ELb1EEEEEEEE11output_sizeEv"
 "_ZN5TMBad6global8CompleteINS0_3RepINS0_5FusedINS0_8ad_plain6AddOp_ILb1ELb1EEENS4_6MulOp_ILb1ELb1EEEEEEEE12dependenciesERNS_4ArgsIvEERNS_12DependenciesE"
 "_ZN5TMBad6global8CompleteINS0_3RepINS0_5FusedINS0_8ad_plain6AddOp_ILb1ELb1EEENS4_6MulOp_ILb1ELb1EEEEEEEE12forward_incrERNS_11ForwardArgsIbEE"
 "_ZN5TMBad6global8CompleteINS0_3RepINS0_5FusedINS0_8ad_plain6AddOp_ILb1ELb1EEENS4_6MulOp_ILb1ELb1EEEEEEEE12forward_incrERNS_11ForwardArgsIdEE"
 "_ZN5TMBad6global8CompleteINS0_3RepINS0_5FusedINS0_8ad_plain6AddOp_ILb1ELb1EEENS4_6MulOp_ILb1ELb1EEEEEEEE12forward_incrERNS_11ForwardArgsINS_6WriterEEE"
 "_ZN5TMBad6global8CompleteINS0_3RepINS0_5FusedINS0_8ad_plain6AddOp_ILb1ELb1EEENS4_6MulOp_ILb1ELb1EEEEEEEE12forward_incrERNS_11ForwardArgsINS0_6ad_augEEE"
 "_ZN5TMBad6global8CompleteINS0_3RepINS0_5FusedINS0_8ad_plain6AddOp_ILb1ELb1EEENS4_6MulOp_ILb1ELb1EEEEEEEE12reverse_decrERNS_11ReverseArgsIbEE"
 "_ZN5TMBad6global8CompleteINS0_3RepINS0_5FusedINS0_8ad_plain6AddOp_ILb1ELb1EEENS4_6MulOp_ILb1ELb1EEEEEEEE12reverse_decrERNS_11ReverseArgsIdEE"
 "_ZN5TMBad6global8CompleteINS0_3RepINS0_5FusedINS0_8ad_plain6AddOp_ILb1ELb1EEENS4_6MulOp_ILb1ELb1EEEEEEEE12reverse_decrERNS_11ReverseArgsINS_6WriterEEE"
 "_ZN5TMBad6global8CompleteINS0_3RepINS0_5FusedINS0_8ad_plain6AddOp_ILb1ELb1EEENS4_6MulOp_ILb1ELb1EEEEEEEE12reverse_decrERNS_11ReverseArgsINS0_6ad_augEEE"
 "_ZN5TMBad6global8CompleteINS0_3RepINS0_5FusedINS0_8ad_plain6AddOp_ILb1ELb1EEENS4_6MulOp_ILb1ELb1EEEEEEEE13operator_dataEv"
 "_ZN5TMBad6global8CompleteINS0_3RepINS0_5FusedINS0_8ad_plain6AddOp_ILb1ELb1EEENS4_6MulOp_ILb1ELb1EEEEEEEE23forward_incr_mark_denseERNS_11ForwardArgsIbEE"
 "_ZN5TMBad6global8CompleteINS0_3RepINS0_5FusedINS0_8ad_plain6AddOp_ILb1ELb1EEENS4_6MulOp_ILb1ELb1EEEEEEEE4copyEv"
 "_ZN5TMBad6global8CompleteINS0_3RepINS0_5FusedINS0_8ad_plain6AddOp_ILb1ELb1EEENS4_6MulOp_ILb1ELb1EEEEEEEE4infoEv"
 "_ZN5TMBad6global8CompleteINS0_3RepINS0_5FusedINS0_8ad_plain6AddOp_ILb1ELb1EEENS4_6MulOp_ILb1ELb1EEEEEEEE5printENS0_12print_configE"
 "_ZN5TMBad6global8CompleteINS0_3RepINS0_5FusedINS0_8ad_plain6AddOp_ILb1ELb1EEENS4_6MulOp_ILb1ELb1EEEEEEEE7forwardERNS_11ForwardArgsIbEE"
 "_ZN5TMBad6global8CompleteINS0_3RepINS0_5FusedINS0_8ad_plain6AddOp_ILb1ELb1EEENS4_6MulOp_ILb1ELb1EEEEEEEE7forwardERNS_11ForwardArgsIdEE"
 "_ZN5TMBad6global8CompleteINS0_3RepINS0_5FusedINS0_8ad_plain6AddOp_ILb1ELb1EEENS4_6MulOp_ILb1ELb1EEEEEEEE7forwardERNS_11ForwardArgsINS_6WriterEEE"
 "_ZN5TMBad6global8CompleteINS0_3RepINS0_5FusedINS0_8ad_plain6AddOp_ILb1ELb1EEENS4_6MulOp_ILb1ELb1EEEEEEEE7forwardERNS_11ForwardArgsINS0_6ad_augEEE"
 "_ZN5TMBad6global8CompleteINS0_3RepINS0_5FusedINS0_8ad_plain6AddOp_ILb1ELb1EEENS4_6MulOp_ILb1ELb1EEEEEEEE7op_nameEv"
 "_ZN5TMBad6global8CompleteINS0_3RepINS0_5FusedINS0_8ad_plain6AddOp_ILb1ELb1EEENS4_6MulOp_ILb1ELb1EEEEEEEE7reverseERNS_11ReverseArgsIbEE"
 "_ZN5TMBad6global8CompleteINS0_3RepINS0_5FusedINS0_8ad_plain6AddOp_ILb1ELb1EEENS4_6MulOp_ILb1ELb1EEEEEEEE7reverseERNS_11ReverseArgsIdEE"
 "_ZN5TMBad6global8CompleteINS0_3RepINS0_5FusedINS0_8ad_plain6AddOp_ILb1ELb1EEENS4_6MulOp_ILb1ELb1EEEEEEEE7reverseERNS_11ReverseArgsINS_6WriterEEE"
 "_ZN5TMBad6global8CompleteINS0_3RepINS0_5FusedINS0_8ad_plain6AddOp_ILb1ELb1EEENS4_6MulOp_ILb1ELb1EEEEEEEE7reverseERNS_11ReverseArgsINS0_6ad_augEEE"
 "_ZN5TMBad6global8CompleteINS0_3RepINS0_5FusedINS0_8ad_plain6AddOp_ILb1ELb1EEENS4_6MulOp_ILb1ELb1EEEEEEEE9decrementERSt4pairIjjE"
 "_ZN5TMBad6global8CompleteINS0_3RepINS0_5FusedINS0_8ad_plain6AddOp_ILb1ELb1EEENS4_6MulOp_ILb1ELb1EEEEEEEE9incrementERSt4pairIjjE"
 "_ZN5TMBad6global8CompleteINS0_3RepINS0_5FusedINS0_8ad_plain6AddOp_ILb1ELb1EEENS4_6MulOp_ILb1ELb1EEEEEEEE9self_fuseEv"
 "_ZN5TMBad6global8CompleteINS0_3RepINS0_5FusedINS0_8ad_plain6AddOp_ILb1ELb1EEENS4_6MulOp_ILb1ELb1EEEEEEEED0Ev"
 "_ZN5TMBad6global8CompleteINS0_3RepINS0_5FusedINS0_8ad_plain6AddOp_ILb1ELb1EEENS4_6MulOp_ILb1ELb1EEEEEEEED1Ev"
 "_ZN5TMBad6global8CompleteINS0_3RepINS0_5InvOpEEEE10deallocateEv"
 "_ZN5TMBad6global8CompleteINS0_3RepINS0_5InvOpEEEE10identifierEv"
 "_ZN5TMBad6global8CompleteINS0_3RepINS0_5InvOpEEEE10incompleteEv"
 "_ZN5TMBad6global8CompleteINS0_3RepINS0_5InvOpEEEE10input_sizeEv"
 "_ZN5TMBad6global8CompleteINS0_3RepINS0_5InvOpEEEE10other_fuseEPNS0_12OperatorPureE"
 "_ZN5TMBad6global8CompleteINS0_3RepINS0_5InvOpEEEE11output_sizeEv"
 "_ZN5TMBad6global8CompleteINS0_3RepINS0_5InvOpEEEE12dependenciesERNS_4ArgsIvEERNS_12DependenciesE"
 "_ZN5TMBad6global8CompleteINS0_3RepINS0_5InvOpEEEE12forward_incrERNS_11ForwardArgsIbEE"
 "_ZN5TMBad6global8CompleteINS0_3RepINS0_5InvOpEEEE12forward_incrERNS_11ForwardArgsIdEE"
 "_ZN5TMBad6global8CompleteINS0_3RepINS0_5InvOpEEEE12forward_incrERNS_11ForwardArgsINS_6WriterEEE"
 "_ZN5TMBad6global8CompleteINS0_3RepINS0_5InvOpEEEE12forward_incrERNS_11ForwardArgsINS0_6ad_augEEE"
 "_ZN5TMBad6global8CompleteINS0_3RepINS0_5InvOpEEEE12reverse_decrERNS_11ReverseArgsIbEE"
 "_ZN5TMBad6global8CompleteINS0_3RepINS0_5InvOpEEEE12reverse_decrERNS_11ReverseArgsIdEE"
 "_ZN5TMBad6global8CompleteINS0_3RepINS0_5InvOpEEEE12reverse_decrERNS_11ReverseArgsINS_6WriterEEE"
 "_ZN5TMBad6global8CompleteINS0_3RepINS0_5InvOpEEEE12reverse_decrERNS_11ReverseArgsINS0_6ad_augEEE"
 "_ZN5TMBad6global8CompleteINS0_3RepINS0_5InvOpEEEE13operator_dataEv"
 "_ZN5TMBad6global8CompleteINS0_3RepINS0_5InvOpEEEE23forward_incr_mark_denseERNS_11ForwardArgsIbEE"
 "_ZN5TMBad6global8CompleteINS0_3RepINS0_5InvOpEEEE4copyEv"
 "_ZN5TMBad6global8CompleteINS0_3RepINS0_5InvOpEEEE4infoEv"
 "_ZN5TMBad6global8CompleteINS0_3RepINS0_5InvOpEEEE5printENS0_12print_configE"
 "_ZN5TMBad6global8CompleteINS0_3RepINS0_5InvOpEEEE7forwardERNS_11ForwardArgsIbEE"
 "_ZN5TMBad6global8CompleteINS0_3RepINS0_5InvOpEEEE7forwardERNS_11ForwardArgsIdEE"
 "_ZN5TMBad6global8CompleteINS0_3RepINS0_5InvOpEEEE7forwardERNS_11ForwardArgsINS_6WriterEEE"
 "_ZN5TMBad6global8CompleteINS0_3RepINS0_5InvOpEEEE7forwardERNS_11ForwardArgsINS0_6ad_augEEE"
 "_ZN5TMBad6global8CompleteINS0_3RepINS0_5InvOpEEEE7op_nameEv"
 "_ZN5TMBad6global8CompleteINS0_3RepINS0_5InvOpEEEE7reverseERNS_11ReverseArgsIbEE"
 "_ZN5TMBad6global8CompleteINS0_3RepINS0_5InvOpEEEE7reverseERNS_11ReverseArgsIdEE"
 "_ZN5TMBad6global8CompleteINS0_3RepINS0_5InvOpEEEE7reverseERNS_11ReverseArgsINS_6WriterEEE"
 "_ZN5TMBad6global8CompleteINS0_3RepINS0_5InvOpEEEE7reverseERNS_11ReverseArgsINS0_6ad_augEEE"
 "_ZN5TMBad6global8CompleteINS0_3RepINS0_5InvOpEEEE9decrementERSt4pairIjjE"
 "_ZN5TMBad6global8CompleteINS0_3RepINS0_5InvOpEEEE9incrementERSt4pairIjjE"
 "_ZN5TMBad6global8CompleteINS0_3RepINS0_5InvOpEEEE9self_fuseEv"
 "_ZN5TMBad6global8CompleteINS0_3RepINS0_5InvOpEEEED0Ev"
 "_ZN5TMBad6global8CompleteINS0_3RepINS0_5InvOpEEEED1Ev"
 "_ZN5TMBad6global8CompleteINS0_3RepINS0_6NullOpEEEE10deallocateEv"
 "_ZN5TMBad6global8CompleteINS0_3RepINS0_6NullOpEEEE10identifierEv"
 "_ZN5TMBad6global8CompleteINS0_3RepINS0_6NullOpEEEE10incompleteEv"
 "_ZN5TMBad6global8CompleteINS0_3RepINS0_6NullOpEEEE10input_sizeEv"
 "_ZN5TMBad6global8CompleteINS0_3RepINS0_6NullOpEEEE10other_fuseEPNS0_12OperatorPureE"
 "_ZN5TMBad6global8CompleteINS0_3RepINS0_6NullOpEEEE11output_sizeEv"
 "_ZN5TMBad6global8CompleteINS0_3RepINS0_6NullOpEEEE12dependenciesERNS_4ArgsIvEERNS_12DependenciesE"
 "_ZN5TMBad6global8CompleteINS0_3RepINS0_6NullOpEEEE12forward_incrERNS_11ForwardArgsIbEE"
 "_ZN5TMBad6global8CompleteINS0_3RepINS0_6NullOpEEEE12forward_incrERNS_11ForwardArgsIdEE"
 "_ZN5TMBad6global8CompleteINS0_3RepINS0_6NullOpEEEE12forward_incrERNS_11ForwardArgsINS_6WriterEEE"
 "_ZN5TMBad6global8CompleteINS0_3RepINS0_6NullOpEEEE12forward_incrERNS_11ForwardArgsINS0_6ad_augEEE"
 "_ZN5TMBad6global8CompleteINS0_3RepINS0_6NullOpEEEE12reverse_decrERNS_11ReverseArgsIbEE"
 "_ZN5TMBad6global8CompleteINS0_3RepINS0_6NullOpEEEE12reverse_decrERNS_11ReverseArgsIdEE"
 "_ZN5TMBad6global8CompleteINS0_3RepINS0_6NullOpEEEE12reverse_decrERNS_11ReverseArgsINS_6WriterEEE"
 "_ZN5TMBad6global8CompleteINS0_3RepINS0_6NullOpEEEE12reverse_decrERNS_11ReverseArgsINS0_6ad_augEEE"
 "_ZN5TMBad6global8CompleteINS0_3RepINS0_6NullOpEEEE13operator_dataEv"
 "_ZN5TMBad6global8CompleteINS0_3RepINS0_6NullOpEEEE23forward_incr_mark_denseERNS_11ForwardArgsIbEE"
 "_ZN5TMBad6global8CompleteINS0_3RepINS0_6NullOpEEEE4copyEv"
 "_ZN5TMBad6global8CompleteINS0_3RepINS0_6NullOpEEEE4infoEv"
 "_ZN5TMBad6global8CompleteINS0_3RepINS0_6NullOpEEEE5printENS0_12print_configE"
 "_ZN5TMBad6global8CompleteINS0_3RepINS0_6NullOpEEEE7forwardERNS_11ForwardArgsIbEE"
 "_ZN5TMBad6global8CompleteINS0_3RepINS0_6NullOpEEEE7forwardERNS_11ForwardArgsIdEE"
 "_ZN5TMBad6global8CompleteINS0_3RepINS0_6NullOpEEEE7forwardERNS_11ForwardArgsINS_6WriterEEE"
 "_ZN5TMBad6global8CompleteINS0_3RepINS0_6NullOpEEEE7forwardERNS_11ForwardArgsINS0_6ad_augEEE"
 "_ZN5TMBad6global8CompleteINS0_3RepINS0_6NullOpEEEE7op_nameEv"
 "_ZN5TMBad6global8CompleteINS0_3RepINS0_6NullOpEEEE7reverseERNS_11ReverseArgsIbEE"
 "_ZN5TMBad6global8CompleteINS0_3RepINS0_6NullOpEEEE7reverseERNS_11ReverseArgsIdEE"
 "_ZN5TMBad6global8CompleteINS0_3RepINS0_6NullOpEEEE7reverseERNS_11ReverseArgsINS_6WriterEEE"
 "_ZN5TMBad6global8CompleteINS0_3RepINS0_6NullOpEEEE7reverseERNS_11ReverseArgsINS0_6ad_augEEE"
 "_ZN5TMBad6global8CompleteINS0_3RepINS0_6NullOpEEEE9decrementERSt4pairIjjE"
 "_ZN5TMBad6global8CompleteINS0_3RepINS0_6NullOpEEEE9incrementERSt4pairIjjE"
 "_ZN5TMBad6global8CompleteINS0_3RepINS0_6NullOpEEEE9self_fuseEv"
 "_ZN5TMBad6global8CompleteINS0_3RepINS0_6NullOpEEEED0Ev"
 "_ZN5TMBad6global8CompleteINS0_3RepINS0_6NullOpEEEED1Ev"
 "_ZN5TMBad6global8CompleteINS0_3RepINS0_7ConstOpEEEE10deallocateEv"
 "_ZN5TMBad6global8CompleteINS0_3RepINS0_7ConstOpEEEE10identifierEv"
 "_ZN5TMBad6global8CompleteINS0_3RepINS0_7ConstOpEEEE10incompleteEv"
 "_ZN5TMBad6global8CompleteINS0_3RepINS0_7ConstOpEEEE10input_sizeEv"
 "_ZN5TMBad6global8CompleteINS0_3RepINS0_7ConstOpEEEE10other_fuseEPNS0_12OperatorPureE"
 "_ZN5TMBad6global8CompleteINS0_3RepINS0_7ConstOpEEEE11output_sizeEv"
 "_ZN5TMBad6global8CompleteINS0_3RepINS0_7ConstOpEEEE12dependenciesERNS_4ArgsIvEERNS_12DependenciesE"
 "_ZN5TMBad6global8CompleteINS0_3RepINS0_7ConstOpEEEE12forward_incrERNS_11ForwardArgsIbEE"
 "_ZN5TMBad6global8CompleteINS0_3RepINS0_7ConstOpEEEE12forward_incrERNS_11ForwardArgsIdEE"
 "_ZN5TMBad6global8CompleteINS0_3RepINS0_7ConstOpEEEE12forward_incrERNS_11ForwardArgsINS_6WriterEEE"
 "_ZN5TMBad6global8CompleteINS0_3RepINS0_7ConstOpEEEE12forward_incrERNS_11ForwardArgsINS0_6ad_augEEE"
 "_ZN5TMBad6global8CompleteINS0_3RepINS0_7ConstOpEEEE12reverse_decrERNS_11ReverseArgsIbEE"
 "_ZN5TMBad6global8CompleteINS0_3RepINS0_7ConstOpEEEE12reverse_decrERNS_11ReverseArgsIdEE"
 "_ZN5TMBad6global8CompleteINS0_3RepINS0_7ConstOpEEEE12reverse_decrERNS_11ReverseArgsINS_6WriterEEE"
 "_ZN5TMBad6global8CompleteINS0_3RepINS0_7ConstOpEEEE12reverse_decrERNS_11ReverseArgsINS0_6ad_augEEE"
 "_ZN5TMBad6global8CompleteINS0_3RepINS0_7ConstOpEEEE13operator_dataEv"
 "_ZN5TMBad6global8CompleteINS0_3RepINS0_7ConstOpEEEE23forward_incr_mark_denseERNS_11ForwardArgsIbEE"
 "_ZN5TMBad6global8CompleteINS0_3RepINS0_7ConstOpEEEE4copyEv"
 "_ZN5TMBad6global8CompleteINS0_3RepINS0_7ConstOpEEEE4infoEv"
 "_ZN5TMBad6global8CompleteINS0_3RepINS0_7ConstOpEEEE5printENS0_12print_configE"
 "_ZN5TMBad6global8CompleteINS0_3RepINS0_7ConstOpEEEE7forwardERNS_11ForwardArgsIbEE"
 "_ZN5TMBad6global8CompleteINS0_3RepINS0_7ConstOpEEEE7forwardERNS_11ForwardArgsIdEE"
 "_ZN5TMBad6global8CompleteINS0_3RepINS0_7ConstOpEEEE7forwardERNS_11ForwardArgsINS_6WriterEEE"
 "_ZN5TMBad6global8CompleteINS0_3RepINS0_7ConstOpEEEE7forwardERNS_11ForwardArgsINS0_6ad_augEEE"
 "_ZN5TMBad6global8CompleteINS0_3RepINS0_7ConstOpEEEE7op_nameEv"
 "_ZN5TMBad6global8CompleteINS0_3RepINS0_7ConstOpEEEE7reverseERNS_11ReverseArgsIbEE"
 "_ZN5TMBad6global8CompleteINS0_3RepINS0_7ConstOpEEEE7reverseERNS_11ReverseArgsIdEE"
 "_ZN5TMBad6global8CompleteINS0_3RepINS0_7ConstOpEEEE7reverseERNS_11ReverseArgsINS_6WriterEEE"
 "_ZN5TMBad6global8CompleteINS0_3RepINS0_7ConstOpEEEE7reverseERNS_11ReverseArgsINS0_6ad_augEEE"
 "_ZN5TMBad6global8CompleteINS0_3RepINS0_7ConstOpEEEE9decrementERSt4pairIjjE"
 "_ZN5TMBad6global8CompleteINS0_3RepINS0_7ConstOpEEEE9incrementERSt4pairIjjE"
 "_ZN5TMBad6global8CompleteINS0_3RepINS0_7ConstOpEEEE9self_fuseEv"
 "_ZN5TMBad6global8CompleteINS0_3RepINS0_7ConstOpEEEED0Ev"
 "_ZN5TMBad6global8CompleteINS0_3RepINS0_7ConstOpEEEED1Ev"
 "_ZN5TMBad6global8CompleteINS0_3RepINS0_8ad_plain5NegOpEEEE10deallocateEv"
 "_ZN5TMBad6global8CompleteINS0_3RepINS0_8ad_plain5NegOpEEEE10identifierEv"
 "_ZN5TMBad6global8CompleteINS0_3RepINS0_8ad_plain5NegOpEEEE10incompleteEv"
 "_ZN5TMBad6global8CompleteINS0_3RepINS0_8ad_plain5NegOpEEEE10input_sizeEv"
 "_ZN5TMBad6global8CompleteINS0_3RepINS0_8ad_plain5NegOpEEEE10other_fuseEPNS0_12OperatorPureE"
 "_ZN5TMBad6global8CompleteINS0_3RepINS0_8ad_plain5NegOpEEEE11output_sizeEv"
 "_ZN5TMBad6global8CompleteINS0_3RepINS0_8ad_plain5NegOpEEEE12dependenciesERNS_4ArgsIvEERNS_12DependenciesE"
 "_ZN5TMBad6global8CompleteINS0_3RepINS0_8ad_plain5NegOpEEEE12forward_incrERNS_11ForwardArgsIbEE"
 "_ZN5TMBad6global8CompleteINS0_3RepINS0_8ad_plain5NegOpEEEE12forward_incrERNS_11ForwardArgsIdEE"
 "_ZN5TMBad6global8CompleteINS0_3RepINS0_8ad_plain5NegOpEEEE12forward_incrERNS_11ForwardArgsINS_6WriterEEE"
 "_ZN5TMBad6global8CompleteINS0_3RepINS0_8ad_plain5NegOpEEEE12forward_incrERNS_11ForwardArgsINS0_6ad_augEEE"
 "_ZN5TMBad6global8CompleteINS0_3RepINS0_8ad_plain5NegOpEEEE12reverse_decrERNS_11ReverseArgsIbEE"
 "_ZN5TMBad6global8CompleteINS0_3RepINS0_8ad_plain5NegOpEEEE12reverse_decrERNS_11ReverseArgsIdEE"
 "_ZN5TMBad6global8CompleteINS0_3RepINS0_8ad_plain5NegOpEEEE12reverse_decrERNS_11ReverseArgsINS_6WriterEEE"
 "_ZN5TMBad6global8CompleteINS0_3RepINS0_8ad_plain5NegOpEEEE12reverse_decrERNS_11ReverseArgsINS0_6ad_augEEE"
 "_ZN5TMBad6global8CompleteINS0_3RepINS0_8ad_plain5NegOpEEEE13operator_dataEv"
 "_ZN5TMBad6global8CompleteINS0_3RepINS0_8ad_plain5NegOpEEEE23forward_incr_mark_denseERNS_11ForwardArgsIbEE"
 "_ZN5TMBad6global8CompleteINS0_3RepINS0_8ad_plain5NegOpEEEE4copyEv"
 "_ZN5TMBad6global8CompleteINS0_3RepINS0_8ad_plain5NegOpEEEE4infoEv"
 "_ZN5TMBad6global8CompleteINS0_3RepINS0_8ad_plain5NegOpEEEE5printENS0_12print_configE"
 "_ZN5TMBad6global8CompleteINS0_3RepINS0_8ad_plain5NegOpEEEE7forwardERNS_11ForwardArgsIbEE"
 "_ZN5TMBad6global8CompleteINS0_3RepINS0_8ad_plain5NegOpEEEE7forwardERNS_11ForwardArgsIdEE"
 "_ZN5TMBad6global8CompleteINS0_3RepINS0_8ad_plain5NegOpEEEE7forwardERNS_11ForwardArgsINS_6WriterEEE"
 "_ZN5TMBad6global8CompleteINS0_3RepINS0_8ad_plain5NegOpEEEE7forwardERNS_11ForwardArgsINS0_6ad_augEEE"
 "_ZN5TMBad6global8CompleteINS0_3RepINS0_8ad_plain5NegOpEEEE7op_nameEv"
 "_ZN5TMBad6global8CompleteINS0_3RepINS0_8ad_plain5NegOpEEEE7reverseERNS_11ReverseArgsIbEE"
 "_ZN5TMBad6global8CompleteINS0_3RepINS0_8ad_plain5NegOpEEEE7reverseERNS_11ReverseArgsIdEE"
 "_ZN5TMBad6global8CompleteINS0_3RepINS0_8ad_plain5NegOpEEEE7reverseERNS_11ReverseArgsINS_6WriterEEE"
 "_ZN5TMBad6global8CompleteINS0_3RepINS0_8ad_plain5NegOpEEEE7reverseERNS_11ReverseArgsINS0_6ad_augEEE"
 "_ZN5TMBad6global8CompleteINS0_3RepINS0_8ad_plain5NegOpEEEE9decrementERSt4pairIjjE"
 "_ZN5TMBad6global8CompleteINS0_3RepINS0_8ad_plain5NegOpEEEE9incrementERSt4pairIjjE"
 "_ZN5TMBad6global8CompleteINS0_3RepINS0_8ad_plain5NegOpEEEE9self_fuseEv"
 "_ZN5TMBad6global8CompleteINS0_3RepINS0_8ad_plain5NegOpEEEED0Ev"
 "_ZN5TMBad6global8CompleteINS0_3RepINS0_8ad_plain5NegOpEEEED1Ev"
 "_ZN5TMBad6global8CompleteINS0_3RepINS0_8ad_plain5ValOpEEEE10deallocateEv"
 "_ZN5TMBad6global8CompleteINS0_3RepINS0_8ad_plain5ValOpEEEE10identifierEv"
 "_ZN5TMBad6global8CompleteINS0_3RepINS0_8ad_plain5ValOpEEEE10incompleteEv"
 "_ZN5TMBad6global8CompleteINS0_3RepINS0_8ad_plain5ValOpEEEE10input_sizeEv"
 "_ZN5TMBad6global8CompleteINS0_3RepINS0_8ad_plain5ValOpEEEE10other_fuseEPNS0_12OperatorPureE"
 "_ZN5TMBad6global8CompleteINS0_3RepINS0_8ad_plain5ValOpEEEE11output_sizeEv"
 "_ZN5TMBad6global8CompleteINS0_3RepINS0_8ad_plain5ValOpEEEE12dependenciesERNS_4ArgsIvEERNS_12DependenciesE"
 "_ZN5TMBad6global8CompleteINS0_3RepINS0_8ad_plain5ValOpEEEE12forward_incrERNS_11ForwardArgsIbEE"
 "_ZN5TMBad6global8CompleteINS0_3RepINS0_8ad_plain5ValOpEEEE12forward_incrERNS_11ForwardArgsIdEE"
 "_ZN5TMBad6global8CompleteINS0_3RepINS0_8ad_plain5ValOpEEEE12forward_incrERNS_11ForwardArgsINS_6WriterEEE"
 "_ZN5TMBad6global8CompleteINS0_3RepINS0_8ad_plain5ValOpEEEE12forward_incrERNS_11ForwardArgsINS0_6ad_augEEE"
 "_ZN5TMBad6global8CompleteINS0_3RepINS0_8ad_plain5ValOpEEEE12reverse_decrERNS_11ReverseArgsIbEE"
 "_ZN5TMBad6global8CompleteINS0_3RepINS0_8ad_plain5ValOpEEEE12reverse_decrERNS_11ReverseArgsIdEE"
 "_ZN5TMBad6global8CompleteINS0_3RepINS0_8ad_plain5ValOpEEEE12reverse_decrERNS_11ReverseArgsINS_6WriterEEE"
 "_ZN5TMBad6global8CompleteINS0_3RepINS0_8ad_plain5ValOpEEEE12reverse_decrERNS_11ReverseArgsINS0_6ad_augEEE"
 "_ZN5TMBad6global8CompleteINS0_3RepINS0_8ad_plain5ValOpEEEE13operator_dataEv"
 "_ZN5TMBad6global8CompleteINS0_3RepINS0_8ad_plain5ValOpEEEE23forward_incr_mark_denseERNS_11ForwardArgsIbEE"
 "_ZN5TMBad6global8CompleteINS0_3RepINS0_8ad_plain5ValOpEEEE4copyEv"
 "_ZN5TMBad6global8CompleteINS0_3RepINS0_8ad_plain5ValOpEEEE4infoEv"
 "_ZN5TMBad6global8CompleteINS0_3RepINS0_8ad_plain5ValOpEEEE5printENS0_12print_configE"
 "_ZN5TMBad6global8CompleteINS0_3RepINS0_8ad_plain5ValOpEEEE7forwardERNS_11ForwardArgsIbEE"
 "_ZN5TMBad6global8CompleteINS0_3RepINS0_8ad_plain5ValOpEEEE7forwardERNS_11ForwardArgsIdEE"
 "_ZN5TMBad6global8CompleteINS0_3RepINS0_8ad_plain5ValOpEEEE7forwardERNS_11ForwardArgsINS_6WriterEEE"
 "_ZN5TMBad6global8CompleteINS0_3RepINS0_8ad_plain5ValOpEEEE7forwardERNS_11ForwardArgsINS0_6ad_augEEE"
 "_ZN5TMBad6global8CompleteINS0_3RepINS0_8ad_plain5ValOpEEEE7op_nameEv"
 "_ZN5TMBad6global8CompleteINS0_3RepINS0_8ad_plain5ValOpEEEE7reverseERNS_11ReverseArgsIbEE"
 "_ZN5TMBad6global8CompleteINS0_3RepINS0_8ad_plain5ValOpEEEE7reverseERNS_11ReverseArgsIdEE"
 "_ZN5TMBad6global8CompleteINS0_3RepINS0_8ad_plain5ValOpEEEE7reverseERNS_11ReverseArgsINS_6WriterEEE"
 "_ZN5TMBad6global8CompleteINS0_3RepINS0_8ad_plain5ValOpEEEE7reverseERNS_11ReverseArgsINS0_6ad_augEEE"
 "_ZN5TMBad6global8CompleteINS0_3RepINS0_8ad_plain5ValOpEEEE9decrementERSt4pairIjjE"
 "_ZN5TMBad6global8CompleteINS0_3RepINS0_8ad_plain5ValOpEEEE9incrementERSt4pairIjjE"
 "_ZN5TMBad6global8CompleteINS0_3RepINS0_8ad_plain5ValOpEEEE9self_fuseEv"
 "_ZN5TMBad6global8CompleteINS0_3RepINS0_8ad_plain5ValOpEEEED0Ev"
 "_ZN5TMBad6global8CompleteINS0_3RepINS0_8ad_plain5ValOpEEEED1Ev"
 "_ZN5TMBad6global8CompleteINS0_3RepINS0_8ad_plain6AddOp_ILb1ELb1EEEEEE10deallocateEv"
 "_ZN5TMBad6global8CompleteINS0_3RepINS0_8ad_plain6AddOp_ILb1ELb1EEEEEE10identifierEv"
 "_ZN5TMBad6global8CompleteINS0_3RepINS0_8ad_plain6AddOp_ILb1ELb1EEEEEE10incompleteEv"
 "_ZN5TMBad6global8CompleteINS0_3RepINS0_8ad_plain6AddOp_ILb1ELb1EEEEEE10input_sizeEv"
 "_ZN5TMBad6global8CompleteINS0_3RepINS0_8ad_plain6AddOp_ILb1ELb1EEEEEE10other_fuseEPNS0_12OperatorPureE"
 "_ZN5TMBad6global8CompleteINS0_3RepINS0_8ad_plain6AddOp_ILb1ELb1EEEEEE11output_sizeEv"
 "_ZN5TMBad6global8CompleteINS0_3RepINS0_8ad_plain6AddOp_ILb1ELb1EEEEEE12dependenciesERNS_4ArgsIvEERNS_12DependenciesE"
 "_ZN5TMBad6global8CompleteINS0_3RepINS0_8ad_plain6AddOp_ILb1ELb1EEEEEE12forward_incrERNS_11ForwardArgsIbEE"
 "_ZN5TMBad6global8CompleteINS0_3RepINS0_8ad_plain6AddOp_ILb1ELb1EEEEEE12forward_incrERNS_11ForwardArgsIdEE"
 "_ZN5TMBad6global8CompleteINS0_3RepINS0_8ad_plain6AddOp_ILb1ELb1EEEEEE12forward_incrERNS_11ForwardArgsINS_6WriterEEE"
 "_ZN5TMBad6global8CompleteINS0_3RepINS0_8ad_plain6AddOp_ILb1ELb1EEEEEE12forward_incrERNS_11ForwardArgsINS0_6ad_augEEE"
 "_ZN5TMBad6global8CompleteINS0_3RepINS0_8ad_plain6AddOp_ILb1ELb1EEEEEE12reverse_decrERNS_11ReverseArgsIbEE"
 "_ZN5TMBad6global8CompleteINS0_3RepINS0_8ad_plain6AddOp_ILb1ELb1EEEEEE12reverse_decrERNS_11ReverseArgsIdEE"
 "_ZN5TMBad6global8CompleteINS0_3RepINS0_8ad_plain6AddOp_ILb1ELb1EEEEEE12reverse_decrERNS_11ReverseArgsINS_6WriterEEE"
 "_ZN5TMBad6global8CompleteINS0_3RepINS0_8ad_plain6AddOp_ILb1ELb1EEEEEE12reverse_decrERNS_11ReverseArgsINS0_6ad_augEEE"
 "_ZN5TMBad6global8CompleteINS0_3RepINS0_8ad_plain6AddOp_ILb1ELb1EEEEEE13operator_dataEv"
 "_ZN5TMBad6global8CompleteINS0_3RepINS0_8ad_plain6AddOp_ILb1ELb1EEEEEE23forward_incr_mark_denseERNS_11ForwardArgsIbEE"
 "_ZN5TMBad6global8CompleteINS0_3RepINS0_8ad_plain6AddOp_ILb1ELb1EEEEEE4copyEv"
 "_ZN5TMBad6global8CompleteINS0_3RepINS0_8ad_plain6AddOp_ILb1ELb1EEEEEE4infoEv"
 "_ZN5TMBad6global8CompleteINS0_3RepINS0_8ad_plain6AddOp_ILb1ELb1EEEEEE5printENS0_12print_configE"
 "_ZN5TMBad6global8CompleteINS0_3RepINS0_8ad_plain6AddOp_ILb1ELb1EEEEEE7forwardERNS_11ForwardArgsIbEE"
 "_ZN5TMBad6global8CompleteINS0_3RepINS0_8ad_plain6AddOp_ILb1ELb1EEEEEE7forwardERNS_11ForwardArgsIdEE"
 "_ZN5TMBad6global8CompleteINS0_3RepINS0_8ad_plain6AddOp_ILb1ELb1EEEEEE7forwardERNS_11ForwardArgsINS_6WriterEEE"
 "_ZN5TMBad6global8CompleteINS0_3RepINS0_8ad_plain6AddOp_ILb1ELb1EEEEEE7forwardERNS_11ForwardArgsINS0_6ad_augEEE"
 "_ZN5TMBad6global8CompleteINS0_3RepINS0_8ad_plain6AddOp_ILb1ELb1EEEEEE7op_nameEv"
 "_ZN5TMBad6global8CompleteINS0_3RepINS0_8ad_plain6AddOp_ILb1ELb1EEEEEE7reverseERNS_11ReverseArgsIbEE"
 "_ZN5TMBad6global8CompleteINS0_3RepINS0_8ad_plain6AddOp_ILb1ELb1EEEEEE7reverseERNS_11ReverseArgsIdEE"
 "_ZN5TMBad6global8CompleteINS0_3RepINS0_8ad_plain6AddOp_ILb1ELb1EEEEEE7reverseERNS_11ReverseArgsINS_6WriterEEE"
 "_ZN5TMBad6global8CompleteINS0_3RepINS0_8ad_plain6AddOp_ILb1ELb1EEEEEE7reverseERNS_11ReverseArgsINS0_6ad_augEEE"
 "_ZN5TMBad6global8CompleteINS0_3RepINS0_8ad_plain6AddOp_ILb1ELb1EEEEEE9decrementERSt4pairIjjE"
 "_ZN5TMBad6global8CompleteINS0_3RepINS0_8ad_plain6AddOp_ILb1ELb1EEEEEE9incrementERSt4pairIjjE"
 "_ZN5TMBad6global8CompleteINS0_3RepINS0_8ad_plain6AddOp_ILb1ELb1EEEEEE9self_fuseEv"
 "_ZN5TMBad6global8CompleteINS0_3RepINS0_8ad_plain6AddOp_ILb1ELb1EEEEEED0Ev"
 "_ZN5TMBad6global8CompleteINS0_3RepINS0_8ad_plain6AddOp_ILb1ELb1EEEEEED1Ev"
 "_ZN5TMBad6global8CompleteINS0_3RepINS0_8ad_plain6CopyOpEEEE10deallocateEv"
 "_ZN5TMBad6global8CompleteINS0_3RepINS0_8ad_plain6CopyOpEEEE10identifierEv"
 "_ZN5TMBad6global8CompleteINS0_3RepINS0_8ad_plain6CopyOpEEEE10incompleteEv"
 "_ZN5TMBad6global8CompleteINS0_3RepINS0_8ad_plain6CopyOpEEEE10input_sizeEv"
 "_ZN5TMBad6global8CompleteINS0_3RepINS0_8ad_plain6CopyOpEEEE10other_fuseEPNS0_12OperatorPureE"
 "_ZN5TMBad6global8CompleteINS0_3RepINS0_8ad_plain6CopyOpEEEE11output_sizeEv"
 "_ZN5TMBad6global8CompleteINS0_3RepINS0_8ad_plain6CopyOpEEEE12dependenciesERNS_4ArgsIvEERNS_12DependenciesE"
 "_ZN5TMBad6global8CompleteINS0_3RepINS0_8ad_plain6CopyOpEEEE12forward_incrERNS_11ForwardArgsIbEE"
 "_ZN5TMBad6global8CompleteINS0_3RepINS0_8ad_plain6CopyOpEEEE12forward_incrERNS_11ForwardArgsIdEE"
 "_ZN5TMBad6global8CompleteINS0_3RepINS0_8ad_plain6CopyOpEEEE12forward_incrERNS_11ForwardArgsINS_6WriterEEE"
 "_ZN5TMBad6global8CompleteINS0_3RepINS0_8ad_plain6CopyOpEEEE12forward_incrERNS_11ForwardArgsINS0_6ad_augEEE"
 "_ZN5TMBad6global8CompleteINS0_3RepINS0_8ad_plain6CopyOpEEEE12reverse_decrERNS_11ReverseArgsIbEE"
 "_ZN5TMBad6global8CompleteINS0_3RepINS0_8ad_plain6CopyOpEEEE12reverse_decrERNS_11ReverseArgsIdEE"
 "_ZN5TMBad6global8CompleteINS0_3RepINS0_8ad_plain6CopyOpEEEE12reverse_decrERNS_11ReverseArgsINS_6WriterEEE"
 "_ZN5TMBad6global8CompleteINS0_3RepINS0_8ad_plain6CopyOpEEEE12reverse_decrERNS_11ReverseArgsINS0_6ad_augEEE"
 "_ZN5TMBad6global8CompleteINS0_3RepINS0_8ad_plain6CopyOpEEEE13operator_dataEv"
 "_ZN5TMBad6global8CompleteINS0_3RepINS0_8ad_plain6CopyOpEEEE23forward_incr_mark_denseERNS_11ForwardArgsIbEE"
 "_ZN5TMBad6global8CompleteINS0_3RepINS0_8ad_plain6CopyOpEEEE4copyEv"
 "_ZN5TMBad6global8CompleteINS0_3RepINS0_8ad_plain6CopyOpEEEE4infoEv"
 "_ZN5TMBad6global8CompleteINS0_3RepINS0_8ad_plain6CopyOpEEEE5printENS0_12print_configE"
 "_ZN5TMBad6global8CompleteINS0_3RepINS0_8ad_plain6CopyOpEEEE7forwardERNS_11ForwardArgsIbEE"
 "_ZN5TMBad6global8CompleteINS0_3RepINS0_8ad_plain6CopyOpEEEE7forwardERNS_11ForwardArgsIdEE"
 "_ZN5TMBad6global8CompleteINS0_3RepINS0_8ad_plain6CopyOpEEEE7forwardERNS_11ForwardArgsINS_6WriterEEE"
 "_ZN5TMBad6global8CompleteINS0_3RepINS0_8ad_plain6CopyOpEEEE7forwardERNS_11ForwardArgsINS0_6ad_augEEE"
 "_ZN5TMBad6global8CompleteINS0_3RepINS0_8ad_plain6CopyOpEEEE7op_nameEv"
 "_ZN5TMBad6global8CompleteINS0_3RepINS0_8ad_plain6CopyOpEEEE7reverseERNS_11ReverseArgsIbEE"
 "_ZN5TMBad6global8CompleteINS0_3RepINS0_8ad_plain6CopyOpEEEE7reverseERNS_11ReverseArgsIdEE"
 "_ZN5TMBad6global8CompleteINS0_3RepINS0_8ad_plain6CopyOpEEEE7reverseERNS_11ReverseArgsINS_6WriterEEE"
 "_ZN5TMBad6global8CompleteINS0_3RepINS0_8ad_plain6CopyOpEEEE7reverseERNS_11ReverseArgsINS0_6ad_augEEE"
 "_ZN5TMBad6global8CompleteINS0_3RepINS0_8ad_plain6CopyOpEEEE9decrementERSt4pairIjjE"
 "_ZN5TMBad6global8CompleteINS0_3RepINS0_8ad_plain6CopyOpEEEE9incrementERSt4pairIjjE"
 "_ZN5TMBad6global8CompleteINS0_3RepINS0_8ad_plain6CopyOpEEEE9self_fuseEv"
 "_ZN5TMBad6global8CompleteINS0_3RepINS0_8ad_plain6CopyOpEEEED0Ev"
 "_ZN5TMBad6global8CompleteINS0_3RepINS0_8ad_plain6CopyOpEEEED1Ev"
 "_ZN5TMBad6global8CompleteINS0_3RepINS0_8ad_plain6DivOp_ILb1ELb1EEEEEE10deallocateEv"
 "_ZN5TMBad6global8CompleteINS0_3RepINS0_8ad_plain6DivOp_ILb1ELb1EEEEEE10identifierEv"
 "_ZN5TMBad6global8CompleteINS0_3RepINS0_8ad_plain6DivOp_ILb1ELb1EEEEEE10incompleteEv"
 "_ZN5TMBad6global8CompleteINS0_3RepINS0_8ad_plain6DivOp_ILb1ELb1EEEEEE10input_sizeEv"
 "_ZN5TMBad6global8CompleteINS0_3RepINS0_8ad_plain6DivOp_ILb1ELb1EEEEEE10other_fuseEPNS0_12OperatorPureE"
 "_ZN5TMBad6global8CompleteINS0_3RepINS0_8ad_plain6DivOp_ILb1ELb1EEEEEE11output_sizeEv"
 "_ZN5TMBad6global8CompleteINS0_3RepINS0_8ad_plain6DivOp_ILb1ELb1EEEEEE12dependenciesERNS_4ArgsIvEERNS_12DependenciesE"
 "_ZN5TMBad6global8CompleteINS0_3RepINS0_8ad_plain6DivOp_ILb1ELb1EEEEEE12forward_incrERNS_11ForwardArgsIbEE"
 "_ZN5TMBad6global8CompleteINS0_3RepINS0_8ad_plain6DivOp_ILb1ELb1EEEEEE12forward_incrERNS_11ForwardArgsIdEE"
 "_ZN5TMBad6global8CompleteINS0_3RepINS0_8ad_plain6DivOp_ILb1ELb1EEEEEE12forward_incrERNS_11ForwardArgsINS_6WriterEEE"
 "_ZN5TMBad6global8CompleteINS0_3RepINS0_8ad_plain6DivOp_ILb1ELb1EEEEEE12forward_incrERNS_11ForwardArgsINS0_6ad_augEEE"
 "_ZN5TMBad6global8CompleteINS0_3RepINS0_8ad_plain6DivOp_ILb1ELb1EEEEEE12reverse_decrERNS_11ReverseArgsIbEE"
 "_ZN5TMBad6global8CompleteINS0_3RepINS0_8ad_plain6DivOp_ILb1ELb1EEEEEE12reverse_decrERNS_11ReverseArgsIdEE"
 "_ZN5TMBad6global8CompleteINS0_3RepINS0_8ad_plain6DivOp_ILb1ELb1EEEEEE12reverse_decrERNS_11ReverseArgsINS_6WriterEEE"
 "_ZN5TMBad6global8CompleteINS0_3RepINS0_8ad_plain6DivOp_ILb1ELb1EEEEEE12reverse_decrERNS_11ReverseArgsINS0_6ad_augEEE"
 "_ZN5TMBad6global8CompleteINS0_3RepINS0_8ad_plain6DivOp_ILb1ELb1EEEEEE13operator_dataEv"
 "_ZN5TMBad6global8CompleteINS0_3RepINS0_8ad_plain6DivOp_ILb1ELb1EEEEEE23forward_incr_mark_denseERNS_11ForwardArgsIbEE"
 "_ZN5TMBad6global8CompleteINS0_3RepINS0_8ad_plain6DivOp_ILb1ELb1EEEEEE4copyEv"
 "_ZN5TMBad6global8CompleteINS0_3RepINS0_8ad_plain6DivOp_ILb1ELb1EEEEEE4infoEv"
 "_ZN5TMBad6global8CompleteINS0_3RepINS0_8ad_plain6DivOp_ILb1ELb1EEEEEE5printENS0_12print_configE"
 "_ZN5TMBad6global8CompleteINS0_3RepINS0_8ad_plain6DivOp_ILb1ELb1EEEEEE7forwardERNS_11ForwardArgsIbEE"
 "_ZN5TMBad6global8CompleteINS0_3RepINS0_8ad_plain6DivOp_ILb1ELb1EEEEEE7forwardERNS_11ForwardArgsIdEE"
 "_ZN5TMBad6global8CompleteINS0_3RepINS0_8ad_plain6DivOp_ILb1ELb1EEEEEE7forwardERNS_11ForwardArgsINS_6WriterEEE"
 "_ZN5TMBad6global8CompleteINS0_3RepINS0_8ad_plain6DivOp_ILb1ELb1EEEEEE7forwardERNS_11ForwardArgsINS0_6ad_augEEE"
 "_ZN5TMBad6global8CompleteINS0_3RepINS0_8ad_plain6DivOp_ILb1ELb1EEEEEE7op_nameEv"
 "_ZN5TMBad6global8CompleteINS0_3RepINS0_8ad_plain6DivOp_ILb1ELb1EEEEEE7reverseERNS_11ReverseArgsIbEE"
 "_ZN5TMBad6global8CompleteINS0_3RepINS0_8ad_plain6DivOp_ILb1ELb1EEEEEE7reverseERNS_11ReverseArgsIdEE"
 "_ZN5TMBad6global8CompleteINS0_3RepINS0_8ad_plain6DivOp_ILb1ELb1EEEEEE7reverseERNS_11ReverseArgsINS_6WriterEEE"
 "_ZN5TMBad6global8CompleteINS0_3RepINS0_8ad_plain6DivOp_ILb1ELb1EEEEEE7reverseERNS_11ReverseArgsINS0_6ad_augEEE"
 "_ZN5TMBad6global8CompleteINS0_3RepINS0_8ad_plain6DivOp_ILb1ELb1EEEEEE9decrementERSt4pairIjjE"
 "_ZN5TMBad6global8CompleteINS0_3RepINS0_8ad_plain6DivOp_ILb1ELb1EEEEEE9incrementERSt4pairIjjE"
 "_ZN5TMBad6global8CompleteINS0_3RepINS0_8ad_plain6DivOp_ILb1ELb1EEEEEE9self_fuseEv"
 "_ZN5TMBad6global8CompleteINS0_3RepINS0_8ad_plain6DivOp_ILb1ELb1EEEEEED0Ev"
 "_ZN5TMBad6global8CompleteINS0_3RepINS0_8ad_plain6DivOp_ILb1ELb1EEEEEED1Ev"
 "_ZN5TMBad6global8CompleteINS0_3RepINS0_8ad_plain6MulOp_ILb1ELb0EEEEEE10deallocateEv"
 "_ZN5TMBad6global8CompleteINS0_3RepINS0_8ad_plain6MulOp_ILb1ELb0EEEEEE10identifierEv"
 "_ZN5TMBad6global8CompleteINS0_3RepINS0_8ad_plain6MulOp_ILb1ELb0EEEEEE10incompleteEv"
 "_ZN5TMBad6global8CompleteINS0_3RepINS0_8ad_plain6MulOp_ILb1ELb0EEEEEE10input_sizeEv"
 "_ZN5TMBad6global8CompleteINS0_3RepINS0_8ad_plain6MulOp_ILb1ELb0EEEEEE10other_fuseEPNS0_12OperatorPureE"
 "_ZN5TMBad6global8CompleteINS0_3RepINS0_8ad_plain6MulOp_ILb1ELb0EEEEEE11output_sizeEv"
 "_ZN5TMBad6global8CompleteINS0_3RepINS0_8ad_plain6MulOp_ILb1ELb0EEEEEE12dependenciesERNS_4ArgsIvEERNS_12DependenciesE"
 "_ZN5TMBad6global8CompleteINS0_3RepINS0_8ad_plain6MulOp_ILb1ELb0EEEEEE12forward_incrERNS_11ForwardArgsIbEE"
 "_ZN5TMBad6global8CompleteINS0_3RepINS0_8ad_plain6MulOp_ILb1ELb0EEEEEE12forward_incrERNS_11ForwardArgsIdEE"
 "_ZN5TMBad6global8CompleteINS0_3RepINS0_8ad_plain6MulOp_ILb1ELb0EEEEEE12forward_incrERNS_11ForwardArgsINS_6WriterEEE"
 "_ZN5TMBad6global8CompleteINS0_3RepINS0_8ad_plain6MulOp_ILb1ELb0EEEEEE12forward_incrERNS_11ForwardArgsINS0_6ad_augEEE"
 "_ZN5TMBad6global8CompleteINS0_3RepINS0_8ad_plain6MulOp_ILb1ELb0EEEEEE12reverse_decrERNS_11ReverseArgsIbEE"
 "_ZN5TMBad6global8CompleteINS0_3RepINS0_8ad_plain6MulOp_ILb1ELb0EEEEEE12reverse_decrERNS_11ReverseArgsIdEE"
 "_ZN5TMBad6global8CompleteINS0_3RepINS0_8ad_plain6MulOp_ILb1ELb0EEEEEE12reverse_decrERNS_11ReverseArgsINS_6WriterEEE"
 "_ZN5TMBad6global8CompleteINS0_3RepINS0_8ad_plain6MulOp_ILb1ELb0EEEEEE12reverse_decrERNS_11ReverseArgsINS0_6ad_augEEE"
 "_ZN5TMBad6global8CompleteINS0_3RepINS0_8ad_plain6MulOp_ILb1ELb0EEEEEE13operator_dataEv"
 "_ZN5TMBad6global8CompleteINS0_3RepINS0_8ad_plain6MulOp_ILb1ELb0EEEEEE23forward_incr_mark_denseERNS_11ForwardArgsIbEE"
 "_ZN5TMBad6global8CompleteINS0_3RepINS0_8ad_plain6MulOp_ILb1ELb0EEEEEE4copyEv"
 "_ZN5TMBad6global8CompleteINS0_3RepINS0_8ad_plain6MulOp_ILb1ELb0EEEEEE4infoEv"
 "_ZN5TMBad6global8CompleteINS0_3RepINS0_8ad_plain6MulOp_ILb1ELb0EEEEEE5printENS0_12print_configE"
 "_ZN5TMBad6global8CompleteINS0_3RepINS0_8ad_plain6MulOp_ILb1ELb0EEEEEE7forwardERNS_11ForwardArgsIbEE"
 "_ZN5TMBad6global8CompleteINS0_3RepINS0_8ad_plain6MulOp_ILb1ELb0EEEEEE7forwardERNS_11ForwardArgsIdEE"
 "_ZN5TMBad6global8CompleteINS0_3RepINS0_8ad_plain6MulOp_ILb1ELb0EEEEEE7forwardERNS_11ForwardArgsINS_6WriterEEE"
 "_ZN5TMBad6global8CompleteINS0_3RepINS0_8ad_plain6MulOp_ILb1ELb0EEEEEE7forwardERNS_11ForwardArgsINS0_6ad_augEEE"
 "_ZN5TMBad6global8CompleteINS0_3RepINS0_8ad_plain6MulOp_ILb1ELb0EEEEEE7op_nameEv"
 "_ZN5TMBad6global8CompleteINS0_3RepINS0_8ad_plain6MulOp_ILb1ELb0EEEEEE7reverseERNS_11ReverseArgsIbEE"
 "_ZN5TMBad6global8CompleteINS0_3RepINS0_8ad_plain6MulOp_ILb1ELb0EEEEEE7reverseERNS_11ReverseArgsIdEE"
 "_ZN5TMBad6global8CompleteINS0_3RepINS0_8ad_plain6MulOp_ILb1ELb0EEEEEE7reverseERNS_11ReverseArgsINS_6WriterEEE"
 "_ZN5TMBad6global8CompleteINS0_3RepINS0_8ad_plain6MulOp_ILb1ELb0EEEEEE7reverseERNS_11ReverseArgsINS0_6ad_augEEE"
 "_ZN5TMBad6global8CompleteINS0_3RepINS0_8ad_plain6MulOp_ILb1ELb0EEEEEE9decrementERSt4pairIjjE"
 "_ZN5TMBad6global8CompleteINS0_3RepINS0_8ad_plain6MulOp_ILb1ELb0EEEEEE9incrementERSt4pairIjjE"
 "_ZN5TMBad6global8CompleteINS0_3RepINS0_8ad_plain6MulOp_ILb1ELb0EEEEEE9self_fuseEv"
 "_ZN5TMBad6global8CompleteINS0_3RepINS0_8ad_plain6MulOp_ILb1ELb0EEEEEED0Ev"
 "_ZN5TMBad6global8CompleteINS0_3RepINS0_8ad_plain6MulOp_ILb1ELb0EEEEEED1Ev"
 "_ZN5TMBad6global8CompleteINS0_3RepINS0_8ad_plain6MulOp_ILb1ELb1EEEEEE10deallocateEv"
 "_ZN5TMBad6global8CompleteINS0_3RepINS0_8ad_plain6MulOp_ILb1ELb1EEEEEE10identifierEv"
 "_ZN5TMBad6global8CompleteINS0_3RepINS0_8ad_plain6MulOp_ILb1ELb1EEEEEE10incompleteEv"
 "_ZN5TMBad6global8CompleteINS0_3RepINS0_8ad_plain6MulOp_ILb1ELb1EEEEEE10input_sizeEv"
 "_ZN5TMBad6global8CompleteINS0_3RepINS0_8ad_plain6MulOp_ILb1ELb1EEEEEE10other_fuseEPNS0_12OperatorPureE"
 "_ZN5TMBad6global8CompleteINS0_3RepINS0_8ad_plain6MulOp_ILb1ELb1EEEEEE11output_sizeEv"
 "_ZN5TMBad6global8CompleteINS0_3RepINS0_8ad_plain6MulOp_ILb1ELb1EEEEEE12dependenciesERNS_4ArgsIvEERNS_12DependenciesE"
 "_ZN5TMBad6global8CompleteINS0_3RepINS0_8ad_plain6MulOp_ILb1ELb1EEEEEE12forward_incrERNS_11ForwardArgsIbEE"
 "_ZN5TMBad6global8CompleteINS0_3RepINS0_8ad_plain6MulOp_ILb1ELb1EEEEEE12forward_incrERNS_11ForwardArgsIdEE"
 "_ZN5TMBad6global8CompleteINS0_3RepINS0_8ad_plain6MulOp_ILb1ELb1EEEEEE12forward_incrERNS_11ForwardArgsINS_6WriterEEE"
 "_ZN5TMBad6global8CompleteINS0_3RepINS0_8ad_plain6MulOp_ILb1ELb1EEEEEE12forward_incrERNS_11ForwardArgsINS0_6ad_augEEE"
 "_ZN5TMBad6global8CompleteINS0_3RepINS0_8ad_plain6MulOp_ILb1ELb1EEEEEE12reverse_decrERNS_11ReverseArgsIbEE"
 "_ZN5TMBad6global8CompleteINS0_3RepINS0_8ad_plain6MulOp_ILb1ELb1EEEEEE12reverse_decrERNS_11ReverseArgsIdEE"
 "_ZN5TMBad6global8CompleteINS0_3RepINS0_8ad_plain6MulOp_ILb1ELb1EEEEEE12reverse_decrERNS_11ReverseArgsINS_6WriterEEE"
 "_ZN5TMBad6global8CompleteINS0_3RepINS0_8ad_plain6MulOp_ILb1ELb1EEEEEE12reverse_decrERNS_11ReverseArgsINS0_6ad_augEEE"
 "_ZN5TMBad6global8CompleteINS0_3RepINS0_8ad_plain6MulOp_ILb1ELb1EEEEEE13operator_dataEv"
 "_ZN5TMBad6global8CompleteINS0_3RepINS0_8ad_plain6MulOp_ILb1ELb1EEEEEE23forward_incr_mark_denseERNS_11ForwardArgsIbEE"
 "_ZN5TMBad6global8CompleteINS0_3RepINS0_8ad_plain6MulOp_ILb1ELb1EEEEEE4copyEv"
 "_ZN5TMBad6global8CompleteINS0_3RepINS0_8ad_plain6MulOp_ILb1ELb1EEEEEE4infoEv"
 "_ZN5TMBad6global8CompleteINS0_3RepINS0_8ad_plain6MulOp_ILb1ELb1EEEEEE5printENS0_12print_configE"
 "_ZN5TMBad6global8CompleteINS0_3RepINS0_8ad_plain6MulOp_ILb1ELb1EEEEEE7forwardERNS_11ForwardArgsIbEE"
 "_ZN5TMBad6global8CompleteINS0_3RepINS0_8ad_plain6MulOp_ILb1ELb1EEEEEE7forwardERNS_11ForwardArgsIdEE"
 "_ZN5TMBad6global8CompleteINS0_3RepINS0_8ad_plain6MulOp_ILb1ELb1EEEEEE7forwardERNS_11ForwardArgsINS_6WriterEEE"
 "_ZN5TMBad6global8CompleteINS0_3RepINS0_8ad_plain6MulOp_ILb1ELb1EEEEEE7forwardERNS_11ForwardArgsINS0_6ad_augEEE"
 "_ZN5TMBad6global8CompleteINS0_3RepINS0_8ad_plain6MulOp_ILb1ELb1EEEEEE7op_nameEv"
 "_ZN5TMBad6global8CompleteINS0_3RepINS0_8ad_plain6MulOp_ILb1ELb1EEEEEE7reverseERNS_11ReverseArgsIbEE"
 "_ZN5TMBad6global8CompleteINS0_3RepINS0_8ad_plain6MulOp_ILb1ELb1EEEEEE7reverseERNS_11ReverseArgsIdEE"
 "_ZN5TMBad6global8CompleteINS0_3RepINS0_8ad_plain6MulOp_ILb1ELb1EEEEEE7reverseERNS_11ReverseArgsINS_6WriterEEE"
 "_ZN5TMBad6global8CompleteINS0_3RepINS0_8ad_plain6MulOp_ILb1ELb1EEEEEE7reverseERNS_11ReverseArgsINS0_6ad_augEEE"
 "_ZN5TMBad6global8CompleteINS0_3RepINS0_8ad_plain6MulOp_ILb1ELb1EEEEEE9decrementERSt4pairIjjE"
 "_ZN5TMBad6global8CompleteINS0_3RepINS0_8ad_plain6MulOp_ILb1ELb1EEEEEE9incrementERSt4pairIjjE"
 "_ZN5TMBad6global8CompleteINS0_3RepINS0_8ad_plain6MulOp_ILb1ELb1EEEEEE9self_fuseEv"
 "_ZN5TMBad6global8CompleteINS0_3RepINS0_8ad_plain6MulOp_ILb1ELb1EEEEEED0Ev"
 "_ZN5TMBad6global8CompleteINS0_3RepINS0_8ad_plain6MulOp_ILb1ELb1EEEEEED1Ev"
 "_ZN5TMBad6global8CompleteINS0_3RepINS0_8ad_plain6SubOp_ILb1ELb1EEEEEE10deallocateEv"
 "_ZN5TMBad6global8CompleteINS0_3RepINS0_8ad_plain6SubOp_ILb1ELb1EEEEEE10identifierEv"
 "_ZN5TMBad6global8CompleteINS0_3RepINS0_8ad_plain6SubOp_ILb1ELb1EEEEEE10incompleteEv"
 "_ZN5TMBad6global8CompleteINS0_3RepINS0_8ad_plain6SubOp_ILb1ELb1EEEEEE10input_sizeEv"
 "_ZN5TMBad6global8CompleteINS0_3RepINS0_8ad_plain6SubOp_ILb1ELb1EEEEEE10other_fuseEPNS0_12OperatorPureE"
 "_ZN5TMBad6global8CompleteINS0_3RepINS0_8ad_plain6SubOp_ILb1ELb1EEEEEE11output_sizeEv"
 "_ZN5TMBad6global8CompleteINS0_3RepINS0_8ad_plain6SubOp_ILb1ELb1EEEEEE12dependenciesERNS_4ArgsIvEERNS_12DependenciesE"
 "_ZN5TMBad6global8CompleteINS0_3RepINS0_8ad_plain6SubOp_ILb1ELb1EEEEEE12forward_incrERNS_11ForwardArgsIbEE"
 "_ZN5TMBad6global8CompleteINS0_3RepINS0_8ad_plain6SubOp_ILb1ELb1EEEEEE12forward_incrERNS_11ForwardArgsIdEE"
 "_ZN5TMBad6global8CompleteINS0_3RepINS0_8ad_plain6SubOp_ILb1ELb1EEEEEE12forward_incrERNS_11ForwardArgsINS_6WriterEEE"
 "_ZN5TMBad6global8CompleteINS0_3RepINS0_8ad_plain6SubOp_ILb1ELb1EEEEEE12forward_incrERNS_11ForwardArgsINS0_6ad_augEEE"
 "_ZN5TMBad6global8CompleteINS0_3RepINS0_8ad_plain6SubOp_ILb1ELb1EEEEEE12reverse_decrERNS_11ReverseArgsIbEE"
 "_ZN5TMBad6global8CompleteINS0_3RepINS0_8ad_plain6SubOp_ILb1ELb1EEEEEE12reverse_decrERNS_11ReverseArgsIdEE"
 "_ZN5TMBad6global8CompleteINS0_3RepINS0_8ad_plain6SubOp_ILb1ELb1EEEEEE12reverse_decrERNS_11ReverseArgsINS_6WriterEEE"
 "_ZN5TMBad6global8CompleteINS0_3RepINS0_8ad_plain6SubOp_ILb1ELb1EEEEEE12reverse_decrERNS_11ReverseArgsINS0_6ad_augEEE"
 "_ZN5TMBad6global8CompleteINS0_3RepINS0_8ad_plain6SubOp_ILb1ELb1EEEEEE13operator_dataEv"
 "_ZN5TMBad6global8CompleteINS0_3RepINS0_8ad_plain6SubOp_ILb1ELb1EEEEEE23forward_incr_mark_denseERNS_11ForwardArgsIbEE"
 "_ZN5TMBad6global8CompleteINS0_3RepINS0_8ad_plain6SubOp_ILb1ELb1EEEEEE4copyEv"
 "_ZN5TMBad6global8CompleteINS0_3RepINS0_8ad_plain6SubOp_ILb1ELb1EEEEEE4infoEv"
 "_ZN5TMBad6global8CompleteINS0_3RepINS0_8ad_plain6SubOp_ILb1ELb1EEEEEE5printENS0_12print_configE"
 "_ZN5TMBad6global8CompleteINS0_3RepINS0_8ad_plain6SubOp_ILb1ELb1EEEEEE7forwardERNS_11ForwardArgsIbEE"
 "_ZN5TMBad6global8CompleteINS0_3RepINS0_8ad_plain6SubOp_ILb1ELb1EEEEEE7forwardERNS_11ForwardArgsIdEE"
 "_ZN5TMBad6global8CompleteINS0_3RepINS0_8ad_plain6SubOp_ILb1ELb1EEEEEE7forwardERNS_11ForwardArgsINS_6WriterEEE"
 "_ZN5TMBad6global8CompleteINS0_3RepINS0_8ad_plain6SubOp_ILb1ELb1EEEEEE7forwardERNS_11ForwardArgsINS0_6ad_augEEE"
 "_ZN5TMBad6global8CompleteINS0_3RepINS0_8ad_plain6SubOp_ILb1ELb1EEEEEE7op_nameEv"
 "_ZN5TMBad6global8CompleteINS0_3RepINS0_8ad_plain6SubOp_ILb1ELb1EEEEEE7reverseERNS_11ReverseArgsIbEE"
 "_ZN5TMBad6global8CompleteINS0_3RepINS0_8ad_plain6SubOp_ILb1ELb1EEEEEE7reverseERNS_11ReverseArgsIdEE"
 "_ZN5TMBad6global8CompleteINS0_3RepINS0_8ad_plain6SubOp_ILb1ELb1EEEEEE7reverseERNS_11ReverseArgsINS_6WriterEEE"
 "_ZN5TMBad6global8CompleteINS0_3RepINS0_8ad_plain6SubOp_ILb1ELb1EEEEEE7reverseERNS_11ReverseArgsINS0_6ad_augEEE"
 "_ZN5TMBad6global8CompleteINS0_3RepINS0_8ad_plain6SubOp_ILb1ELb1EEEEEE9decrementERSt4pairIjjE"
 "_ZN5TMBad6global8CompleteINS0_3RepINS0_8ad_plain6SubOp_ILb1ELb1EEEEEE9incrementERSt4pairIjjE"
 "_ZN5TMBad6global8CompleteINS0_3RepINS0_8ad_plain6SubOp_ILb1ELb1EEEEEE9self_fuseEv"
 "_ZN5TMBad6global8CompleteINS0_3RepINS0_8ad_plain6SubOp_ILb1ELb1EEEEEED0Ev"
 "_ZN5TMBad6global8CompleteINS0_3RepINS0_8ad_plain6SubOp_ILb1ELb1EEEEEED1Ev"
 "_ZN5TMBad6global8CompleteINS0_5DepOpEE10deallocateEv"
 "_ZN5TMBad6global8CompleteINS0_5DepOpEE10identifierEv"
 "_ZN5TMBad6global8CompleteINS0_5DepOpEE10incompleteEv"
 "_ZN5TMBad6global8CompleteINS0_5DepOpEE10input_sizeEv"
 "_ZN5TMBad6global8CompleteINS0_5DepOpEE10other_fuseEPNS0_12OperatorPureE"
 "_ZN5TMBad6global8CompleteINS0_5DepOpEE11output_sizeEv"
 "_ZN5TMBad6global8CompleteINS0_5DepOpEE12dependenciesERNS_4ArgsIvEERNS_12DependenciesE"
 "_ZN5TMBad6global8CompleteINS0_5DepOpEE12forward_incrERNS_11ForwardArgsIbEE"
 "_ZN5TMBad6global8CompleteINS0_5DepOpEE12forward_incrERNS_11ForwardArgsIdEE"
 "_ZN5TMBad6global8CompleteINS0_5DepOpEE12forward_incrERNS_11ForwardArgsINS_6WriterEEE"
 "_ZN5TMBad6global8CompleteINS0_5DepOpEE12forward_incrERNS_11ForwardArgsINS0_6ad_augEEE"
 "_ZN5TMBad6global8CompleteINS0_5DepOpEE12reverse_decrERNS_11ReverseArgsIbEE"
 "_ZN5TMBad6global8CompleteINS0_5DepOpEE12reverse_decrERNS_11ReverseArgsIdEE"
 "_ZN5TMBad6global8CompleteINS0_5DepOpEE12reverse_decrERNS_11ReverseArgsINS_6WriterEEE"
 "_ZN5TMBad6global8CompleteINS0_5DepOpEE12reverse_decrERNS_11ReverseArgsINS0_6ad_augEEE"
 "_ZN5TMBad6global8CompleteINS0_5DepOpEE13operator_dataEv"
 "_ZN5TMBad6global8CompleteINS0_5DepOpEE23forward_incr_mark_denseERNS_11ForwardArgsIbEE"
 "_ZN5TMBad6global8CompleteINS0_5DepOpEE4copyEv"
 "_ZN5TMBad6global8CompleteINS0_5DepOpEE4infoEv"
 "_ZN5TMBad6global8CompleteINS0_5DepOpEE5printENS0_12print_configE"
 "_ZN5TMBad6global8CompleteINS0_5DepOpEE7forwardERNS_11ForwardArgsIbEE"
 "_ZN5TMBad6global8CompleteINS0_5DepOpEE7forwardERNS_11ForwardArgsIdEE"
 "_ZN5TMBad6global8CompleteINS0_5DepOpEE7forwardERNS_11ForwardArgsINS_6WriterEEE"
 "_ZN5TMBad6global8CompleteINS0_5DepOpEE7forwardERNS_11ForwardArgsINS0_6ad_augEEE"
 "_ZN5TMBad6global8CompleteINS0_5DepOpEE7op_nameEv"
 "_ZN5TMBad6global8CompleteINS0_5DepOpEE7reverseERNS_11ReverseArgsIbEE"
 "_ZN5TMBad6global8CompleteINS0_5DepOpEE7reverseERNS_11ReverseArgsIdEE"
 "_ZN5TMBad6global8CompleteINS0_5DepOpEE7reverseERNS_11ReverseArgsINS_6WriterEEE"
 "_ZN5TMBad6global8CompleteINS0_5DepOpEE7reverseERNS_11ReverseArgsINS0_6ad_augEEE"
 "_ZN5TMBad6global8CompleteINS0_5DepOpEE9decrementERSt4pairIjjE"
 "_ZN5TMBad6global8CompleteINS0_5DepOpEE9incrementERSt4pairIjjE"
 "_ZN5TMBad6global8CompleteINS0_5DepOpEE9self_fuseEv"
 "_ZN5TMBad6global8CompleteINS0_5DepOpEED0Ev"
 "_ZN5TMBad6global8CompleteINS0_5DepOpEED1Ev"
 "_ZN5TMBad6global8CompleteINS0_5FusedINS0_8ad_plain6AddOp_ILb1ELb1EEENS3_6MulOp_ILb1ELb1EEEEEE10deallocateEv"
 "_ZN5TMBad6global8CompleteINS0_5FusedINS0_8ad_plain6AddOp_ILb1ELb1EEENS3_6MulOp_ILb1ELb1EEEEEE10identifierEv"
 "_ZN5TMBad6global8CompleteINS0_5FusedINS0_8ad_plain6AddOp_ILb1ELb1EEENS3_6MulOp_ILb1ELb1EEEEEE10incompleteEv"
 "_ZN5TMBad6global8CompleteINS0_5FusedINS0_8ad_plain6AddOp_ILb1ELb1EEENS3_6MulOp_ILb1ELb1EEEEEE10input_sizeEv"
 "_ZN5TMBad6global8CompleteINS0_5FusedINS0_8ad_plain6AddOp_ILb1ELb1EEENS3_6MulOp_ILb1ELb1EEEEEE10other_fuseEPNS0_12OperatorPureE"
 "_ZN5TMBad6global8CompleteINS0_5FusedINS0_8ad_plain6AddOp_ILb1ELb1EEENS3_6MulOp_ILb1ELb1EEEEEE11output_sizeEv"
 "_ZN5TMBad6global8CompleteINS0_5FusedINS0_8ad_plain6AddOp_ILb1ELb1EEENS3_6MulOp_ILb1ELb1EEEEEE12dependenciesERNS_4ArgsIvEERNS_12DependenciesE"
 "_ZN5TMBad6global8CompleteINS0_5FusedINS0_8ad_plain6AddOp_ILb1ELb1EEENS3_6MulOp_ILb1ELb1EEEEEE12forward_incrERNS_11ForwardArgsIbEE"
 "_ZN5TMBad6global8CompleteINS0_5FusedINS0_8ad_plain6AddOp_ILb1ELb1EEENS3_6MulOp_ILb1ELb1EEEEEE12forward_incrERNS_11ForwardArgsIdEE"
 "_ZN5TMBad6global8CompleteINS0_5FusedINS0_8ad_plain6AddOp_ILb1ELb1EEENS3_6MulOp_ILb1ELb1EEEEEE12forward_incrERNS_11ForwardArgsINS_6WriterEEE"
 "_ZN5TMBad6global8CompleteINS0_5FusedINS0_8ad_plain6AddOp_ILb1ELb1EEENS3_6MulOp_ILb1ELb1EEEEEE12forward_incrERNS_11ForwardArgsINS0_6ad_augEEE"
 "_ZN5TMBad6global8CompleteINS0_5FusedINS0_8ad_plain6AddOp_ILb1ELb1EEENS3_6MulOp_ILb1ELb1EEEEEE12reverse_decrERNS_11ReverseArgsIbEE"
 "_ZN5TMBad6global8CompleteINS0_5FusedINS0_8ad_plain6AddOp_ILb1ELb1EEENS3_6MulOp_ILb1ELb1EEEEEE12reverse_decrERNS_11ReverseArgsIdEE"
 "_ZN5TMBad6global8CompleteINS0_5FusedINS0_8ad_plain6AddOp_ILb1ELb1EEENS3_6MulOp_ILb1ELb1EEEEEE12reverse_decrERNS_11ReverseArgsINS_6WriterEEE"
 "_ZN5TMBad6global8CompleteINS0_5FusedINS0_8ad_plain6AddOp_ILb1ELb1EEENS3_6MulOp_ILb1ELb1EEEEEE12reverse_decrERNS_11ReverseArgsINS0_6ad_augEEE"
 "_ZN5TMBad6global8CompleteINS0_5FusedINS0_8ad_plain6AddOp_ILb1ELb1EEENS3_6MulOp_ILb1ELb1EEEEEE13operator_dataEv"
 "_ZN5TMBad6global8CompleteINS0_5FusedINS0_8ad_plain6AddOp_ILb1ELb1EEENS3_6MulOp_ILb1ELb1EEEEEE23forward_incr_mark_denseERNS_11ForwardArgsIbEE"
 "_ZN5TMBad6global8CompleteINS0_5FusedINS0_8ad_plain6AddOp_ILb1ELb1EEENS3_6MulOp_ILb1ELb1EEEEEE4copyEv"
 "_ZN5TMBad6global8CompleteINS0_5FusedINS0_8ad_plain6AddOp_ILb1ELb1EEENS3_6MulOp_ILb1ELb1EEEEEE4infoEv"
 "_ZN5TMBad6global8CompleteINS0_5FusedINS0_8ad_plain6AddOp_ILb1ELb1EEENS3_6MulOp_ILb1ELb1EEEEEE5printENS0_12print_configE"
 "_ZN5TMBad6global8CompleteINS0_5FusedINS0_8ad_plain6AddOp_ILb1ELb1EEENS3_6MulOp_ILb1ELb1EEEEEE7forwardERNS_11ForwardArgsIbEE"
 "_ZN5TMBad6global8CompleteINS0_5FusedINS0_8ad_plain6AddOp_ILb1ELb1EEENS3_6MulOp_ILb1ELb1EEEEEE7forwardERNS_11ForwardArgsIdEE"
 "_ZN5TMBad6global8CompleteINS0_5FusedINS0_8ad_plain6AddOp_ILb1ELb1EEENS3_6MulOp_ILb1ELb1EEEEEE7forwardERNS_11ForwardArgsINS_6WriterEEE"
 "_ZN5TMBad6global8CompleteINS0_5FusedINS0_8ad_plain6AddOp_ILb1ELb1EEENS3_6MulOp_ILb1ELb1EEEEEE7forwardERNS_11ForwardArgsINS0_6ad_augEEE"
 "_ZN5TMBad6global8CompleteINS0_5FusedINS0_8ad_plain6AddOp_ILb1ELb1EEENS3_6MulOp_ILb1ELb1EEEEEE7op_nameEv"
 "_ZN5TMBad6global8CompleteINS0_5FusedINS0_8ad_plain6AddOp_ILb1ELb1EEENS3_6MulOp_ILb1ELb1EEEEEE7reverseERNS_11ReverseArgsIbEE"
 "_ZN5TMBad6global8CompleteINS0_5FusedINS0_8ad_plain6AddOp_ILb1ELb1EEENS3_6MulOp_ILb1ELb1EEEEEE7reverseERNS_11ReverseArgsIdEE"
 "_ZN5TMBad6global8CompleteINS0_5FusedINS0_8ad_plain6AddOp_ILb1ELb1EEENS3_6MulOp_ILb1ELb1EEEEEE7reverseERNS_11ReverseArgsINS_6WriterEEE"
 "_ZN5TMBad6global8CompleteINS0_5FusedINS0_8ad_plain6AddOp_ILb1ELb1EEENS3_6MulOp_ILb1ELb1EEEEEE7reverseERNS_11ReverseArgsINS0_6ad_augEEE"
 "_ZN5TMBad6global8CompleteINS0_5FusedINS0_8ad_plain6AddOp_ILb1ELb1EEENS3_6MulOp_ILb1ELb1EEEEEE9decrementERSt4pairIjjE"
 "_ZN5TMBad6global8CompleteINS0_5FusedINS0_8ad_plain6AddOp_ILb1ELb1EEENS3_6MulOp_ILb1ELb1EEEEEE9incrementERSt4pairIjjE"
 "_ZN5TMBad6global8CompleteINS0_5FusedINS0_8ad_plain6AddOp_ILb1ELb1EEENS3_6MulOp_ILb1ELb1EEEEEE9self_fuseEv"
 "_ZN5TMBad6global8CompleteINS0_5FusedINS0_8ad_plain6AddOp_ILb1ELb1EEENS3_6MulOp_ILb1ELb1EEEEEED0Ev"
 "_ZN5TMBad6global8CompleteINS0_5FusedINS0_8ad_plain6AddOp_ILb1ELb1EEENS3_6MulOp_ILb1ELb1EEEEEED1Ev"
 "_ZN5TMBad6global8CompleteINS0_5InvOpEE10deallocateEv"
 "_ZN5TMBad6global8CompleteINS0_5InvOpEE10identifierEv"
 "_ZN5TMBad6global8CompleteINS0_5InvOpEE10incompleteEv"
 "_ZN5TMBad6global8CompleteINS0_5InvOpEE10input_sizeEv"
 "_ZN5TMBad6global8CompleteINS0_5InvOpEE10other_fuseEPNS0_12OperatorPureE"
 "_ZN5TMBad6global8CompleteINS0_5InvOpEE11output_sizeEv"
 "_ZN5TMBad6global8CompleteINS0_5InvOpEE12dependenciesERNS_4ArgsIvEERNS_12DependenciesE"
 "_ZN5TMBad6global8CompleteINS0_5InvOpEE12forward_incrERNS_11ForwardArgsIbEE"
 "_ZN5TMBad6global8CompleteINS0_5InvOpEE12forward_incrERNS_11ForwardArgsIdEE"
 "_ZN5TMBad6global8CompleteINS0_5InvOpEE12forward_incrERNS_11ForwardArgsINS_6WriterEEE"
 "_ZN5TMBad6global8CompleteINS0_5InvOpEE12forward_incrERNS_11ForwardArgsINS0_6ad_augEEE"
 "_ZN5TMBad6global8CompleteINS0_5InvOpEE12reverse_decrERNS_11ReverseArgsIbEE"
 "_ZN5TMBad6global8CompleteINS0_5InvOpEE12reverse_decrERNS_11ReverseArgsIdEE"
 "_ZN5TMBad6global8CompleteINS0_5InvOpEE12reverse_decrERNS_11ReverseArgsINS_6WriterEEE"
 "_ZN5TMBad6global8CompleteINS0_5InvOpEE12reverse_decrERNS_11ReverseArgsINS0_6ad_augEEE"
 "_ZN5TMBad6global8CompleteINS0_5InvOpEE13operator_dataEv"
 "_ZN5TMBad6global8CompleteINS0_5InvOpEE23forward_incr_mark_denseERNS_11ForwardArgsIbEE"
 "_ZN5TMBad6global8CompleteINS0_5InvOpEE4copyEv"
 "_ZN5TMBad6global8CompleteINS0_5InvOpEE4infoEv"
 "_ZN5TMBad6global8CompleteINS0_5InvOpEE5printENS0_12print_configE"
 "_ZN5TMBad6global8CompleteINS0_5InvOpEE7forwardERNS_11ForwardArgsIbEE"
 "_ZN5TMBad6global8CompleteINS0_5InvOpEE7forwardERNS_11ForwardArgsIdEE"
 "_ZN5TMBad6global8CompleteINS0_5InvOpEE7forwardERNS_11ForwardArgsINS_6WriterEEE"
 "_ZN5TMBad6global8CompleteINS0_5InvOpEE7forwardERNS_11ForwardArgsINS0_6ad_augEEE"
 "_ZN5TMBad6global8CompleteINS0_5InvOpEE7op_nameEv"
 "_ZN5TMBad6global8CompleteINS0_5InvOpEE7reverseERNS_11ReverseArgsIbEE"
 "_ZN5TMBad6global8CompleteINS0_5InvOpEE7reverseERNS_11ReverseArgsIdEE"
 "_ZN5TMBad6global8CompleteINS0_5InvOpEE7reverseERNS_11ReverseArgsINS_6WriterEEE"
 "_ZN5TMBad6global8CompleteINS0_5InvOpEE7reverseERNS_11ReverseArgsINS0_6ad_augEEE"
 "_ZN5TMBad6global8CompleteINS0_5InvOpEE9decrementERSt4pairIjjE"
 "_ZN5TMBad6global8CompleteINS0_5InvOpEE9incrementERSt4pairIjjE"
 "_ZN5TMBad6global8CompleteINS0_5InvOpEE9self_fuseEv"
 "_ZN5TMBad6global8CompleteINS0_5InvOpEED0Ev"
 "_ZN5TMBad6global8CompleteINS0_5InvOpEED1Ev"
 "_ZN5TMBad6global8CompleteINS0_5RefOpEE10deallocateEv"
 "_ZN5TMBad6global8CompleteINS0_5RefOpEE10identifierEv"
 "_ZN5TMBad6global8CompleteINS0_5RefOpEE10incompleteEv"
 "_ZN5TMBad6global8CompleteINS0_5RefOpEE10input_sizeEv"
 "_ZN5TMBad6global8CompleteINS0_5RefOpEE10other_fuseEPNS0_12OperatorPureE"
 "_ZN5TMBad6global8CompleteINS0_5RefOpEE11output_sizeEv"
 "_ZN5TMBad6global8CompleteINS0_5RefOpEE12dependenciesERNS_4ArgsIvEERNS_12DependenciesE"
 "_ZN5TMBad6global8CompleteINS0_5RefOpEE12forward_incrERNS_11ForwardArgsIbEE"
 "_ZN5TMBad6global8CompleteINS0_5RefOpEE12forward_incrERNS_11ForwardArgsIdEE"
 "_ZN5TMBad6global8CompleteINS0_5RefOpEE12forward_incrERNS_11ForwardArgsINS_6WriterEEE"
 "_ZN5TMBad6global8CompleteINS0_5RefOpEE12forward_incrERNS_11ForwardArgsINS0_6ad_augEEE"
 "_ZN5TMBad6global8CompleteINS0_5RefOpEE12reverse_decrERNS_11ReverseArgsIbEE"
 "_ZN5TMBad6global8CompleteINS0_5RefOpEE12reverse_decrERNS_11ReverseArgsIdEE"
 "_ZN5TMBad6global8CompleteINS0_5RefOpEE12reverse_decrERNS_11ReverseArgsINS_6WriterEEE"
 "_ZN5TMBad6global8CompleteINS0_5RefOpEE12reverse_decrERNS_11ReverseArgsINS0_6ad_augEEE"
 "_ZN5TMBad6global8CompleteINS0_5RefOpEE13operator_dataEv"
 "_ZN5TMBad6global8CompleteINS0_5RefOpEE23forward_incr_mark_denseERNS_11ForwardArgsIbEE"
 "_ZN5TMBad6global8CompleteINS0_5RefOpEE4copyEv"
 "_ZN5TMBad6global8CompleteINS0_5RefOpEE4infoEv"
 "_ZN5TMBad6global8CompleteINS0_5RefOpEE5printENS0_12print_configE"
 "_ZN5TMBad6global8CompleteINS0_5RefOpEE7forwardERNS_11ForwardArgsIbEE"
 "_ZN5TMBad6global8CompleteINS0_5RefOpEE7forwardERNS_11ForwardArgsIdEE"
 "_ZN5TMBad6global8CompleteINS0_5RefOpEE7forwardERNS_11ForwardArgsINS_6WriterEEE"
 "_ZN5TMBad6global8CompleteINS0_5RefOpEE7forwardERNS_11ForwardArgsINS0_6ad_augEEE"
 "_ZN5TMBad6global8CompleteINS0_5RefOpEE7op_nameEv"
 "_ZN5TMBad6global8CompleteINS0_5RefOpEE7reverseERNS_11ReverseArgsIbEE"
 "_ZN5TMBad6global8CompleteINS0_5RefOpEE7reverseERNS_11ReverseArgsIdEE"
 "_ZN5TMBad6global8CompleteINS0_5RefOpEE7reverseERNS_11ReverseArgsINS_6WriterEEE"
 "_ZN5TMBad6global8CompleteINS0_5RefOpEE7reverseERNS_11ReverseArgsINS0_6ad_augEEE"
 "_ZN5TMBad6global8CompleteINS0_5RefOpEE9decrementERSt4pairIjjE"
 "_ZN5TMBad6global8CompleteINS0_5RefOpEE9incrementERSt4pairIjjE"
 "_ZN5TMBad6global8CompleteINS0_5RefOpEE9self_fuseEv"
 "_ZN5TMBad6global8CompleteINS0_5RefOpEED0Ev"
 "_ZN5TMBad6global8CompleteINS0_5RefOpEED1Ev"
 "_ZN5TMBad6global8CompleteINS0_6NullOpEE10deallocateEv"
 "_ZN5TMBad6global8CompleteINS0_6NullOpEE10identifierEv"
 "_ZN5TMBad6global8CompleteINS0_6NullOpEE10incompleteEv"
 "_ZN5TMBad6global8CompleteINS0_6NullOpEE10input_sizeEv"
 "_ZN5TMBad6global8CompleteINS0_6NullOpEE10other_fuseEPNS0_12OperatorPureE"
 "_ZN5TMBad6global8CompleteINS0_6NullOpEE11output_sizeEv"
 "_ZN5TMBad6global8CompleteINS0_6NullOpEE12dependenciesERNS_4ArgsIvEERNS_12DependenciesE"
 "_ZN5TMBad6global8CompleteINS0_6NullOpEE12forward_incrERNS_11ForwardArgsIbEE"
 "_ZN5TMBad6global8CompleteINS0_6NullOpEE12forward_incrERNS_11ForwardArgsIdEE"
 "_ZN5TMBad6global8CompleteINS0_6NullOpEE12forward_incrERNS_11ForwardArgsINS_6WriterEEE"
 "_ZN5TMBad6global8CompleteINS0_6NullOpEE12forward_incrERNS_11ForwardArgsINS0_6ad_augEEE"
 "_ZN5TMBad6global8CompleteINS0_6NullOpEE12reverse_decrERNS_11ReverseArgsIbEE"
 "_ZN5TMBad6global8CompleteINS0_6NullOpEE12reverse_decrERNS_11ReverseArgsIdEE"
 "_ZN5TMBad6global8CompleteINS0_6NullOpEE12reverse_decrERNS_11ReverseArgsINS_6WriterEEE"
 "_ZN5TMBad6global8CompleteINS0_6NullOpEE12reverse_decrERNS_11ReverseArgsINS0_6ad_augEEE"
 "_ZN5TMBad6global8CompleteINS0_6NullOpEE13operator_dataEv"
 "_ZN5TMBad6global8CompleteINS0_6NullOpEE23forward_incr_mark_denseERNS_11ForwardArgsIbEE"
 "_ZN5TMBad6global8CompleteINS0_6NullOpEE4copyEv"
 "_ZN5TMBad6global8CompleteINS0_6NullOpEE4infoEv"
 "_ZN5TMBad6global8CompleteINS0_6NullOpEE5printENS0_12print_configE"
 "_ZN5TMBad6global8CompleteINS0_6NullOpEE7forwardERNS_11ForwardArgsIbEE"
 "_ZN5TMBad6global8CompleteINS0_6NullOpEE7forwardERNS_11ForwardArgsIdEE"
 "_ZN5TMBad6global8CompleteINS0_6NullOpEE7forwardERNS_11ForwardArgsINS_6WriterEEE"
 "_ZN5TMBad6global8CompleteINS0_6NullOpEE7forwardERNS_11ForwardArgsINS0_6ad_augEEE"
 "_ZN5TMBad6global8CompleteINS0_6NullOpEE7op_nameEv"
 "_ZN5TMBad6global8CompleteINS0_6NullOpEE7reverseERNS_11ReverseArgsIbEE"
 "_ZN5TMBad6global8CompleteINS0_6NullOpEE7reverseERNS_11ReverseArgsIdEE"
 "_ZN5TMBad6global8CompleteINS0_6NullOpEE7reverseERNS_11ReverseArgsINS_6WriterEEE"
 "_ZN5TMBad6global8CompleteINS0_6NullOpEE7reverseERNS_11ReverseArgsINS0_6ad_augEEE"
 "_ZN5TMBad6global8CompleteINS0_6NullOpEE9decrementERSt4pairIjjE"
 "_ZN5TMBad6global8CompleteINS0_6NullOpEE9incrementERSt4pairIjjE"
 "_ZN5TMBad6global8CompleteINS0_6NullOpEE9self_fuseEv"
 "_ZN5TMBad6global8CompleteINS0_6NullOpEED0Ev"
 "_ZN5TMBad6global8CompleteINS0_6NullOpEED1Ev"
 "_ZN5TMBad6global8CompleteINS0_7ConstOpEE10deallocateEv"
 "_ZN5TMBad6global8CompleteINS0_7ConstOpEE10identifierEv"
 "_ZN5TMBad6global8CompleteINS0_7ConstOpEE10incompleteEv"
 "_ZN5TMBad6global8CompleteINS0_7ConstOpEE10input_sizeEv"
 "_ZN5TMBad6global8CompleteINS0_7ConstOpEE10other_fuseEPNS0_12OperatorPureE"
 "_ZN5TMBad6global8CompleteINS0_7ConstOpEE11output_sizeEv"
 "_ZN5TMBad6global8CompleteINS0_7ConstOpEE12dependenciesERNS_4ArgsIvEERNS_12DependenciesE"
 "_ZN5TMBad6global8CompleteINS0_7ConstOpEE12forward_incrERNS_11ForwardArgsIbEE"
 "_ZN5TMBad6global8CompleteINS0_7ConstOpEE12forward_incrERNS_11ForwardArgsIdEE"
 "_ZN5TMBad6global8CompleteINS0_7ConstOpEE12forward_incrERNS_11ForwardArgsINS_6WriterEEE"
 "_ZN5TMBad6global8CompleteINS0_7ConstOpEE12forward_incrERNS_11ForwardArgsINS0_6ad_augEEE"
 "_ZN5TMBad6global8CompleteINS0_7ConstOpEE12reverse_decrERNS_11ReverseArgsIbEE"
 "_ZN5TMBad6global8CompleteINS0_7ConstOpEE12reverse_decrERNS_11ReverseArgsIdEE"
 "_ZN5TMBad6global8CompleteINS0_7ConstOpEE12reverse_decrERNS_11ReverseArgsINS_6WriterEEE"
 "_ZN5TMBad6global8CompleteINS0_7ConstOpEE12reverse_decrERNS_11ReverseArgsINS0_6ad_augEEE"
 "_ZN5TMBad6global8CompleteINS0_7ConstOpEE13operator_dataEv"
 "_ZN5TMBad6global8CompleteINS0_7ConstOpEE23forward_incr_mark_denseERNS_11ForwardArgsIbEE"
 "_ZN5TMBad6global8CompleteINS0_7ConstOpEE4copyEv"
 "_ZN5TMBad6global8CompleteINS0_7ConstOpEE4infoEv"
 "_ZN5TMBad6global8CompleteINS0_7ConstOpEE5printENS0_12print_configE"
 "_ZN5TMBad6global8CompleteINS0_7ConstOpEE7forwardERNS_11ForwardArgsIbEE"
 "_ZN5TMBad6global8CompleteINS0_7ConstOpEE7forwardERNS_11ForwardArgsIdEE"
 "_ZN5TMBad6global8CompleteINS0_7ConstOpEE7forwardERNS_11ForwardArgsINS_6WriterEEE"
 "_ZN5TMBad6global8CompleteINS0_7ConstOpEE7forwardERNS_11ForwardArgsINS0_6ad_augEEE"
 "_ZN5TMBad6global8CompleteINS0_7ConstOpEE7op_nameEv"
 "_ZN5TMBad6global8CompleteINS0_7ConstOpEE7reverseERNS_11ReverseArgsIbEE"
 "_ZN5TMBad6global8CompleteINS0_7ConstOpEE7reverseERNS_11ReverseArgsIdEE"
 "_ZN5TMBad6global8CompleteINS0_7ConstOpEE7reverseERNS_11ReverseArgsINS_6WriterEEE"
 "_ZN5TMBad6global8CompleteINS0_7ConstOpEE7reverseERNS_11ReverseArgsINS0_6ad_augEEE"
 "_ZN5TMBad6global8CompleteINS0_7ConstOpEE9decrementERSt4pairIjjE"
 "_ZN5TMBad6global8CompleteINS0_7ConstOpEE9incrementERSt4pairIjjE"
 "_ZN5TMBad6global8CompleteINS0_7ConstOpEE9self_fuseEv"
 "_ZN5TMBad6global8CompleteINS0_7ConstOpEED0Ev"
 "_ZN5TMBad6global8CompleteINS0_7ConstOpEED1Ev"
 "_ZN5TMBad6global8CompleteINS0_7NullOp2EE10deallocateEv"
 "_ZN5TMBad6global8CompleteINS0_7NullOp2EE10identifierEv"
 "_ZN5TMBad6global8CompleteINS0_7NullOp2EE10incompleteEv"
 "_ZN5TMBad6global8CompleteINS0_7NullOp2EE10input_sizeEv"
 "_ZN5TMBad6global8CompleteINS0_7NullOp2EE10other_fuseEPNS0_12OperatorPureE"
 "_ZN5TMBad6global8CompleteINS0_7NullOp2EE11output_sizeEv"
 "_ZN5TMBad6global8CompleteINS0_7NullOp2EE12dependenciesERNS_4ArgsIvEERNS_12DependenciesE"
 "_ZN5TMBad6global8CompleteINS0_7NullOp2EE12forward_incrERNS_11ForwardArgsIbEE"
 "_ZN5TMBad6global8CompleteINS0_7NullOp2EE12forward_incrERNS_11ForwardArgsIdEE"
 "_ZN5TMBad6global8CompleteINS0_7NullOp2EE12forward_incrERNS_11ForwardArgsINS_6WriterEEE"
 "_ZN5TMBad6global8CompleteINS0_7NullOp2EE12forward_incrERNS_11ForwardArgsINS0_6ad_augEEE"
 "_ZN5TMBad6global8CompleteINS0_7NullOp2EE12reverse_decrERNS_11ReverseArgsIbEE"
 "_ZN5TMBad6global8CompleteINS0_7NullOp2EE12reverse_decrERNS_11ReverseArgsIdEE"
 "_ZN5TMBad6global8CompleteINS0_7NullOp2EE12reverse_decrERNS_11ReverseArgsINS_6WriterEEE"
 "_ZN5TMBad6global8CompleteINS0_7NullOp2EE12reverse_decrERNS_11ReverseArgsINS0_6ad_augEEE"
 "_ZN5TMBad6global8CompleteINS0_7NullOp2EE13operator_dataEv"
 "_ZN5TMBad6global8CompleteINS0_7NullOp2EE23forward_incr_mark_denseERNS_11ForwardArgsIbEE"
 "_ZN5TMBad6global8CompleteINS0_7NullOp2EE4copyEv"
 "_ZN5TMBad6global8CompleteINS0_7NullOp2EE4infoEv"
 "_ZN5TMBad6global8CompleteINS0_7NullOp2EE5printENS0_12print_configE"
 "_ZN5TMBad6global8CompleteINS0_7NullOp2EE7forwardERNS_11ForwardArgsIbEE"
 "_ZN5TMBad6global8CompleteINS0_7NullOp2EE7forwardERNS_11ForwardArgsIdEE"
 "_ZN5TMBad6global8CompleteINS0_7NullOp2EE7forwardERNS_11ForwardArgsINS_6WriterEEE"
 "_ZN5TMBad6global8CompleteINS0_7NullOp2EE7forwardERNS_11ForwardArgsINS0_6ad_augEEE"
 "_ZN5TMBad6global8CompleteINS0_7NullOp2EE7op_nameEv"
 "_ZN5TMBad6global8CompleteINS0_7NullOp2EE7reverseERNS_11ReverseArgsIbEE"
 "_ZN5TMBad6global8CompleteINS0_7NullOp2EE7reverseERNS_11ReverseArgsIdEE"
 "_ZN5TMBad6global8CompleteINS0_7NullOp2EE7reverseERNS_11ReverseArgsINS_6WriterEEE"
 "_ZN5TMBad6global8CompleteINS0_7NullOp2EE7reverseERNS_11ReverseArgsINS0_6ad_augEEE"
 "_ZN5TMBad6global8CompleteINS0_7NullOp2EE9decrementERSt4pairIjjE"
 "_ZN5TMBad6global8CompleteINS0_7NullOp2EE9incrementERSt4pairIjjE"
 "_ZN5TMBad6global8CompleteINS0_7NullOp2EE9self_fuseEv"
 "_ZN5TMBad6global8CompleteINS0_7NullOp2EED0Ev"
 "_ZN5TMBad6global8CompleteINS0_7NullOp2EED1Ev"
 "_ZN5TMBad6global8CompleteINS0_8ad_plain5NegOpEE10deallocateEv"
 "_ZN5TMBad6global8CompleteINS0_8ad_plain5NegOpEE10identifierEv"
 "_ZN5TMBad6global8CompleteINS0_8ad_plain5NegOpEE10incompleteEv"
 "_ZN5TMBad6global8CompleteINS0_8ad_plain5NegOpEE10input_sizeEv"
 "_ZN5TMBad6global8CompleteINS0_8ad_plain5NegOpEE10other_fuseEPNS0_12OperatorPureE"
 "_ZN5TMBad6global8CompleteINS0_8ad_plain5NegOpEE11output_sizeEv"
 "_ZN5TMBad6global8CompleteINS0_8ad_plain5NegOpEE12dependenciesERNS_4ArgsIvEERNS_12DependenciesE"
 "_ZN5TMBad6global8CompleteINS0_8ad_plain5NegOpEE12forward_incrERNS_11ForwardArgsIbEE"
 "_ZN5TMBad6global8CompleteINS0_8ad_plain5NegOpEE12forward_incrERNS_11ForwardArgsIdEE"
 "_ZN5TMBad6global8CompleteINS0_8ad_plain5NegOpEE12forward_incrERNS_11ForwardArgsINS_6WriterEEE"
 "_ZN5TMBad6global8CompleteINS0_8ad_plain5NegOpEE12forward_incrERNS_11ForwardArgsINS0_6ad_augEEE"
 "_ZN5TMBad6global8CompleteINS0_8ad_plain5NegOpEE12reverse_decrERNS_11ReverseArgsIbEE"
 "_ZN5TMBad6global8CompleteINS0_8ad_plain5NegOpEE12reverse_decrERNS_11ReverseArgsIdEE"
 "_ZN5TMBad6global8CompleteINS0_8ad_plain5NegOpEE12reverse_decrERNS_11ReverseArgsINS_6WriterEEE"
 "_ZN5TMBad6global8CompleteINS0_8ad_plain5NegOpEE12reverse_decrERNS_11ReverseArgsINS0_6ad_augEEE"
 "_ZN5TMBad6global8CompleteINS0_8ad_plain5NegOpEE13operator_dataEv"
 "_ZN5TMBad6global8CompleteINS0_8ad_plain5NegOpEE23forward_incr_mark_denseERNS_11ForwardArgsIbEE"
 "_ZN5TMBad6global8CompleteINS0_8ad_plain5NegOpEE4copyEv"
 "_ZN5TMBad6global8CompleteINS0_8ad_plain5NegOpEE4infoEv"
 "_ZN5TMBad6global8CompleteINS0_8ad_plain5NegOpEE5printENS0_12print_configE"
 "_ZN5TMBad6global8CompleteINS0_8ad_plain5NegOpEE7forwardERNS_11ForwardArgsIbEE"
 "_ZN5TMBad6global8CompleteINS0_8ad_plain5NegOpEE7forwardERNS_11ForwardArgsIdEE"
 "_ZN5TMBad6global8CompleteINS0_8ad_plain5NegOpEE7forwardERNS_11ForwardArgsINS_6WriterEEE"
 "_ZN5TMBad6global8CompleteINS0_8ad_plain5NegOpEE7forwardERNS_11ForwardArgsINS0_6ad_augEEE"
 "_ZN5TMBad6global8CompleteINS0_8ad_plain5NegOpEE7op_nameEv"
 "_ZN5TMBad6global8CompleteINS0_8ad_plain5NegOpEE7reverseERNS_11ReverseArgsIbEE"
 "_ZN5TMBad6global8CompleteINS0_8ad_plain5NegOpEE7reverseERNS_11ReverseArgsIdEE"
 "_ZN5TMBad6global8CompleteINS0_8ad_plain5NegOpEE7reverseERNS_11ReverseArgsINS_6WriterEEE"
 "_ZN5TMBad6global8CompleteINS0_8ad_plain5NegOpEE7reverseERNS_11ReverseArgsINS0_6ad_augEEE"
 "_ZN5TMBad6global8CompleteINS0_8ad_plain5NegOpEE9decrementERSt4pairIjjE"
 "_ZN5TMBad6global8CompleteINS0_8ad_plain5NegOpEE9incrementERSt4pairIjjE"
 "_ZN5TMBad6global8CompleteINS0_8ad_plain5NegOpEE9self_fuseEv"
 "_ZN5TMBad6global8CompleteINS0_8ad_plain5NegOpEED0Ev"
 "_ZN5TMBad6global8CompleteINS0_8ad_plain5NegOpEED1Ev"
 "_ZN5TMBad6global8CompleteINS0_8ad_plain5ValOpEE10deallocateEv"
 "_ZN5TMBad6global8CompleteINS0_8ad_plain5ValOpEE10identifierEv"
 "_ZN5TMBad6global8CompleteINS0_8ad_plain5ValOpEE10incompleteEv"
 "_ZN5TMBad6global8CompleteINS0_8ad_plain5ValOpEE10input_sizeEv"
 "_ZN5TMBad6global8CompleteINS0_8ad_plain5ValOpEE10other_fuseEPNS0_12OperatorPureE"
 "_ZN5TMBad6global8CompleteINS0_8ad_plain5ValOpEE11output_sizeEv"
 "_ZN5TMBad6global8CompleteINS0_8ad_plain5ValOpEE12dependenciesERNS_4ArgsIvEERNS_12DependenciesE"
 "_ZN5TMBad6global8CompleteINS0_8ad_plain5ValOpEE12forward_incrERNS_11ForwardArgsIbEE"
 "_ZN5TMBad6global8CompleteINS0_8ad_plain5ValOpEE12forward_incrERNS_11ForwardArgsIdEE"
 "_ZN5TMBad6global8CompleteINS0_8ad_plain5ValOpEE12forward_incrERNS_11ForwardArgsINS_6WriterEEE"
 "_ZN5TMBad6global8CompleteINS0_8ad_plain5ValOpEE12forward_incrERNS_11ForwardArgsINS0_6ad_augEEE"
 "_ZN5TMBad6global8CompleteINS0_8ad_plain5ValOpEE12reverse_decrERNS_11ReverseArgsIbEE"
 "_ZN5TMBad6global8CompleteINS0_8ad_plain5ValOpEE12reverse_decrERNS_11ReverseArgsIdEE"
 "_ZN5TMBad6global8CompleteINS0_8ad_plain5ValOpEE12reverse_decrERNS_11ReverseArgsINS_6WriterEEE"
 "_ZN5TMBad6global8CompleteINS0_8ad_plain5ValOpEE12reverse_decrERNS_11ReverseArgsINS0_6ad_augEEE"
 "_ZN5TMBad6global8CompleteINS0_8ad_plain5ValOpEE13operator_dataEv"
 "_ZN5TMBad6global8CompleteINS0_8ad_plain5ValOpEE23forward_incr_mark_denseERNS_11ForwardArgsIbEE"
 "_ZN5TMBad6global8CompleteINS0_8ad_plain5ValOpEE4copyEv"
 "_ZN5TMBad6global8CompleteINS0_8ad_plain5ValOpEE4infoEv"
 "_ZN5TMBad6global8CompleteINS0_8ad_plain5ValOpEE5printENS0_12print_configE"
 "_ZN5TMBad6global8CompleteINS0_8ad_plain5ValOpEE7forwardERNS_11ForwardArgsIbEE"
 "_ZN5TMBad6global8CompleteINS0_8ad_plain5ValOpEE7forwardERNS_11ForwardArgsIdEE"
 "_ZN5TMBad6global8CompleteINS0_8ad_plain5ValOpEE7forwardERNS_11ForwardArgsINS_6WriterEEE"
 "_ZN5TMBad6global8CompleteINS0_8ad_plain5ValOpEE7forwardERNS_11ForwardArgsINS0_6ad_augEEE"
 "_ZN5TMBad6global8CompleteINS0_8ad_plain5ValOpEE7op_nameEv"
 "_ZN5TMBad6global8CompleteINS0_8ad_plain5ValOpEE7reverseERNS_11ReverseArgsIbEE"
 "_ZN5TMBad6global8CompleteINS0_8ad_plain5ValOpEE7reverseERNS_11ReverseArgsIdEE"
 "_ZN5TMBad6global8CompleteINS0_8ad_plain5ValOpEE7reverseERNS_11ReverseArgsINS_6WriterEEE"
 "_ZN5TMBad6global8CompleteINS0_8ad_plain5ValOpEE7reverseERNS_11ReverseArgsINS0_6ad_augEEE"
 "_ZN5TMBad6global8CompleteINS0_8ad_plain5ValOpEE9decrementERSt4pairIjjE"
 "_ZN5TMBad6global8CompleteINS0_8ad_plain5ValOpEE9incrementERSt4pairIjjE"
 "_ZN5TMBad6global8CompleteINS0_8ad_plain5ValOpEE9self_fuseEv"
 "_ZN5TMBad6global8CompleteINS0_8ad_plain5ValOpEED0Ev"
 "_ZN5TMBad6global8CompleteINS0_8ad_plain5ValOpEED1Ev"
 "_ZN5TMBad6global8CompleteINS0_8ad_plain6AddOp_ILb1ELb1EEEE10deallocateEv"
 "_ZN5TMBad6global8CompleteINS0_8ad_plain6AddOp_ILb1ELb1EEEE10identifierEv"
 "_ZN5TMBad6global8CompleteINS0_8ad_plain6AddOp_ILb1ELb1EEEE10incompleteEv"
 "_ZN5TMBad6global8CompleteINS0_8ad_plain6AddOp_ILb1ELb1EEEE10input_sizeEv"
 "_ZN5TMBad6global8CompleteINS0_8ad_plain6AddOp_ILb1ELb1EEEE10other_fuseEPNS0_12OperatorPureE"
 "_ZN5TMBad6global8CompleteINS0_8ad_plain6AddOp_ILb1ELb1EEEE11output_sizeEv"
 "_ZN5TMBad6global8CompleteINS0_8ad_plain6AddOp_ILb1ELb1EEEE12dependenciesERNS_4ArgsIvEERNS_12DependenciesE"
 "_ZN5TMBad6global8CompleteINS0_8ad_plain6AddOp_ILb1ELb1EEEE12forward_incrERNS_11ForwardArgsIbEE"
 "_ZN5TMBad6global8CompleteINS0_8ad_plain6AddOp_ILb1ELb1EEEE12forward_incrERNS_11ForwardArgsIdEE"
 "_ZN5TMBad6global8CompleteINS0_8ad_plain6AddOp_ILb1ELb1EEEE12forward_incrERNS_11ForwardArgsINS_6WriterEEE"
 "_ZN5TMBad6global8CompleteINS0_8ad_plain6AddOp_ILb1ELb1EEEE12forward_incrERNS_11ForwardArgsINS0_6ad_augEEE"
 "_ZN5TMBad6global8CompleteINS0_8ad_plain6AddOp_ILb1ELb1EEEE12reverse_decrERNS_11ReverseArgsIbEE"
 "_ZN5TMBad6global8CompleteINS0_8ad_plain6AddOp_ILb1ELb1EEEE12reverse_decrERNS_11ReverseArgsIdEE"
 "_ZN5TMBad6global8CompleteINS0_8ad_plain6AddOp_ILb1ELb1EEEE12reverse_decrERNS_11ReverseArgsINS_6WriterEEE"
 "_ZN5TMBad6global8CompleteINS0_8ad_plain6AddOp_ILb1ELb1EEEE12reverse_decrERNS_11ReverseArgsINS0_6ad_augEEE"
 "_ZN5TMBad6global8CompleteINS0_8ad_plain6AddOp_ILb1ELb1EEEE13operator_dataEv"
 "_ZN5TMBad6global8CompleteINS0_8ad_plain6AddOp_ILb1ELb1EEEE23forward_incr_mark_denseERNS_11ForwardArgsIbEE"
 "_ZN5TMBad6global8CompleteINS0_8ad_plain6AddOp_ILb1ELb1EEEE4copyEv"
 "_ZN5TMBad6global8CompleteINS0_8ad_plain6AddOp_ILb1ELb1EEEE4infoEv"
 "_ZN5TMBad6global8CompleteINS0_8ad_plain6AddOp_ILb1ELb1EEEE5printENS0_12print_configE"
 "_ZN5TMBad6global8CompleteINS0_8ad_plain6AddOp_ILb1ELb1EEEE7forwardERNS_11ForwardArgsIbEE"
 "_ZN5TMBad6global8CompleteINS0_8ad_plain6AddOp_ILb1ELb1EEEE7forwardERNS_11ForwardArgsIdEE"
 "_ZN5TMBad6global8CompleteINS0_8ad_plain6AddOp_ILb1ELb1EEEE7forwardERNS_11ForwardArgsINS_6WriterEEE"
 "_ZN5TMBad6global8CompleteINS0_8ad_plain6AddOp_ILb1ELb1EEEE7forwardERNS_11ForwardArgsINS0_6ad_augEEE"
 "_ZN5TMBad6global8CompleteINS0_8ad_plain6AddOp_ILb1ELb1EEEE7op_nameEv"
 "_ZN5TMBad6global8CompleteINS0_8ad_plain6AddOp_ILb1ELb1EEEE7reverseERNS_11ReverseArgsIbEE"
 "_ZN5TMBad6global8CompleteINS0_8ad_plain6AddOp_ILb1ELb1EEEE7reverseERNS_11ReverseArgsIdEE"
 "_ZN5TMBad6global8CompleteINS0_8ad_plain6AddOp_ILb1ELb1EEEE7reverseERNS_11ReverseArgsINS_6WriterEEE"
 "_ZN5TMBad6global8CompleteINS0_8ad_plain6AddOp_ILb1ELb1EEEE7reverseERNS_11ReverseArgsINS0_6ad_augEEE"
 "_ZN5TMBad6global8CompleteINS0_8ad_plain6AddOp_ILb1ELb1EEEE9decrementERSt4pairIjjE"
 "_ZN5TMBad6global8CompleteINS0_8ad_plain6AddOp_ILb1ELb1EEEE9incrementERSt4pairIjjE"
 "_ZN5TMBad6global8CompleteINS0_8ad_plain6AddOp_ILb1ELb1EEEE9self_fuseEv"
 "_ZN5TMBad6global8CompleteINS0_8ad_plain6AddOp_ILb1ELb1EEEED0Ev"
 "_ZN5TMBad6global8CompleteINS0_8ad_plain6AddOp_ILb1ELb1EEEED1Ev"
 "_ZN5TMBad6global8CompleteINS0_8ad_plain6CopyOpEE10deallocateEv"
 "_ZN5TMBad6global8CompleteINS0_8ad_plain6CopyOpEE10identifierEv"
 "_ZN5TMBad6global8CompleteINS0_8ad_plain6CopyOpEE10incompleteEv"
 "_ZN5TMBad6global8CompleteINS0_8ad_plain6CopyOpEE10input_sizeEv"
 "_ZN5TMBad6global8CompleteINS0_8ad_plain6CopyOpEE10other_fuseEPNS0_12OperatorPureE"
 "_ZN5TMBad6global8CompleteINS0_8ad_plain6CopyOpEE11output_sizeEv"
 "_ZN5TMBad6global8CompleteINS0_8ad_plain6CopyOpEE12dependenciesERNS_4ArgsIvEERNS_12DependenciesE"
 "_ZN5TMBad6global8CompleteINS0_8ad_plain6CopyOpEE12forward_incrERNS_11ForwardArgsIbEE"
 "_ZN5TMBad6global8CompleteINS0_8ad_plain6CopyOpEE12forward_incrERNS_11ForwardArgsIdEE"
 "_ZN5TMBad6global8CompleteINS0_8ad_plain6CopyOpEE12forward_incrERNS_11ForwardArgsINS_6WriterEEE"
 "_ZN5TMBad6global8CompleteINS0_8ad_plain6CopyOpEE12forward_incrERNS_11ForwardArgsINS0_6ad_augEEE"
 "_ZN5TMBad6global8CompleteINS0_8ad_plain6CopyOpEE12reverse_decrERNS_11ReverseArgsIbEE"
 "_ZN5TMBad6global8CompleteINS0_8ad_plain6CopyOpEE12reverse_decrERNS_11ReverseArgsIdEE"
 "_ZN5TMBad6global8CompleteINS0_8ad_plain6CopyOpEE12reverse_decrERNS_11ReverseArgsINS_6WriterEEE"
 "_ZN5TMBad6global8CompleteINS0_8ad_plain6CopyOpEE12reverse_decrERNS_11ReverseArgsINS0_6ad_augEEE"
 "_ZN5TMBad6global8CompleteINS0_8ad_plain6CopyOpEE13operator_dataEv"
 "_ZN5TMBad6global8CompleteINS0_8ad_plain6CopyOpEE23forward_incr_mark_denseERNS_11ForwardArgsIbEE"
 "_ZN5TMBad6global8CompleteINS0_8ad_plain6CopyOpEE4copyEv"
 "_ZN5TMBad6global8CompleteINS0_8ad_plain6CopyOpEE4infoEv"
 "_ZN5TMBad6global8CompleteINS0_8ad_plain6CopyOpEE5printENS0_12print_configE"
 "_ZN5TMBad6global8CompleteINS0_8ad_plain6CopyOpEE7forwardERNS_11ForwardArgsIbEE"
 "_ZN5TMBad6global8CompleteINS0_8ad_plain6CopyOpEE7forwardERNS_11ForwardArgsIdEE"
 "_ZN5TMBad6global8CompleteINS0_8ad_plain6CopyOpEE7forwardERNS_11ForwardArgsINS_6WriterEEE"
 "_ZN5TMBad6global8CompleteINS0_8ad_plain6CopyOpEE7forwardERNS_11ForwardArgsINS0_6ad_augEEE"
 "_ZN5TMBad6global8CompleteINS0_8ad_plain6CopyOpEE7op_nameEv"
 "_ZN5TMBad6global8CompleteINS0_8ad_plain6CopyOpEE7reverseERNS_11ReverseArgsIbEE"
 "_ZN5TMBad6global8CompleteINS0_8ad_plain6CopyOpEE7reverseERNS_11ReverseArgsIdEE"
 "_ZN5TMBad6global8CompleteINS0_8ad_plain6CopyOpEE7reverseERNS_11ReverseArgsINS_6WriterEEE"
 "_ZN5TMBad6global8CompleteINS0_8ad_plain6CopyOpEE7reverseERNS_11ReverseArgsINS0_6ad_augEEE"
 "_ZN5TMBad6global8CompleteINS0_8ad_plain6CopyOpEE9decrementERSt4pairIjjE"
 "_ZN5TMBad6global8CompleteINS0_8ad_plain6CopyOpEE9incrementERSt4pairIjjE"
 "_ZN5TMBad6global8CompleteINS0_8ad_plain6CopyOpEE9self_fuseEv"
 "_ZN5TMBad6global8CompleteINS0_8ad_plain6CopyOpEED0Ev"
 "_ZN5TMBad6global8CompleteINS0_8ad_plain6CopyOpEED1Ev"
 "_ZN5TMBad6global8CompleteINS0_8ad_plain6DivOp_ILb1ELb1EEEE10deallocateEv"
 "_ZN5TMBad6global8CompleteINS0_8ad_plain6DivOp_ILb1ELb1EEEE10identifierEv"
 "_ZN5TMBad6global8CompleteINS0_8ad_plain6DivOp_ILb1ELb1EEEE10incompleteEv"
 "_ZN5TMBad6global8CompleteINS0_8ad_plain6DivOp_ILb1ELb1EEEE10input_sizeEv"
 "_ZN5TMBad6global8CompleteINS0_8ad_plain6DivOp_ILb1ELb1EEEE10other_fuseEPNS0_12OperatorPureE"
 "_ZN5TMBad6global8CompleteINS0_8ad_plain6DivOp_ILb1ELb1EEEE11output_sizeEv"
 "_ZN5TMBad6global8CompleteINS0_8ad_plain6DivOp_ILb1ELb1EEEE12dependenciesERNS_4ArgsIvEERNS_12DependenciesE"
 "_ZN5TMBad6global8CompleteINS0_8ad_plain6DivOp_ILb1ELb1EEEE12forward_incrERNS_11ForwardArgsIbEE"
 "_ZN5TMBad6global8CompleteINS0_8ad_plain6DivOp_ILb1ELb1EEEE12forward_incrERNS_11ForwardArgsIdEE"
 "_ZN5TMBad6global8CompleteINS0_8ad_plain6DivOp_ILb1ELb1EEEE12forward_incrERNS_11ForwardArgsINS_6WriterEEE"
 "_ZN5TMBad6global8CompleteINS0_8ad_plain6DivOp_ILb1ELb1EEEE12forward_incrERNS_11ForwardArgsINS0_6ad_augEEE"
 "_ZN5TMBad6global8CompleteINS0_8ad_plain6DivOp_ILb1ELb1EEEE12reverse_decrERNS_11ReverseArgsIbEE"
 "_ZN5TMBad6global8CompleteINS0_8ad_plain6DivOp_ILb1ELb1EEEE12reverse_decrERNS_11ReverseArgsIdEE"
 "_ZN5TMBad6global8CompleteINS0_8ad_plain6DivOp_ILb1ELb1EEEE12reverse_decrERNS_11ReverseArgsINS_6WriterEEE"
 "_ZN5TMBad6global8CompleteINS0_8ad_plain6DivOp_ILb1ELb1EEEE12reverse_decrERNS_11ReverseArgsINS0_6ad_augEEE"
 "_ZN5TMBad6global8CompleteINS0_8ad_plain6DivOp_ILb1ELb1EEEE13operator_dataEv"
 "_ZN5TMBad6global8CompleteINS0_8ad_plain6DivOp_ILb1ELb1EEEE23forward_incr_mark_denseERNS_11ForwardArgsIbEE"
 "_ZN5TMBad6global8CompleteINS0_8ad_plain6DivOp_ILb1ELb1EEEE4copyEv"
 "_ZN5TMBad6global8CompleteINS0_8ad_plain6DivOp_ILb1ELb1EEEE4infoEv"
 "_ZN5TMBad6global8CompleteINS0_8ad_plain6DivOp_ILb1ELb1EEEE5printENS0_12print_configE"
 "_ZN5TMBad6global8CompleteINS0_8ad_plain6DivOp_ILb1ELb1EEEE7forwardERNS_11ForwardArgsIbEE"
 "_ZN5TMBad6global8CompleteINS0_8ad_plain6DivOp_ILb1ELb1EEEE7forwardERNS_11ForwardArgsIdEE"
 "_ZN5TMBad6global8CompleteINS0_8ad_plain6DivOp_ILb1ELb1EEEE7forwardERNS_11ForwardArgsINS_6WriterEEE"
 "_ZN5TMBad6global8CompleteINS0_8ad_plain6DivOp_ILb1ELb1EEEE7forwardERNS_11ForwardArgsINS0_6ad_augEEE"
 "_ZN5TMBad6global8CompleteINS0_8ad_plain6DivOp_ILb1ELb1EEEE7op_nameEv"
 "_ZN5TMBad6global8CompleteINS0_8ad_plain6DivOp_ILb1ELb1EEEE7reverseERNS_11ReverseArgsIbEE"
 "_ZN5TMBad6global8CompleteINS0_8ad_plain6DivOp_ILb1ELb1EEEE7reverseERNS_11ReverseArgsIdEE"
 "_ZN5TMBad6global8CompleteINS0_8ad_plain6DivOp_ILb1ELb1EEEE7reverseERNS_11ReverseArgsINS_6WriterEEE"
 "_ZN5TMBad6global8CompleteINS0_8ad_plain6DivOp_ILb1ELb1EEEE7reverseERNS_11ReverseArgsINS0_6ad_augEEE"
 "_ZN5TMBad6global8CompleteINS0_8ad_plain6DivOp_ILb1ELb1EEEE9decrementERSt4pairIjjE"
 "_ZN5TMBad6global8CompleteINS0_8ad_plain6DivOp_ILb1ELb1EEEE9incrementERSt4pairIjjE"
 "_ZN5TMBad6global8CompleteINS0_8ad_plain6DivOp_ILb1ELb1EEEE9self_fuseEv"
 "_ZN5TMBad6global8CompleteINS0_8ad_plain6DivOp_ILb1ELb1EEEED0Ev"
 "_ZN5TMBad6global8CompleteINS0_8ad_plain6DivOp_ILb1ELb1EEEED1Ev"
 "_ZN5TMBad6global8CompleteINS0_8ad_plain6MulOp_ILb1ELb0EEEE10deallocateEv"
 "_ZN5TMBad6global8CompleteINS0_8ad_plain6MulOp_ILb1ELb0EEEE10identifierEv"
 "_ZN5TMBad6global8CompleteINS0_8ad_plain6MulOp_ILb1ELb0EEEE10incompleteEv"
 "_ZN5TMBad6global8CompleteINS0_8ad_plain6MulOp_ILb1ELb0EEEE10input_sizeEv"
 "_ZN5TMBad6global8CompleteINS0_8ad_plain6MulOp_ILb1ELb0EEEE10other_fuseEPNS0_12OperatorPureE"
 "_ZN5TMBad6global8CompleteINS0_8ad_plain6MulOp_ILb1ELb0EEEE11output_sizeEv"
 "_ZN5TMBad6global8CompleteINS0_8ad_plain6MulOp_ILb1ELb0EEEE12dependenciesERNS_4ArgsIvEERNS_12DependenciesE"
 "_ZN5TMBad6global8CompleteINS0_8ad_plain6MulOp_ILb1ELb0EEEE12forward_incrERNS_11ForwardArgsIbEE"
 "_ZN5TMBad6global8CompleteINS0_8ad_plain6MulOp_ILb1ELb0EEEE12forward_incrERNS_11ForwardArgsIdEE"
 "_ZN5TMBad6global8CompleteINS0_8ad_plain6MulOp_ILb1ELb0EEEE12forward_incrERNS_11ForwardArgsINS_6WriterEEE"
 "_ZN5TMBad6global8CompleteINS0_8ad_plain6MulOp_ILb1ELb0EEEE12forward_incrERNS_11ForwardArgsINS0_6ad_augEEE"
 "_ZN5TMBad6global8CompleteINS0_8ad_plain6MulOp_ILb1ELb0EEEE12reverse_decrERNS_11ReverseArgsIbEE"
 "_ZN5TMBad6global8CompleteINS0_8ad_plain6MulOp_ILb1ELb0EEEE12reverse_decrERNS_11ReverseArgsIdEE"
 "_ZN5TMBad6global8CompleteINS0_8ad_plain6MulOp_ILb1ELb0EEEE12reverse_decrERNS_11ReverseArgsINS_6WriterEEE"
 "_ZN5TMBad6global8CompleteINS0_8ad_plain6MulOp_ILb1ELb0EEEE12reverse_decrERNS_11ReverseArgsINS0_6ad_augEEE"
 "_ZN5TMBad6global8CompleteINS0_8ad_plain6MulOp_ILb1ELb0EEEE13operator_dataEv"
 "_ZN5TMBad6global8CompleteINS0_8ad_plain6MulOp_ILb1ELb0EEEE23forward_incr_mark_denseERNS_11ForwardArgsIbEE"
 "_ZN5TMBad6global8CompleteINS0_8ad_plain6MulOp_ILb1ELb0EEEE4copyEv"
 "_ZN5TMBad6global8CompleteINS0_8ad_plain6MulOp_ILb1ELb0EEEE4infoEv"
 "_ZN5TMBad6global8CompleteINS0_8ad_plain6MulOp_ILb1ELb0EEEE5printENS0_12print_configE"
 "_ZN5TMBad6global8CompleteINS0_8ad_plain6MulOp_ILb1ELb0EEEE7forwardERNS_11ForwardArgsIbEE"
 "_ZN5TMBad6global8CompleteINS0_8ad_plain6MulOp_ILb1ELb0EEEE7forwardERNS_11ForwardArgsIdEE"
 "_ZN5TMBad6global8CompleteINS0_8ad_plain6MulOp_ILb1ELb0EEEE7forwardERNS_11ForwardArgsINS_6WriterEEE"
 "_ZN5TMBad6global8CompleteINS0_8ad_plain6MulOp_ILb1ELb0EEEE7forwardERNS_11ForwardArgsINS0_6ad_augEEE"
 "_ZN5TMBad6global8CompleteINS0_8ad_plain6MulOp_ILb1ELb0EEEE7op_nameEv"
 "_ZN5TMBad6global8CompleteINS0_8ad_plain6MulOp_ILb1ELb0EEEE7reverseERNS_11ReverseArgsIbEE"
 "_ZN5TMBad6global8CompleteINS0_8ad_plain6MulOp_ILb1ELb0EEEE7reverseERNS_11ReverseArgsIdEE"
 "_ZN5TMBad6global8CompleteINS0_8ad_plain6MulOp_ILb1ELb0EEEE7reverseERNS_11ReverseArgsINS_6WriterEEE"
 "_ZN5TMBad6global8CompleteINS0_8ad_plain6MulOp_ILb1ELb0EEEE7reverseERNS_11ReverseArgsINS0_6ad_augEEE"
 "_ZN5TMBad6global8CompleteINS0_8ad_plain6MulOp_ILb1ELb0EEEE9decrementERSt4pairIjjE"
 "_ZN5TMBad6global8CompleteINS0_8ad_plain6MulOp_ILb1ELb0EEEE9incrementERSt4pairIjjE"
 "_ZN5TMBad6global8CompleteINS0_8ad_plain6MulOp_ILb1ELb0EEEE9self_fuseEv"
 "_ZN5TMBad6global8CompleteINS0_8ad_plain6MulOp_ILb1ELb0EEEED0Ev"
 "_ZN5TMBad6global8CompleteINS0_8ad_plain6MulOp_ILb1ELb0EEEED1Ev"
 "_ZN5TMBad6global8CompleteINS0_8ad_plain6MulOp_ILb1ELb1EEEE10deallocateEv"
 "_ZN5TMBad6global8CompleteINS0_8ad_plain6MulOp_ILb1ELb1EEEE10identifierEv"
 "_ZN5TMBad6global8CompleteINS0_8ad_plain6MulOp_ILb1ELb1EEEE10incompleteEv"
 "_ZN5TMBad6global8CompleteINS0_8ad_plain6MulOp_ILb1ELb1EEEE10input_sizeEv"
 "_ZN5TMBad6global8CompleteINS0_8ad_plain6MulOp_ILb1ELb1EEEE10other_fuseEPNS0_12OperatorPureE"
 "_ZN5TMBad6global8CompleteINS0_8ad_plain6MulOp_ILb1ELb1EEEE11output_sizeEv"
 "_ZN5TMBad6global8CompleteINS0_8ad_plain6MulOp_ILb1ELb1EEEE12dependenciesERNS_4ArgsIvEERNS_12DependenciesE"
 "_ZN5TMBad6global8CompleteINS0_8ad_plain6MulOp_ILb1ELb1EEEE12forward_incrERNS_11ForwardArgsIbEE"
 "_ZN5TMBad6global8CompleteINS0_8ad_plain6MulOp_ILb1ELb1EEEE12forward_incrERNS_11ForwardArgsIdEE"
 "_ZN5TMBad6global8CompleteINS0_8ad_plain6MulOp_ILb1ELb1EEEE12forward_incrERNS_11ForwardArgsINS_6WriterEEE"
 "_ZN5TMBad6global8CompleteINS0_8ad_plain6MulOp_ILb1ELb1EEEE12forward_incrERNS_11ForwardArgsINS0_6ad_augEEE"
 "_ZN5TMBad6global8CompleteINS0_8ad_plain6MulOp_ILb1ELb1EEEE12reverse_decrERNS_11ReverseArgsIbEE"
 "_ZN5TMBad6global8CompleteINS0_8ad_plain6MulOp_ILb1ELb1EEEE12reverse_decrERNS_11ReverseArgsIdEE"
 "_ZN5TMBad6global8CompleteINS0_8ad_plain6MulOp_ILb1ELb1EEEE12reverse_decrERNS_11ReverseArgsINS_6WriterEEE"
 "_ZN5TMBad6global8CompleteINS0_8ad_plain6MulOp_ILb1ELb1EEEE12reverse_decrERNS_11ReverseArgsINS0_6ad_augEEE"
 "_ZN5TMBad6global8CompleteINS0_8ad_plain6MulOp_ILb1ELb1EEEE13operator_dataEv"
 "_ZN5TMBad6global8CompleteINS0_8ad_plain6MulOp_ILb1ELb1EEEE23forward_incr_mark_denseERNS_11ForwardArgsIbEE"
 "_ZN5TMBad6global8CompleteINS0_8ad_plain6MulOp_ILb1ELb1EEEE4copyEv"
 "_ZN5TMBad6global8CompleteINS0_8ad_plain6MulOp_ILb1ELb1EEEE4infoEv"
 "_ZN5TMBad6global8CompleteINS0_8ad_plain6MulOp_ILb1ELb1EEEE5printENS0_12print_configE"
 "_ZN5TMBad6global8CompleteINS0_8ad_plain6MulOp_ILb1ELb1EEEE7forwardERNS_11ForwardArgsIbEE"
 "_ZN5TMBad6global8CompleteINS0_8ad_plain6MulOp_ILb1ELb1EEEE7forwardERNS_11ForwardArgsIdEE"
 "_ZN5TMBad6global8CompleteINS0_8ad_plain6MulOp_ILb1ELb1EEEE7forwardERNS_11ForwardArgsINS_6WriterEEE"
 "_ZN5TMBad6global8CompleteINS0_8ad_plain6MulOp_ILb1ELb1EEEE7forwardERNS_11ForwardArgsINS0_6ad_augEEE"
 "_ZN5TMBad6global8CompleteINS0_8ad_plain6MulOp_ILb1ELb1EEEE7op_nameEv"
 "_ZN5TMBad6global8CompleteINS0_8ad_plain6MulOp_ILb1ELb1EEEE7reverseERNS_11ReverseArgsIbEE"
 "_ZN5TMBad6global8CompleteINS0_8ad_plain6MulOp_ILb1ELb1EEEE7reverseERNS_11ReverseArgsIdEE"
 "_ZN5TMBad6global8CompleteINS0_8ad_plain6MulOp_ILb1ELb1EEEE7reverseERNS_11ReverseArgsINS_6WriterEEE"
 "_ZN5TMBad6global8CompleteINS0_8ad_plain6MulOp_ILb1ELb1EEEE7reverseERNS_11ReverseArgsINS0_6ad_augEEE"
 "_ZN5TMBad6global8CompleteINS0_8ad_plain6MulOp_ILb1ELb1EEEE9decrementERSt4pairIjjE"
 "_ZN5TMBad6global8CompleteINS0_8ad_plain6MulOp_ILb1ELb1EEEE9incrementERSt4pairIjjE"
 "_ZN5TMBad6global8CompleteINS0_8ad_plain6MulOp_ILb1ELb1EEEE9self_fuseEv"
 "_ZN5TMBad6global8CompleteINS0_8ad_plain6MulOp_ILb1ELb1EEEED0Ev"
 "_ZN5TMBad6global8CompleteINS0_8ad_plain6MulOp_ILb1ELb1EEEED1Ev"
 "_ZN5TMBad6global8CompleteINS0_8ad_plain6SubOp_ILb1ELb1EEEE10deallocateEv"
 "_ZN5TMBad6global8CompleteINS0_8ad_plain6SubOp_ILb1ELb1EEEE10identifierEv"
 "_ZN5TMBad6global8CompleteINS0_8ad_plain6SubOp_ILb1ELb1EEEE10incompleteEv"
 "_ZN5TMBad6global8CompleteINS0_8ad_plain6SubOp_ILb1ELb1EEEE10input_sizeEv"
 "_ZN5TMBad6global8CompleteINS0_8ad_plain6SubOp_ILb1ELb1EEEE10other_fuseEPNS0_12OperatorPureE"
 "_ZN5TMBad6global8CompleteINS0_8ad_plain6SubOp_ILb1ELb1EEEE11output_sizeEv"
 "_ZN5TMBad6global8CompleteINS0_8ad_plain6SubOp_ILb1ELb1EEEE12dependenciesERNS_4ArgsIvEERNS_12DependenciesE"
 "_ZN5TMBad6global8CompleteINS0_8ad_plain6SubOp_ILb1ELb1EEEE12forward_incrERNS_11ForwardArgsIbEE"
 "_ZN5TMBad6global8CompleteINS0_8ad_plain6SubOp_ILb1ELb1EEEE12forward_incrERNS_11ForwardArgsIdEE"
 "_ZN5TMBad6global8CompleteINS0_8ad_plain6SubOp_ILb1ELb1EEEE12forward_incrERNS_11ForwardArgsINS_6WriterEEE"
 "_ZN5TMBad6global8CompleteINS0_8ad_plain6SubOp_ILb1ELb1EEEE12forward_incrERNS_11ForwardArgsINS0_6ad_augEEE"
 "_ZN5TMBad6global8CompleteINS0_8ad_plain6SubOp_ILb1ELb1EEEE12reverse_decrERNS_11ReverseArgsIbEE"
 "_ZN5TMBad6global8CompleteINS0_8ad_plain6SubOp_ILb1ELb1EEEE12reverse_decrERNS_11ReverseArgsIdEE"
 "_ZN5TMBad6global8CompleteINS0_8ad_plain6SubOp_ILb1ELb1EEEE12reverse_decrERNS_11ReverseArgsINS_6WriterEEE"
 "_ZN5TMBad6global8CompleteINS0_8ad_plain6SubOp_ILb1ELb1EEEE12reverse_decrERNS_11ReverseArgsINS0_6ad_augEEE"
 "_ZN5TMBad6global8CompleteINS0_8ad_plain6SubOp_ILb1ELb1EEEE13operator_dataEv"
 "_ZN5TMBad6global8CompleteINS0_8ad_plain6SubOp_ILb1ELb1EEEE23forward_incr_mark_denseERNS_11ForwardArgsIbEE"
 "_ZN5TMBad6global8CompleteINS0_8ad_plain6SubOp_ILb1ELb1EEEE4copyEv"
 "_ZN5TMBad6global8CompleteINS0_8ad_plain6SubOp_ILb1ELb1EEEE4infoEv"
 "_ZN5TMBad6global8CompleteINS0_8ad_plain6SubOp_ILb1ELb1EEEE5printENS0_12print_configE"
 "_ZN5TMBad6global8CompleteINS0_8ad_plain6SubOp_ILb1ELb1EEEE7forwardERNS_11ForwardArgsIbEE"
 "_ZN5TMBad6global8CompleteINS0_8ad_plain6SubOp_ILb1ELb1EEEE7forwardERNS_11ForwardArgsIdEE"
 "_ZN5TMBad6global8CompleteINS0_8ad_plain6SubOp_ILb1ELb1EEEE7forwardERNS_11ForwardArgsINS_6WriterEEE"
 "_ZN5TMBad6global8CompleteINS0_8ad_plain6SubOp_ILb1ELb1EEEE7forwardERNS_11ForwardArgsINS0_6ad_augEEE"
 "_ZN5TMBad6global8CompleteINS0_8ad_plain6SubOp_ILb1ELb1EEEE7op_nameEv"
 "_ZN5TMBad6global8CompleteINS0_8ad_plain6SubOp_ILb1ELb1EEEE7reverseERNS_11ReverseArgsIbEE"
 "_ZN5TMBad6global8CompleteINS0_8ad_plain6SubOp_ILb1ELb1EEEE7reverseERNS_11ReverseArgsIdEE"
 "_ZN5TMBad6global8CompleteINS0_8ad_plain6SubOp_ILb1ELb1EEEE7reverseERNS_11ReverseArgsINS_6WriterEEE"
 "_ZN5TMBad6global8CompleteINS0_8ad_plain6SubOp_ILb1ELb1EEEE7reverseERNS_11ReverseArgsINS0_6ad_augEEE"
 "_ZN5TMBad6global8CompleteINS0_8ad_plain6SubOp_ILb1ELb1EEEE9decrementERSt4pairIjjE"
 "_ZN5TMBad6global8CompleteINS0_8ad_plain6SubOp_ILb1ELb1EEEE9incrementERSt4pairIjjE"
 "_ZN5TMBad6global8CompleteINS0_8ad_plain6SubOp_ILb1ELb1EEEE9self_fuseEv"
 "_ZN5TMBad6global8CompleteINS0_8ad_plain6SubOp_ILb1ELb1EEEED0Ev"
 "_ZN5TMBad6global8CompleteINS0_8ad_plain6SubOp_ILb1ELb1EEEED1Ev"
 "_ZN5TMBad6global8set_fuseEb"
 "_ZN5TMBad6global9dep_marksEv"
 "_ZN5TMBad6global9deriv_depEj"
 "_ZN5TMBad6global9deriv_invEj"
 "_ZN5TMBad6global9eliminateEv"
 "_ZN5TMBad6global9inv_marksEv"
 "_ZN5TMBad6global9value_depEj"
 "_ZN5TMBad6global9value_invEj"
 "_ZN5TMBad6globalaSEOS0_"
 "_ZN5TMBad6globalaSERKS0_"
 "_ZN5TMBad6globalC1ERKS0_"
 "_ZN5TMBad6globalC1Ev"
 "_ZN5TMBad6globalC2Ev"
 "_ZN5TMBad6globalD1Ev"
 "_ZN5TMBad6lmatchIjEESt6vectorIbSaIbEERKS1_IT_SaIS4_EES8_"
 "_ZN5TMBad6matmulERKN5Eigen6MatrixIdLin1ELin1ELi0ELin1ELin1EEES4_"
 "_ZN5TMBad6matmulERKN5Eigen6MatrixINS_6global6ad_augELin1ELin1ELi0ELin1ELin1EEES6_"
 "_ZN5TMBad6MatMulILb0ELb0ELb0EE7forwardERNS_11ForwardArgsINS_6WriterEEE"
 "_ZN5TMBad6MatMulILb0ELb0ELb0EE7forwardINS_6global6ad_augEEEvRNS_11ForwardArgsIT_EE"
 "_ZN5TMBad6MatMulILb0ELb0ELb0EE7reverseERNS_11ReverseArgsINS_6WriterEEE"
 "_ZN5TMBad6MatMulILb0ELb0ELb0EE7reverseIdEEvRNS_11ReverseArgsIT_EE"
 "_ZN5TMBad6MatMulILb0ELb0ELb0EE7reverseINS_6global6ad_augEEEvRNS_11ReverseArgsIT_EE"
 "_ZN5TMBad6matmulILb0ELb0ELb0EEEvN5Eigen3MapIKNS1_6MatrixIdLin1ELin1ELi0ELin1ELin1EEELi0ENS1_6StrideILi0ELi0EEEEES8_NS2_IS4_Li0ES7_EE"
 "_ZN5TMBad6matmulILb0ELb0ELb0EEEvRKN5Eigen6MatrixINS_6global6ad_augELin1ELin1ELi0ELin1ELin1EEES7_NS1_3MapIS5_Li0ENS1_6StrideILi0ELi0EEEEE"
 "_ZN5TMBad6MatMulILb0ELb1ELb0EE7forwardERNS_11ForwardArgsINS_6WriterEEE"
 "_ZN5TMBad6MatMulILb0ELb1ELb0EE7forwardINS_6global6ad_augEEEvRNS_11ForwardArgsIT_EE"
 "_ZN5TMBad6MatMulILb0ELb1ELb0EE7reverseERNS_11ReverseArgsINS_6WriterEEE"
 "_ZN5TMBad6MatMulILb0ELb1ELb0EE7reverseIdEEvRNS_11ReverseArgsIT_EE"
 "_ZN5TMBad6MatMulILb0ELb1ELb0EE7reverseINS_6global6ad_augEEEvRNS_11ReverseArgsIT_EE"
 "_ZN5TMBad6matmulILb0ELb1ELb0EEEvN5Eigen3MapIKNS1_6MatrixIdLin1ELin1ELi0ELin1ELin1EEELi0ENS1_6StrideILi0ELi0EEEEES8_NS2_IS4_Li0ES7_EE"
 "_ZN5TMBad6matmulILb0ELb1ELb0EEEvRKN5Eigen6MatrixINS_6global6ad_augELin1ELin1ELi0ELin1ELin1EEES7_NS1_3MapIS5_Li0ENS1_6StrideILi0ELi0EEEEE"
 "_ZN5TMBad6MatMulILb0ELb1ELb1EE7forwardERNS_11ForwardArgsINS_6WriterEEE"
 "_ZN5TMBad6MatMulILb0ELb1ELb1EE7forwardINS_6global6ad_augEEEvRNS_11ForwardArgsIT_EE"
 "_ZN5TMBad6MatMulILb0ELb1ELb1EE7reverseERNS_11ReverseArgsINS_6WriterEEE"
 "_ZN5TMBad6MatMulILb0ELb1ELb1EE7reverseIdEEvRNS_11ReverseArgsIT_EE"
 "_ZN5TMBad6MatMulILb0ELb1ELb1EE7reverseINS_6global6ad_augEEEvRNS_11ReverseArgsIT_EE"
 "_ZN5TMBad6matmulILb0ELb1ELb1EEEvN5Eigen3MapIKNS1_6MatrixIdLin1ELin1ELi0ELin1ELin1EEELi0ENS1_6StrideILi0ELi0EEEEES8_NS2_IS4_Li0ES7_EE"
 "_ZN5TMBad6matmulILb0ELb1ELb1EEEvRKN5Eigen6MatrixINS_6global6ad_augELin1ELin1ELi0ELin1ELin1EEES7_NS1_3MapIS5_Li0ENS1_6StrideILi0ELi0EEEEE"
 "_ZN5TMBad6MatMulILb1ELb0ELb0EE7forwardERNS_11ForwardArgsINS_6WriterEEE"
 "_ZN5TMBad6MatMulILb1ELb0ELb0EE7forwardINS_6global6ad_augEEEvRNS_11ForwardArgsIT_EE"
 "_ZN5TMBad6MatMulILb1ELb0ELb0EE7reverseERNS_11ReverseArgsINS_6WriterEEE"
 "_ZN5TMBad6MatMulILb1ELb0ELb0EE7reverseIdEEvRNS_11ReverseArgsIT_EE"
 "_ZN5TMBad6MatMulILb1ELb0ELb0EE7reverseINS_6global6ad_augEEEvRNS_11ReverseArgsIT_EE"
 "_ZN5TMBad6matmulILb1ELb0ELb0EEEvN5Eigen3MapIKNS1_6MatrixIdLin1ELin1ELi0ELin1ELin1EEELi0ENS1_6StrideILi0ELi0EEEEES8_NS2_IS4_Li0ES7_EE"
 "_ZN5TMBad6matmulILb1ELb0ELb0EEEvRKN5Eigen6MatrixINS_6global6ad_augELin1ELin1ELi0ELin1ELin1EEES7_NS1_3MapIS5_Li0ENS1_6StrideILi0ELi0EEEEE"
 "_ZN5TMBad6MatMulILb1ELb0ELb1EE7forwardERNS_11ForwardArgsINS_6WriterEEE"
 "_ZN5TMBad6MatMulILb1ELb0ELb1EE7forwardINS_6global6ad_augEEEvRNS_11ForwardArgsIT_EE"
 "_ZN5TMBad6MatMulILb1ELb0ELb1EE7reverseERNS_11ReverseArgsINS_6WriterEEE"
 "_ZN5TMBad6MatMulILb1ELb0ELb1EE7reverseIdEEvRNS_11ReverseArgsIT_EE"
 "_ZN5TMBad6MatMulILb1ELb0ELb1EE7reverseINS_6global6ad_augEEEvRNS_11ReverseArgsIT_EE"
 "_ZN5TMBad6matmulILb1ELb0ELb1EEEvN5Eigen3MapIKNS1_6MatrixIdLin1ELin1ELi0ELin1ELin1EEELi0ENS1_6StrideILi0ELi0EEEEES8_NS2_IS4_Li0ES7_EE"
 "_ZN5TMBad6matmulILb1ELb0ELb1EEEvRKN5Eigen6MatrixINS_6global6ad_augELin1ELin1ELi0ELin1ELin1EEES7_NS1_3MapIS5_Li0ENS1_6StrideILi0ELi0EEEEE"
 "_ZN5TMBad6MatMulILb1ELb1ELb1EE7forwardERNS_11ForwardArgsINS_6WriterEEE"
 "_ZN5TMBad6MatMulILb1ELb1ELb1EE7forwardINS_6global6ad_augEEEvRNS_11ForwardArgsIT_EE"
 "_ZN5TMBad6MatMulILb1ELb1ELb1EE7reverseERNS_11ReverseArgsINS_6WriterEEE"
 "_ZN5TMBad6MatMulILb1ELb1ELb1EE7reverseIdEEvRNS_11ReverseArgsIT_EE"
 "_ZN5TMBad6MatMulILb1ELb1ELb1EE7reverseINS_6global6ad_augEEEvRNS_11ReverseArgsIT_EE"
 "_ZN5TMBad6matmulILb1ELb1ELb1EEEvN5Eigen3MapIKNS1_6MatrixIdLin1ELin1ELi0ELin1ELin1EEELi0ENS1_6StrideILi0ELi0EEEEES8_NS2_IS4_Li0ES7_EE"
 "_ZN5TMBad6matmulILb1ELb1ELb1EEEvRKN5Eigen6MatrixINS_6global6ad_augELin1ELin1ELi0ELin1ELin1EEES7_NS1_3MapIS5_Li0ENS1_6StrideILi0ELi0EEEEE"
 "_ZN5TMBad6SignOp7op_nameEv"
 "_ZN5TMBad6SinhOp7op_nameEv"
 "_ZN5TMBad6SinhOp7reverseERNS_11ReverseArgsIdEE"
 "_ZN5TMBad6SinhOp7reverseINS_6WriterEEEvRNS_11ReverseArgsIT_EE"
 "_ZN5TMBad6SparseINS_5ADFunINS_6global6ad_augEEEE14subset_inplaceERKSt8valarrayIbE"
 "_ZN5TMBad6SparseINS_5ADFunINS_6global6ad_augEEEEaSEOS5_"
 "_ZN5TMBad6SparseINS_5ADFunINS_6global6ad_augEEEED1Ev"
 "_ZN5TMBad6SparseINS_5ADFunINS_6global6ad_augEEEED2Ev"
 "_ZN5TMBad6SqrtOp7op_nameEv"
 "_ZN5TMBad6SqrtOp7reverseERNS_11ReverseArgsIdEE"
 "_ZN5TMBad6SqrtOp7reverseINS_6WriterEEEvRNS_11ReverseArgsIT_EE"
 "_ZN5TMBad6subsetIbEESt6vectorIT_SaIS2_EERKS4_RKS1_IbSaIbEE"
 "_ZN5TMBad6subsetIbjEESt6vectorIT_SaIS2_EERKS4_RKS1_IT0_SaIS7_EE"
 "_ZN5TMBad6subsetIjEESt6vectorIT_SaIS2_EERKS4_RKS1_IbSaIbEE"
 "_ZN5TMBad6subsetIjjEESt6vectorIT_SaIS2_EERKS4_RKS1_IT0_SaIS7_EE"
 "_ZN5TMBad6subsetINS_6global6ad_augEEESt6vectorIT_SaIS4_EERKS6_RKS3_IbSaIbEE"
 "_ZN5TMBad6subsetINS_8PositionEjEESt6vectorIT_SaIS3_EERKS5_RKS2_IT0_SaIS8_EE"
 "_ZN5TMBad6subsetINS_8PositionEyEESt6vectorIT_SaIS3_EERKS5_RKS2_IT0_SaIS8_EE"
 "_ZN5TMBad6subsetIyEESt6vectorIT_SaIS2_EERKS4_RKS1_IbSaIbEE"
 "_ZN5TMBad6TanhOp7op_nameEv"
 "_ZN5TMBad6TanhOp7reverseERNS_11ReverseArgsIdEE"
 "_ZN5TMBad6TanhOp7reverseINS_6WriterEEEvRNS_11ReverseArgsIT_EE"
 "_ZN5TMBad6Writer1pENSt7__cxx1112basic_stringIcSt11char_traitsIcESaIcEEE"
 "_ZN5TMBad6Writer4coutE"
 "_ZN5TMBad6WriteraSERKS0_"
 "_ZN5TMBad6WriterC1Ed"
 "_ZN5TMBad6WriterC1ENSt7__cxx1112basic_stringIcSt11char_traitsIcESaIcEEE"
 "_ZN5TMBad6WriterC1Ev"
 "_ZN5TMBad6WriterC2Ed"
 "_ZN5TMBad6WriterC2ENSt7__cxx1112basic_stringIcSt11char_traitsIcESaIcEEE"
 "_ZN5TMBad6WriterC2Ev"
 "_ZN5TMBad6WriterdvERKS0_"
 "_ZN5TMBad6WriterdVERKS0_"
 "_ZN5TMBad6WritermiERKS0_"
 "_ZN5TMBad6WritermIERKS0_"
 "_ZN5TMBad6WritermlERKd"
 "_ZN5TMBad6WritermlERKS0_"
 "_ZN5TMBad6WritermLERKS0_"
 "_ZN5TMBad6WriterngEv"
 "_ZN5TMBad6WriterplERKd"
 "_ZN5TMBad6WriterplERKS0_"
 "_ZN5TMBad6WriterpLERKS0_"
 "_ZN5TMBad7AdapOp_INS_14logIntegrate_tINS_8adaptiveINS_6global6ad_augEEEEENS3_8ad_plainEE11replay_hookERNS_11ForwardArgsIS4_EE"
 "_ZN5TMBad7AdapOp_INS_14logIntegrate_tINS_8adaptiveINS_6global6ad_augEEEEENS3_8ad_plainEE11retape_hookERNS_11ForwardArgsIdEE"
 "_ZN5TMBad7AdapOp_INS_14logIntegrate_tINS_8adaptiveINS_6global6ad_augEEEEENS3_8ad_plainEE6retapeERSt6vectorIdSaIdEE"
 "_ZN5TMBad7autopar14max_tree_depthEv"
 "_ZN5TMBad7autopar3runEv"
 "_ZN5TMBad7autopar7extractEv"
 "_ZN5TMBad7autoparC1ERNS_6globalEy"
 "_ZN5TMBad7autoparC2ERNS_6globalEy"
 "_ZN5TMBad7autoparD1Ev"
 "_ZN5TMBad7CallOp_ILb0EE11replay_hookERNS_11ForwardArgsINS_6global6ad_augEEE"
 "_ZN5TMBad7CallOp_ILb0EE11retape_hookERNS_11ForwardArgsIdEE"
 "_ZN5TMBad7CallOp_ILb0EE12update_derivEv"
 "_ZN5TMBad7CallOp_ILb0EE7forwardERNS_11ForwardArgsINS_6global6ad_augEEE"
 "_ZN5TMBad7CallOp_ILb0EE7forwardERNS_11ForwardArgsINS_6WriterEEE"
 "_ZN5TMBad7CallOp_ILb0EE7reverseERNS_11ReverseArgsIdEE"
 "_ZN5TMBad7CallOp_ILb0EE7reverseERNS_11ReverseArgsINS_6global6ad_augEEE"
 "_ZN5TMBad7CallOp_ILb0EE7reverseERNS_11ReverseArgsINS_6WriterEEE"
 "_ZN5TMBad7CallOp_ILb1EE11replay_hookERNS_11ForwardArgsINS_6global6ad_augEEE"
 "_ZN5TMBad7CallOp_ILb1EE11retape_hookERNS_11ForwardArgsIdEE"
 "_ZN5TMBad7CallOp_ILb1EE12update_derivEv"
 "_ZN5TMBad7CallOp_ILb1EE5printENS_6global12print_configE"
 "_ZN5TMBad7CallOp_ILb1EE7forwardERNS_11ForwardArgsINS_6global6ad_augEEE"
 "_ZN5TMBad7CallOp_ILb1EE7forwardERNS_11ForwardArgsINS_6WriterEEE"
 "_ZN5TMBad7CallOp_ILb1EE7reverseERNS_11ReverseArgsIbEE"
 "_ZN5TMBad7CallOp_ILb1EE7reverseERNS_11ReverseArgsINS_6global6ad_augEEE"
 "_ZN5TMBad7CallOp_ILb1EE7reverseERNS_11ReverseArgsINS_6WriterEEE"
 "_ZN5TMBad7CallOp_ILb1EED2Ev"
 "_ZN5TMBad7controlC1Eidd"
 "_ZN5TMBad7controlC2Eidd"
 "_ZN5TMBad7Decomp2INS_5ADFunINS_6global6ad_augEEEE6HesFunESt6vectorIbSaIbEEbbb"
 "_ZN5TMBad7Decomp3INS_5ADFunINS_6global6ad_augEEEED1Ev"
 "_ZN5TMBad7FloorOp7op_nameEv"
 "_ZN5TMBad7invpermIyEESt6vectorIT_SaIS2_EERKS4_"
 "_ZN5TMBad7ParalOp5printENS_6global12print_configE"
 "_ZN5TMBad7ParalOp7forwardERNS_11ForwardArgsIdEE"
 "_ZN5TMBad7ParalOp7forwardINS_6WriterEEEvRNS_11ForwardArgsIT_EE"
 "_ZN5TMBad7ParalOp7op_nameEv"
 "_ZN5TMBad7ParalOp7reverseERNS_11ReverseArgsIdEE"
 "_ZN5TMBad7ParalOp7reverseINS_6global6ad_augEEEvRNS_11ReverseArgsIT_EE"
 "_ZN5TMBad7ParalOp7reverseINS_6WriterEEEvRNS_11ReverseArgsIT_EE"
 "_ZN5TMBad7ParalOpC1ERKNS_7autoparE"
 "_ZN5TMBad7ParalOpC2ERKNS_7autoparE"
 "_ZN5TMBad7ParalOpC2ERKS0_"
 "_ZN5TMBad7ParalOpD2Ev"
 "_ZN5TMBad7RoundOp7op_nameEv"
 "_ZN5TMBad7sr_grid11logw_offsetEv"
 "_ZN5TMBad7sr_grid4sizeEv"
 "_ZN5TMBad7sr_gridC1Eddy"
 "_ZN5TMBad7sr_gridC1ERKS0_"
 "_ZN5TMBad7sr_gridC1Ev"
 "_ZN5TMBad7sr_gridC1Ey"
 "_ZN5TMBad7sr_gridC2Eddy"
 "_ZN5TMBad7sr_gridC2Ev"
 "_ZN5TMBad7sr_gridC2Ey"
 "_ZN5TMBad7sr_gridD1Ev"
 "_ZN5TMBad7StackOp5printENS_6global12print_configE"
 "_ZN5TMBad7StackOp7forwardERNS_11ForwardArgsINS_6WriterEEE"
 "_ZN5TMBad7StackOp7op_nameEv"
 "_ZN5TMBad7StackOp7reverseERNS_11ReverseArgsINS_6WriterEEE"
 "_ZN5TMBad7StackOpC1EPNS_6globalENS_6periodESt4pairIjjEy"
 "_ZN5TMBad7StackOpC1ERKS0_"
 "_ZN5TMBad7StackOpC2EPNS_6globalENS_6periodESt4pairIjjEy"
 "_ZN5TMBad7StackOpC2ERKS0_"
 "_ZN5TMBad7TruncOp7op_nameEv"
 "_ZN5TMBad8compressERNS_6globalEy"
 "_ZN5TMBad8get_globEv"
 "_ZN5TMBad8IntegralINS_14logIntegrate_tINS_8adaptiveINS_6global6ad_augEEEEEE20vectorized_integrandclEPS5_iPv"
 "_ZN5TMBad8IntegralINS_14logIntegrate_tINS_8adaptiveINS_6global6ad_augEEEEEEC1ES6_S5_S5_NS_7controlE"
 "_ZN5TMBad8IntegralINS_14logIntegrate_tINS_8adaptiveINS_6global6ad_augEEEEEED1Ev"
 "_ZN5TMBad8isfiniteERKNS_6global6ad_augE"
 "_ZN5TMBad8PositionC1Ejjj"
 "_ZN5TMBad8PositionC1Ev"
 "_ZN5TMBad8PositionC2Ejjj"
 "_ZN5TMBad8PositionC2Ev"
 "_ZN5TMBad8prod_intERKSt6vectorIySaIyEE"
 "_ZN5TMBad9aggregateERNS_6globalEi"
 "_ZN5TMBad9CondExpEqERKdS1_S1_S1_"
 "_ZN5TMBad9CondExpEqERKNS_6global6ad_augES3_S3_S3_"
 "_ZN5TMBad9CondExpEqERKNS_6global8ad_plainES3_S3_S3_"
 "_ZN5TMBad9CondExpGeERKdS1_S1_S1_"
 "_ZN5TMBad9CondExpGeERKNS_6global6ad_augES3_S3_S3_"
 "_ZN5TMBad9CondExpGeERKNS_6global8ad_plainES3_S3_S3_"
 "_ZN5TMBad9CondExpGtERKdS1_S1_S1_"
 "_ZN5TMBad9CondExpGtERKNS_6global6ad_augES3_S3_S3_"
 "_ZN5TMBad9CondExpGtERKNS_6global8ad_plainES3_S3_S3_"
 "_ZN5TMBad9CondExpLeERKdS1_S1_S1_"
 "_ZN5TMBad9CondExpLeERKNS_6global6ad_augES3_S3_S3_"
 "_ZN5TMBad9CondExpLeERKNS_6global8ad_plainES3_S3_S3_"
 "_ZN5TMBad9CondExpLtERKdS1_S1_S1_"
 "_ZN5TMBad9CondExpLtERKNS_6global6ad_augES3_S3_S3_"
 "_ZN5TMBad9CondExpLtERKNS_6global8ad_plainES3_S3_S3_"
 "_ZN5TMBad9CondExpNeERKdS1_S1_S1_"
 "_ZN5TMBad9CondExpNeERKNS_6global6ad_augES3_S3_S3_"
 "_ZN5TMBad9CondExpNeERKNS_6global8ad_plainES3_S3_S3_"
 "_ZN5TMBad9DependentINS_6global6ad_augEEEvRSt6vectorIT_SaIS4_EE"
 "_ZN5TMBad9DependentINS_6global8ad_plainEEEvRSt6vectorIT_SaIS4_EE"
 "_ZN5TMBad9gk_configC1Ev"
 "_ZN5TMBad9gk_configC2Ev"
 "_ZN5TMBad9graph2dotENS_6globalEbRSo"
 "_ZN5TMBad9graph2dotENS_6globalENS_5graphEbRSo"
 "_ZN5TMBad9graph2dotEPKcNS_6globalEb"
 "_ZN5TMBad9graph2dotEPKcNS_6globalENS_5graphEb"
 "_ZN5TMBad9integrateINS_14logIntegrate_tINS_8adaptiveINS_6global6ad_augEEEEEEENT_6ScalarES7_S8_S8_NS_7controlE"
 "_ZN5TMBad9intervalsIjE6insertEjj"
 "_ZN5TMBad9old_state7restoreEv"
 "_ZN5TMBad9old_stateC1ERNS_6globalE"
 "_ZN5TMBad9old_stateC2ERNS_6globalE"
 "_ZN5TMBad9term_info10initializeESt6vectorIjSaIjEE"
 "_ZN5TMBad9term_infoC1ERNS_6globalEb"
 "_ZN5TMBad9term_infoC2ERNS_6globalEb"
 "_ZN5TMBad9write_allENS_6globalENS_11code_configE"
 "_ZN5TMBaddvERKdRKNS_6global6ad_augE"
 "_ZN5TMBadeqERKdRKNS_6global6ad_augE"
 "_ZN5TMBadeqERKdRKNS_8adaptiveINS_6global6ad_augEEE"
 "_ZN5TMBadeqERKNS_6global6ad_augES3_"
 "_ZN5TMBadgeERKdRKNS_6global6ad_augE"
 "_ZN5TMBadgeERKdRKNS_8adaptiveINS_6global6ad_augEEE"
 "_ZN5TMBadgeERKNS_6global6ad_augES3_"
 "_ZN5TMBadgtERKdRKNS_6global6ad_augE"
 "_ZN5TMBadgtERKdRKNS_8adaptiveINS_6global6ad_augEEE"
 "_ZN5TMBadgtERKNS_6global6ad_augES3_"
 "_ZN5TMBadleERKdRKNS_6global6ad_augE"
 "_ZN5TMBadleERKdRKNS_8adaptiveINS_6global6ad_augEEE"
 "_ZN5TMBadleERKNS_6global6ad_augES3_"
 "_ZN5TMBadlsERSoRKNS_6global6ad_augE"
 "_ZN5TMBadlsERSoRKNS_6global8ad_plainE"
 "_ZN5TMBadlsERSoRKNS_6periodE"
 "_ZN5TMBadlsIjEERSoS1_RKSt6vectorIT_SaIS3_EE"
 "_ZN5TMBadlsIPKcEERSoS3_RKSt6vectorIT_SaIS5_EE"
 "_ZN5TMBadlsIxEERSoS1_RKSt6vectorIT_SaIS3_EE"
 "_ZN5TMBadltERKdRKNS_6global6ad_augE"
 "_ZN5TMBadltERKdRKNS_8adaptiveINS_6global6ad_augEEE"
 "_ZN5TMBadltERKNS_6global6ad_augES3_"
 "_ZN5TMBadmiERKdRKNS_6global6ad_augE"
 "_ZN5TMBadmlERKdRKNS_6global6ad_augE"
 "_ZN5TMBadneERKdRKNS_6global6ad_augE"
 "_ZN5TMBadneERKdRKNS_8adaptiveINS_6global6ad_augEEE"
 "_ZN5TMBadneERKNS_6global6ad_augES3_"
 "_ZN5TMBadplERKdRKNS_6global6ad_augE"
 "_ZN6atomic12dynamic_data14double_to_sexpEd"
 "_ZN6atomic12dynamic_data14sexp_to_doubleEP7SEXPREC"
 "_ZN6atomic12dynamic_data17charptr_to_doubleEPKc"
 "_ZN6atomic12dynamic_data17double_to_charptrEd"
 "_ZN6atomic12logspace_addIvEEN5CppAD6vectorIdEERKS3_"
 "_ZN6atomic12logspace_addIvEEN5CppAD6vectorIN5TMBad6global6ad_augEEERKS6_"
 "_ZN6atomic12robust_utils12logspace_addIdEET_RKS2_S4_"
 "_ZN6atomic12robust_utils12logspace_addINS_7tiny_ad8variableILi1ELi2EdEEEET_RKS5_S7_"
 "_ZN6atomic12robust_utils12logspace_addINS_7tiny_ad8variableILi2ELi2EdEEEET_RKS5_S7_"
 "_ZN6atomic12robust_utils12logspace_addINS_7tiny_ad8variableILi3ELi2EdEEEET_RKS5_S7_"
 "_ZN6atomic13compois_utils8simulateEdd"
 "_ZN6atomic13convol2d_workERKN5Eigen6MatrixIdLin1ELin1ELi0ELin1ELin1EEES4_"
 "_ZN6atomic14logspace_addOpILi0ELi2ELi1ELl9EE7reverseIdEEvRN5TMBad11ReverseArgsIT_EE"
 "_ZN6atomic14logspace_addOpILi0ELi2ELi1ELl9EE7reverseIN5TMBad6global6ad_augEEEvRNS3_11ReverseArgsIT_EE"
 "_ZN6atomic14logspace_addOpILi1ELi2ELi2ELl9EE7reverseIdEEvRN5TMBad11ReverseArgsIT_EE"
 "_ZN6atomic14logspace_addOpILi1ELi2ELi2ELl9EE7reverseIN5TMBad6global6ad_augEEEvRNS3_11ReverseArgsIT_EE"
 "_ZN6atomic14logspace_addOpILi2ELi2ELi4ELl9EE7reverseIdEEvRN5TMBad11ReverseArgsIT_EE"
 "_ZN6atomic14logspace_addOpILi2ELi2ELi4ELl9EE7reverseIN5TMBad6global6ad_augEEEvRNS3_11ReverseArgsIT_EE"
 "_ZN6atomic14logspace_addOpILi2ELi2ELi4ELl9EEclERKN5Eigen5ArrayIN5TMBad6global6ad_augELi2ELi1ELi0ELi2ELi1EEE"
 "_ZN6atomic14logspace_addOpILi3ELi2ELi8ELl9EE7reverseIdEEvRN5TMBad11ReverseArgsIT_EE"
 "_ZN6atomic14logspace_addOpILi3ELi2ELi8ELl9EE7reverseIN5TMBad6global6ad_augEEEvRNS3_11ReverseArgsIT_EE"
 "_ZN6atomic14logspace_addOpILi3ELi2ELi8ELl9EEclERKN5Eigen5ArrayIN5TMBad6global6ad_augELi2ELi1ELi0ELi2ELi1EEE"
 "_ZN6atomic14nestedTriangleILi1EEC1EN8tmbutils6vectorINS2_6matrixIdEEEE"
 "_ZN6atomic14nestedTriangleILi2EEC1EN8tmbutils6vectorINS2_6matrixIdEEEE"
 "_ZN6atomic14nestedTriangleILi3EEC1EN8tmbutils6vectorINS2_6matrixIdEEEE"
 "_ZN6atomic16logspace_addEvalILi2ELi2ELi4ELl9EEclIddEEvPT_PT0_"
 "_ZN6atomic16logspace_addEvalILi3ELi2ELi8ELl9EEclIddEEvPT_PT0_"
 "_ZN6atomic4expmEN8tmbutils6vectorINS0_6matrixIdEEEE"
 "_ZN6atomic4expmINS_14nestedTriangleILi0EEEEET_S3_"
 "_ZN6atomic4expmINS_14nestedTriangleILi1EEEEET_S3_"
 "_ZN6atomic4expmINS_14nestedTriangleILi2EEEEET_S3_"
 "_ZN6atomic4expmINS_14nestedTriangleILi3EEEEET_S3_"
 "_ZN6atomic5BlockIdE11addIdentityEv"
 "_ZN6atomic5BlockIdE4normEv"
 "_ZN6atomic5BlockIdE5scaleEd"
 "_ZN6atomic5BlockIdEmlES1_"
 "_ZN6atomic5Rmath15inv_incpl_gammaEddd"
 "_ZN6atomic5Rmath19D_incpl_gamma_shapeEdddd"
 "_ZN6atomic5Rmath29integrand_D_incpl_gamma_shapeEPdiPv"
 "_ZN6atomic5Rmath8D_lgammaEdd"
 "_ZN6atomic6logdetIN5TMBad6global6ad_augEEET_N8tmbutils6matrixIS4_EE"
 "_ZN6atomic6logdetIvEEN5CppAD6vectorIdEERKS3_"
 "_ZN6atomic6logdetIvEEN5CppAD6vectorIN5TMBad6global6ad_augEEERKS6_"
 "_ZN6atomic6matinvIdEEN8tmbutils6matrixIT_EES4_"
 "_ZN6atomic6matinvIN5TMBad6global6ad_augEEEN8tmbutils6matrixIT_EES7_"
 "_ZN6atomic6matinvIvEEN5CppAD6vectorIdEERKS3_"
 "_ZN6atomic6matinvIvEEN5CppAD6vectorIN5TMBad6global6ad_augEEERKS6_"
 "_ZN6atomic6matmulIdEEN8tmbutils6matrixIT_EES4_S4_"
 "_ZN6atomic6matmulIN5TMBad6global6ad_augEEEN8tmbutils6matrixIT_EES7_S7_"
 "_ZN6atomic6matmulIvEEN5CppAD6vectorIdEERKS3_"
 "_ZN6atomic6matmulIvEEN5CppAD6vectorIN5TMBad6global6ad_augEEERKS6_"
 "_ZN6atomic6matmulIvEEvRKN5CppAD6vectorIN5TMBad6global6ad_augEEERS6_"
 "_ZN6atomic7mat2vecIdEEN5CppAD6vectorIT_EEN8tmbutils6matrixIS3_EE"
 "_ZN6atomic7mat2vecIN5TMBad6global6ad_augEEEN5CppAD6vectorIT_EEN8tmbutils6matrixIS6_EE"
 "_ZN6atomic7tiny_ad2adINS0_8variableILi2ELi2EdEENS_8tiny_vecIS3_Li2EEEEC2Ed"
 "_ZN6atomic7tiny_ad3expIdNS_8tiny_vecIdLi2EEEEENS0_2adIT_T0_EERKS7_"
 "_ZN6atomic7tiny_ad3expINS0_8variableILi1ELi2EdEENS_8tiny_vecIS3_Li2EEEEENS0_2adIT_T0_EERKS9_"
 "_ZN6atomic7tiny_ad3expINS0_8variableILi2ELi2EdEENS_8tiny_vecIS3_Li2EEEEENS0_2adIT_T0_EERKS9_"
 "_ZN6atomic7tiny_ad5log1pIdNS_8tiny_vecIdLi2EEEEENS0_2adIT_T0_EERKS7_"
 "_ZN6atomic7tiny_ad5log1pINS0_8variableILi1ELi2EdEENS_8tiny_vecIS3_Li2EEEEENS0_2adIT_T0_EERKS9_"
 "_ZN6atomic7tiny_ad5log1pINS0_8variableILi2ELi2EdEENS_8tiny_vecIS3_Li2EEEEENS0_2adIT_T0_EERKS9_"
 "_ZN6atomic7tiny_ad6lgammaERKd"
 "_ZN6atomic7tiny_ad6lgammaILi0EEEdRKd"
 "_ZN6atomic7tiny_ad7D_log1pINS0_8variableILi2ELi2EdEEEET_RKS4_"
 "_ZN6atomic7tiny_ad8asDoubleEd"
 "_ZN6atomic7tiny_ad8isfiniteERKd"
 "_ZN6atomic7tiny_ad8max_fabsEd"
 "_ZN6atomic7tiny_addvIdNS_8tiny_vecIdLi1EEEEENS0_2adIT_T0_EERKdRKS7_"
 "_ZN6atomic7tiny_addvIdNS_8tiny_vecIdLi2EEEEENS0_2adIT_T0_EERKdRKS7_"
 "_ZN6atomic7tiny_addvINS0_8variableILi1ELi2EdEENS_8tiny_vecIS3_Li2EEEEENS0_2adIT_T0_EERKdRKS9_"
 "_ZN6atomic7vec2matIdEENS_8TypeDefsIT_E14ConstMapMatrixERKN5CppAD6vectorIS2_EEiii"
 "_ZN6atomic7vec2matIN5TMBad6global6ad_augEEENS_8TypeDefsIT_E14ConstMapMatrixERKN5CppAD6vectorIS5_EEiii"
 "_ZN6atomic8logdetOpIvE7forwardEN5TMBad11ForwardArgsIdEE"
 "_ZN6atomic8logdetOpIvE7forwardERN5TMBad11ForwardArgsINS2_6WriterEEE"
 "_ZN6atomic8logdetOpIvE7reverseERN5TMBad11ReverseArgsINS2_6WriterEEE"
 "_ZN6atomic8logdetOpIvE7reverseIdEEvN5TMBad11ReverseArgsIT_EE"
 "_ZN6atomic8logdetOpIvE7reverseIN5TMBad6global6ad_augEEEvNS3_11ReverseArgsIT_EE"
 "_ZN6atomic8matinvOpIvE7forwardEN5TMBad11ForwardArgsIdEE"
 "_ZN6atomic8matinvOpIvE7forwardERN5TMBad11ForwardArgsINS2_6WriterEEE"
 "_ZN6atomic8matinvOpIvE7reverseERN5TMBad11ReverseArgsINS2_6WriterEEE"
 "_ZN6atomic8matinvOpIvE7reverseIdEEvN5TMBad11ReverseArgsIT_EE"
 "_ZN6atomic8matinvOpIvE7reverseIN5TMBad6global6ad_augEEEvNS3_11ReverseArgsIT_EE"
 "_ZN6atomic8matmulOpIvE7forwardEN5TMBad11ForwardArgsIdEE"
 "_ZN6atomic8matmulOpIvE7forwardERN5TMBad11ForwardArgsINS2_6WriterEEE"
 "_ZN6atomic8matmulOpIvE7reverseERN5TMBad11ReverseArgsINS2_6WriterEEE"
 "_ZN6atomic8matmulOpIvE7reverseIdEEvN5TMBad11ReverseArgsIT_EE"
 "_ZN6atomic8matmulOpIvE7reverseIN5TMBad6global6ad_augEEEvNS3_11ReverseArgsIT_EE"
 "_ZN6atomic8TriangleINS_14nestedTriangleILi0EEEE11addIdentityEv"
 "_ZN6atomic8TriangleINS_14nestedTriangleILi0EEEE5scaleEd"
 "_ZN6atomic8TriangleINS_14nestedTriangleILi0EEEE7inverseEv"
 "_ZN6atomic8TriangleINS_14nestedTriangleILi0EEEEC1ERKS3_"
 "_ZN6atomic8TriangleINS_14nestedTriangleILi0EEEEC2ERKS3_"
 "_ZN6atomic8TriangleINS_14nestedTriangleILi0EEEED1Ev"
 "_ZN6atomic8TriangleINS_14nestedTriangleILi0EEEED2Ev"
 "_ZN6atomic8TriangleINS_14nestedTriangleILi0EEEEmIES3_"
 "_ZN6atomic8TriangleINS_14nestedTriangleILi0EEEEmlES3_"
 "_ZN6atomic8TriangleINS_14nestedTriangleILi0EEEEpLES3_"
 "_ZN6atomic8TriangleINS_14nestedTriangleILi1EEEE11addIdentityEv"
 "_ZN6atomic8TriangleINS_14nestedTriangleILi1EEEE5scaleEd"
 "_ZN6atomic8TriangleINS_14nestedTriangleILi1EEEE7inverseEv"
 "_ZN6atomic8TriangleINS_14nestedTriangleILi1EEEEC1ERKS3_"
 "_ZN6atomic8TriangleINS_14nestedTriangleILi1EEEEC2ERKS3_"
 "_ZN6atomic8TriangleINS_14nestedTriangleILi1EEEEmlES3_"
 "_ZN6atomic8TriangleINS_14nestedTriangleILi1EEEEpLES3_"
 "_ZN6atomic8TriangleINS_14nestedTriangleILi2EEEE11addIdentityEv"
 "_ZN6atomic8TriangleINS_14nestedTriangleILi2EEEE5scaleEd"
 "_ZN6atomic8TriangleINS_14nestedTriangleILi2EEEE7inverseEv"
 "_ZN6atomic8TriangleINS_14nestedTriangleILi2EEEEC1ERKS3_"
 "_ZN6atomic8TriangleINS_14nestedTriangleILi2EEEEC2ERKS3_"
 "_ZN6atomic8TriangleINS_14nestedTriangleILi2EEEED1Ev"
 "_ZN6atomic8TriangleINS_14nestedTriangleILi2EEEED2Ev"
 "_ZN6atomic8TriangleINS_14nestedTriangleILi2EEEEmlES3_"
 "_ZN6atomicmlIdLi1EEENS_8tiny_vecIT_XT0_EEERKS2_RKS3_"
 "_ZN6atomicmlIdLi2EEENS_8tiny_vecIT_XT0_EEERKS2_RKS3_"
 "_ZN6atomicmlINS_7tiny_ad8variableILi1ELi2EdEELi2EEENS_8tiny_vecIT_XT0_EEERKS5_RKS6_"
 "_ZN6atomicmlINS_7tiny_ad8variableILi2ELi2EdEELi2EEENS_8tiny_vecIT_XT0_EEERKS5_RKS6_"
 "_ZN6newton11NewtonDenseINS_5sliceIN5TMBad5ADFunINS2_6global6ad_augEEEEES5_EENS_12NewtonSolverIT_T0_NS_16jacobian_dense_tIN5Eigen3LLTINSC_6MatrixIdLin1ELin1ELi0ELin1ELin1EEELi1EEEEEEERS9_NSC_5ArrayISA_Lin1ELi1ELi0ELin1ELi1EEENS_13newton_configE"
 "_ZN6newton12NewtonSolverINS_5sliceIN5TMBad5ADFunINS2_6global6ad_augEEEEES5_NS_16jacobian_dense_tIN5Eigen3LLTINS9_6MatrixIdLin1ELin1ELi0ELin1ELin1EEELi1EEEEEE5valueEv"
 "_ZN6newton12NewtonSolverINS_5sliceIN5TMBad5ADFunINS2_6global6ad_augEEEEES5_NS_16jacobian_dense_tIN5Eigen3LLTINS9_6MatrixIdLin1ELin1ELi0ELin1ELin1EEELi1EEEEEE7LaplaceEv"
 "_ZN6newton12NewtonSolverINS_5sliceIN5TMBad5ADFunINS2_6global6ad_augEEEEES5_NS_17jacobian_sparse_tIN5Eigen13SimplicialLLTINS9_12SparseMatrixIdLi0EiEELi1ENS9_11AMDOrderingIiEEEEEEE5valueEv"
 "_ZN6newton12NewtonSolverINS_5sliceIN5TMBad5ADFunINS2_6global6ad_augEEEEES5_NS_17jacobian_sparse_tIN5Eigen13SimplicialLLTINS9_12SparseMatrixIdLi0EiEELi1ENS9_11AMDOrderingIiEEEEEEE7LaplaceEv"
 "_ZN6newton12NewtonSolverINS_5sliceIN5TMBad5ADFunINS2_6global6ad_augEEEEES5_NS_30jacobian_sparse_plus_lowrank_tIvEEE5valueEv"
 "_ZN6newton12NewtonSolverINS_5sliceIN5TMBad5ADFunINS2_6global6ad_augEEEEES5_NS_30jacobian_sparse_plus_lowrank_tIvEEE7LaplaceEv"
 "_ZN6newton12NewtonSparseINS_5sliceIN5TMBad5ADFunINS2_6global6ad_augEEEEES5_EENS_12NewtonSolverIT_T0_NS_17jacobian_sparse_tIN5Eigen13SimplicialLLTINSC_12SparseMatrixIdLi0EiEELi1ENSC_11AMDOrderingIiEEEEEEEERS9_NSC_5ArrayISA_Lin1ELi1ELi0ELin1ELi1EEENS_13newton_configE"
 "_ZN6newton13newton_config12set_defaultsEP7SEXPREC"
 "_ZN6newton14InvSubOperatorIN5Eigen13SimplicialLLTINS1_12SparseMatrixIdLi0EiEELi1ENS1_11AMDOrderingIiEEEEE7forwardERN5TMBad11ForwardArgsIdEE"
 "_ZN6newton14InvSubOperatorIN5Eigen13SimplicialLLTINS1_12SparseMatrixIdLi0EiEELi1ENS1_11AMDOrderingIiEEEEE7forwardIN5TMBad6WriterEEEvRNSA_11ForwardArgsIT_EE"
 "_ZN6newton14InvSubOperatorIN5Eigen13SimplicialLLTINS1_12SparseMatrixIdLi0EiEELi1ENS1_11AMDOrderingIiEEEEE7reverseERN5TMBad11ReverseArgsIdEE"
 "_ZN6newton14InvSubOperatorIN5Eigen13SimplicialLLTINS1_12SparseMatrixIdLi0EiEELi1ENS1_11AMDOrderingIiEEEEE7reverseERN5TMBad11ReverseArgsINS9_6WriterEEE"
 "_ZN6newton14InvSubOperatorIN5Eigen13SimplicialLLTINS1_12SparseMatrixIdLi0EiEELi1ENS1_11AMDOrderingIiEEEEEC2ERKS4_St10shared_ptrIS7_E"
 "_ZN6newton14InvSubOperatorIN5Eigen13SimplicialLLTINS1_12SparseMatrixIdLi0EiEELi1ENS1_11AMDOrderingIiEEEEED2Ev"
 "_ZN6newton14LogDetOperatorIN5Eigen13SimplicialLLTINS1_12SparseMatrixIdLi0EiEELi1ENS1_11AMDOrderingIiEEEEE7forwardERN5TMBad11ForwardArgsIdEE"
 "_ZN6newton14LogDetOperatorIN5Eigen13SimplicialLLTINS1_12SparseMatrixIdLi0EiEELi1ENS1_11AMDOrderingIiEEEEE7forwardIN5TMBad6WriterEEEvRNSA_11ForwardArgsIT_EE"
 "_ZN6newton14LogDetOperatorIN5Eigen13SimplicialLLTINS1_12SparseMatrixIdLi0EiEELi1ENS1_11AMDOrderingIiEEEEE7reverseERN5TMBad11ReverseArgsIdEE"
 "_ZN6newton14LogDetOperatorIN5Eigen13SimplicialLLTINS1_12SparseMatrixIdLi0EiEELi1ENS1_11AMDOrderingIiEEEEE7reverseERN5TMBad11ReverseArgsINS9_6global6ad_augEEE"
 "_ZN6newton14LogDetOperatorIN5Eigen13SimplicialLLTINS1_12SparseMatrixIdLi0EiEELi1ENS1_11AMDOrderingIiEEEEE7reverseERN5TMBad11ReverseArgsINS9_6WriterEEE"
 "_ZN6newton14LogDetOperatorIN5Eigen13SimplicialLLTINS1_12SparseMatrixIdLi0EiEELi1ENS1_11AMDOrderingIiEEEEED2Ev"
 "_ZN6newton14NewtonOperatorINS_5sliceIN5TMBad5ADFunINS2_6global6ad_augEEEEENS_16jacobian_dense_tIN5Eigen3LLTINS9_6MatrixIdLin1ELin1ELi0ELin1ELin1EEELi1EEEEEE11add_to_tapeEv"
 "_ZN6newton14NewtonOperatorINS_5sliceIN5TMBad5ADFunINS2_6global6ad_augEEEEENS_16jacobian_dense_tIN5Eigen3LLTINS9_6MatrixIdLin1ELin1ELi0ELin1ELin1EEELi1EEEEEE14newton_iterateERNS_6vectorIdEE"
 "_ZN6newton14NewtonOperatorINS_5sliceIN5TMBad5ADFunINS2_6global6ad_augEEEEENS_16jacobian_dense_tIN5Eigen3LLTINS9_6MatrixIdLin1ELin1ELi0ELin1ELin1EEELi1EEEEEE16convergence_failEPKcRNS_6vectorIdEE"
 "_ZN6newton14NewtonOperatorINS_5sliceIN5TMBad5ADFunINS2_6global6ad_augEEEEENS_16jacobian_dense_tIN5Eigen3LLTINS9_6MatrixIdLin1ELin1ELi0ELin1ELin1EEELi1EEEEEE7forwardERNS2_11ForwardArgsIdEE"
 "_ZN6newton14NewtonOperatorINS_5sliceIN5TMBad5ADFunINS2_6global6ad_augEEEEENS_16jacobian_dense_tIN5Eigen3LLTINS9_6MatrixIdLin1ELin1ELi0ELin1ELin1EEELi1EEEEEE7forwardINS2_6WriterEEEvRNS2_11ForwardArgsIT_EE"
 "_ZN6newton14NewtonOperatorINS_5sliceIN5TMBad5ADFunINS2_6global6ad_augEEEEENS_16jacobian_dense_tIN5Eigen3LLTINS9_6MatrixIdLin1ELin1ELi0ELin1ELin1EEELi1EEEEEE7reverseERNS2_11ReverseArgsINS2_6WriterEEE"
 "_ZN6newton14NewtonOperatorINS_5sliceIN5TMBad5ADFunINS2_6global6ad_augEEEEENS_16jacobian_dense_tIN5Eigen3LLTINS9_6MatrixIdLin1ELin1ELi0ELin1ELin1EEELi1EEEEEE7reverseIdEEvRNS2_11ReverseArgsIT_EE"
 "_ZN6newton14NewtonOperatorINS_5sliceIN5TMBad5ADFunINS2_6global6ad_augEEEEENS_16jacobian_dense_tIN5Eigen3LLTINS9_6MatrixIdLin1ELin1ELi0ELin1ELin1EEELi1EEEEEE7reverseIS5_EEvRNS2_11ReverseArgsIT_EE"
 "_ZN6newton14NewtonOperatorINS_5sliceIN5TMBad5ADFunINS2_6global6ad_augEEEEENS_16jacobian_dense_tIN5Eigen3LLTINS9_6MatrixIdLin1ELin1ELi0ELin1ELin1EEELi1EEEEEEC2ERS7_NS_6vectorIS5_EENS_13newton_configE"
 "_ZN6newton14NewtonOperatorINS_5sliceIN5TMBad5ADFunINS2_6global6ad_augEEEEENS_16jacobian_dense_tIN5Eigen3LLTINS9_6MatrixIdLin1ELin1ELi0ELin1ELin1EEELi1EEEEEED2Ev"
 "_ZN6newton14NewtonOperatorINS_5sliceIN5TMBad5ADFunINS2_6global6ad_augEEEEENS_17jacobian_sparse_tIN5Eigen13SimplicialLLTINS9_12SparseMatrixIdLi0EiEELi1ENS9_11AMDOrderingIiEEEEEEE11add_to_tapeEv"
 "_ZN6newton14NewtonOperatorINS_5sliceIN5TMBad5ADFunINS2_6global6ad_augEEEEENS_17jacobian_sparse_tIN5Eigen13SimplicialLLTINS9_12SparseMatrixIdLi0EiEELi1ENS9_11AMDOrderingIiEEEEEEE14newton_iterateERNS_6vectorIdEE"
 "_ZN6newton14NewtonOperatorINS_5sliceIN5TMBad5ADFunINS2_6global6ad_augEEEEENS_17jacobian_sparse_tIN5Eigen13SimplicialLLTINS9_12SparseMatrixIdLi0EiEELi1ENS9_11AMDOrderingIiEEEEEEE16convergence_failEPKcRNS_6vectorIdEE"
 "_ZN6newton14NewtonOperatorINS_5sliceIN5TMBad5ADFunINS2_6global6ad_augEEEEENS_17jacobian_sparse_tIN5Eigen13SimplicialLLTINS9_12SparseMatrixIdLi0EiEELi1ENS9_11AMDOrderingIiEEEEEEE7forwardERNS2_11ForwardArgsIdEE"
 "_ZN6newton14NewtonOperatorINS_5sliceIN5TMBad5ADFunINS2_6global6ad_augEEEEENS_17jacobian_sparse_tIN5Eigen13SimplicialLLTINS9_12SparseMatrixIdLi0EiEELi1ENS9_11AMDOrderingIiEEEEEEE7forwardINS2_6WriterEEEvRNS2_11ForwardArgsIT_EE"
 "_ZN6newton14NewtonOperatorINS_5sliceIN5TMBad5ADFunINS2_6global6ad_augEEEEENS_17jacobian_sparse_tIN5Eigen13SimplicialLLTINS9_12SparseMatrixIdLi0EiEELi1ENS9_11AMDOrderingIiEEEEEEE7reverseERNS2_11ReverseArgsINS2_6WriterEEE"
 "_ZN6newton14NewtonOperatorINS_5sliceIN5TMBad5ADFunINS2_6global6ad_augEEEEENS_17jacobian_sparse_tIN5Eigen13SimplicialLLTINS9_12SparseMatrixIdLi0EiEELi1ENS9_11AMDOrderingIiEEEEEEE7reverseIdEEvRNS2_11ReverseArgsIT_EE"
 "_ZN6newton14NewtonOperatorINS_5sliceIN5TMBad5ADFunINS2_6global6ad_augEEEEENS_17jacobian_sparse_tIN5Eigen13SimplicialLLTINS9_12SparseMatrixIdLi0EiEELi1ENS9_11AMDOrderingIiEEEEEEE7reverseIS5_EEvRNS2_11ReverseArgsIT_EE"
 "_ZN6newton14NewtonOperatorINS_5sliceIN5TMBad5ADFunINS2_6global6ad_augEEEEENS_17jacobian_sparse_tIN5Eigen13SimplicialLLTINS9_12SparseMatrixIdLi0EiEELi1ENS9_11AMDOrderingIiEEEEEEEC2ERS7_NS_6vectorIS5_EENS_13newton_configE"
 "_ZN6newton14NewtonOperatorINS_5sliceIN5TMBad5ADFunINS2_6global6ad_augEEEEENS_17jacobian_sparse_tIN5Eigen13SimplicialLLTINS9_12SparseMatrixIdLi0EiEELi1ENS9_11AMDOrderingIiEEEEEEED2Ev"
 "_ZN6newton14NewtonOperatorINS_5sliceIN5TMBad5ADFunINS2_6global6ad_augEEEEENS_30jacobian_sparse_plus_lowrank_tIvEEE11add_to_tapeEv"
 "_ZN6newton14NewtonOperatorINS_5sliceIN5TMBad5ADFunINS2_6global6ad_augEEEEENS_30jacobian_sparse_plus_lowrank_tIvEEE14newton_iterateERNS_6vectorIdEE"
 "_ZN6newton14NewtonOperatorINS_5sliceIN5TMBad5ADFunINS2_6global6ad_augEEEEENS_30jacobian_sparse_plus_lowrank_tIvEEE16convergence_failEPKcRNS_6vectorIdEE"
 "_ZN6newton14NewtonOperatorINS_5sliceIN5TMBad5ADFunINS2_6global6ad_augEEEEENS_30jacobian_sparse_plus_lowrank_tIvEEE5printENS4_12print_configE"
 "_ZN6newton14NewtonOperatorINS_5sliceIN5TMBad5ADFunINS2_6global6ad_augEEEEENS_30jacobian_sparse_plus_lowrank_tIvEEE7forwardERNS2_11ForwardArgsIdEE"
 "_ZN6newton14NewtonOperatorINS_5sliceIN5TMBad5ADFunINS2_6global6ad_augEEEEENS_30jacobian_sparse_plus_lowrank_tIvEEE7forwardINS2_6WriterEEEvRNS2_11ForwardArgsIT_EE"
 "_ZN6newton14NewtonOperatorINS_5sliceIN5TMBad5ADFunINS2_6global6ad_augEEEEENS_30jacobian_sparse_plus_lowrank_tIvEEE7reverseERNS2_11ReverseArgsINS2_6WriterEEE"
 "_ZN6newton14NewtonOperatorINS_5sliceIN5TMBad5ADFunINS2_6global6ad_augEEEEENS_30jacobian_sparse_plus_lowrank_tIvEEE7reverseIdEEvRNS2_11ReverseArgsIT_EE"
 "_ZN6newton14NewtonOperatorINS_5sliceIN5TMBad5ADFunINS2_6global6ad_augEEEEENS_30jacobian_sparse_plus_lowrank_tIvEEE7reverseIS5_EEvRNS2_11ReverseArgsIT_EE"
 "_ZN6newton14NewtonOperatorINS_5sliceIN5TMBad5ADFunINS2_6global6ad_augEEEEENS_30jacobian_sparse_plus_lowrank_tIvEEEC2ERS7_NS_6vectorIS5_EENS_13newton_configE"
 "_ZN6newton14NewtonOperatorINS_5sliceIN5TMBad5ADFunINS2_6global6ad_augEEEEENS_30jacobian_sparse_plus_lowrank_tIvEEED2Ev"
 "_ZN6newton15log_determinantIN5TMBad6global6ad_augEEET_RKN5Eigen12SparseMatrixIS4_Li0EiEESt10shared_ptrINS_17jacobian_sparse_tINS5_13SimplicialLLTINS6_IdLi0EiEELi1ENS5_11AMDOrderingIiEEEEEEE"
 "_ZN6newton15log_determinantIN5TMBad6global6ad_augEEET_RKNS_30jacobian_sparse_plus_lowrank_tIvE19sparse_plus_lowrankIS4_EESt10shared_ptrIS6_E"
 "_ZN6newton15log_determinantIN5TMBad6global6ad_augESt10shared_ptrINS_16jacobian_dense_tIN5Eigen3LLTINS6_6MatrixIdLin1ELin1ELi0ELin1ELin1EEELi1EEEEEEEET_RKNS_6matrixISD_EET0_"
 "_ZN6newton15log_determinantIN5TMBad6global6ad_augExEET_RKNS_6matrixIS4_EET0_"
 "_ZN6newton16jacobian_dense_tIN5Eigen3LLTINS1_6MatrixIdLin1ELin1ELi0ELin1ELin1EEELi1EEEEC1ERN5TMBad5ADFunINS7_6global6ad_augEEESC_y"
 "_ZN6newton16jacobian_dense_tIN5Eigen3LLTINS1_6MatrixIdLin1ELin1ELi0ELin1ELin1EEELi1EEEEclIdEENS_6matrixIT_EERKSt6vectorIS9_SaIS9_EE"
 "_ZN6newton17jacobian_sparse_tIN5Eigen13SimplicialLLTINS1_12SparseMatrixIdLi0EiEELi1ENS1_11AMDOrderingIiEEEEE8init_lltEv"
 "_ZN6newton17jacobian_sparse_tIN5Eigen13SimplicialLLTINS1_12SparseMatrixIdLi0EiEELi1ENS1_11AMDOrderingIiEEEEE9as_matrixISt6vectorIdSaIdEEEENS3_INT_10value_typeELi0EiEERKSD_"
 "_ZN6newton17jacobian_sparse_tIN5Eigen13SimplicialLLTINS1_12SparseMatrixIdLi0EiEELi1ENS1_11AMDOrderingIiEEEEEC1ERN5TMBad5ADFunINS9_6global6ad_augEEESE_y"
 "_ZN6newton17jacobian_sparse_tIN5Eigen13SimplicialLLTINS1_12SparseMatrixIdLi0EiEELi1ENS1_11AMDOrderingIiEEEEEclIdEENS3_IT_Li0EiEERKSt6vectorISA_SaISA_EE"
 "_ZN6newton18HessianSolveVectorINS_16jacobian_dense_tIN5Eigen3LLTINS2_6MatrixIdLin1ELin1ELi0ELin1ELin1EEELi1EEEEEE5solveERKNS_6vectorIdEESC_"
 "_ZN6newton18HessianSolveVectorINS_16jacobian_dense_tIN5Eigen3LLTINS2_6MatrixIdLin1ELin1ELi0ELin1ELin1EEELi1EEEEEE5solveERKNS_6vectorIN5TMBad6global6ad_augEEESF_"
 "_ZN6newton18HessianSolveVectorINS_16jacobian_dense_tIN5Eigen3LLTINS2_6MatrixIdLin1ELin1ELi0ELin1ELin1EEELi1EEEEEE7forwardERN5TMBad11ForwardArgsIdEE"
 "_ZN6newton18HessianSolveVectorINS_16jacobian_dense_tIN5Eigen3LLTINS2_6MatrixIdLin1ELin1ELi0ELin1ELin1EEELi1EEEEEE7forwardIN5TMBad6WriterEEEvRNSA_11ForwardArgsIT_EE"
 "_ZN6newton18HessianSolveVectorINS_16jacobian_dense_tIN5Eigen3LLTINS2_6MatrixIdLin1ELin1ELi0ELin1ELin1EEELi1EEEEEE7reverseERN5TMBad11ReverseArgsINS9_6WriterEEE"
 "_ZN6newton18HessianSolveVectorINS_16jacobian_dense_tIN5Eigen3LLTINS2_6MatrixIdLin1ELin1ELi0ELin1ELin1EEELi1EEEEEE7reverseIdEEvRN5TMBad11ReverseArgsIT_EE"
 "_ZN6newton18HessianSolveVectorINS_16jacobian_dense_tIN5Eigen3LLTINS2_6MatrixIdLin1ELin1ELi0ELin1ELin1EEELi1EEEEEE7reverseIN5TMBad6global6ad_augEEEvRNSA_11ReverseArgsIT_EE"
 "_ZN6newton18HessianSolveVectorINS_17jacobian_sparse_tIN5Eigen13SimplicialLLTINS2_12SparseMatrixIdLi0EiEELi1ENS2_11AMDOrderingIiEEEEEEE5solveERKNS_6vectorIdEESE_"
 "_ZN6newton18HessianSolveVectorINS_17jacobian_sparse_tIN5Eigen13SimplicialLLTINS2_12SparseMatrixIdLi0EiEELi1ENS2_11AMDOrderingIiEEEEEEE5solveERKNS_6vectorIN5TMBad6global6ad_augEEESH_"
 "_ZN6newton18HessianSolveVectorINS_17jacobian_sparse_tIN5Eigen13SimplicialLLTINS2_12SparseMatrixIdLi0EiEELi1ENS2_11AMDOrderingIiEEEEEEE7forwardERN5TMBad11ForwardArgsIdEE"
 "_ZN6newton18HessianSolveVectorINS_17jacobian_sparse_tIN5Eigen13SimplicialLLTINS2_12SparseMatrixIdLi0EiEELi1ENS2_11AMDOrderingIiEEEEEEE7forwardIN5TMBad6WriterEEEvRNSC_11ForwardArgsIT_EE"
 "_ZN6newton18HessianSolveVectorINS_17jacobian_sparse_tIN5Eigen13SimplicialLLTINS2_12SparseMatrixIdLi0EiEELi1ENS2_11AMDOrderingIiEEEEEEE7reverseERN5TMBad11ReverseArgsINSB_6WriterEEE"
 "_ZN6newton18HessianSolveVectorINS_17jacobian_sparse_tIN5Eigen13SimplicialLLTINS2_12SparseMatrixIdLi0EiEELi1ENS2_11AMDOrderingIiEEEEEEE7reverseIdEEvRN5TMBad11ReverseArgsIT_EE"
 "_ZN6newton18HessianSolveVectorINS_17jacobian_sparse_tIN5Eigen13SimplicialLLTINS2_12SparseMatrixIdLi0EiEELi1ENS2_11AMDOrderingIiEEEEEEE7reverseIN5TMBad6global6ad_augEEEvRNSC_11ReverseArgsIT_EE"
 "_ZN6newton22log_determinant_simpleIN5TMBad6global6ad_augEEET_RKN5Eigen12SparseMatrixIS4_Li0EiEE"
 "_ZN6newton23NewtonSparsePlusLowrankINS_5sliceIN5TMBad5ADFunINS2_6global6ad_augEEEEES5_EENS_12NewtonSolverIT_T0_NS_30jacobian_sparse_plus_lowrank_tIvEEEERS9_N5Eigen5ArrayISA_Lin1ELi1ELi0ELin1ELi1EEENS_13newton_configE"
 "_ZN6newton30jacobian_sparse_plus_lowrank_tIvE19sparse_plus_lowrankIdED1Ev"
 "_ZN6newton30jacobian_sparse_plus_lowrank_tIvE19sparse_plus_lowrankIN5TMBad6global6ad_augEED1Ev"
 "_ZN6newton30jacobian_sparse_plus_lowrank_tIvE4evalIdEESt6vectorIT_SaIS4_EERKS6_"
 "_ZN6newton30jacobian_sparse_plus_lowrank_tIvE4evalIN5TMBad6global6ad_augEEESt6vectorIT_SaIS7_EERKS9_"
 "_ZN6newton30jacobian_sparse_plus_lowrank_tIvE5solveIdEENS_6vectorIT_EESt10shared_ptrIS1_ERKS5_S9_"
 "_ZN6newton30jacobian_sparse_plus_lowrank_tIvE5solveIN5TMBad6global6ad_augEEENS_6vectorIT_EESt10shared_ptrIS1_ERKS8_SC_"
 "_ZN6newton30jacobian_sparse_plus_lowrank_tIvE6getH0MIN5TMBad6global6ad_augEEEN8tmbutils6matrixIT_EESt10shared_ptrIS1_ERKNS1_19sparse_plus_lowrankIS8_EE"
 "_ZN6newton30jacobian_sparse_plus_lowrank_tIvE9as_matrixINS_6vectorIdEEEENS1_19sparse_plus_lowrankINT_10value_typeEEERKS6_"
 "_ZN6newton30jacobian_sparse_plus_lowrank_tIvE9as_matrixINS_6vectorIN5TMBad6global6ad_augEEEEENS1_19sparse_plus_lowrankINT_10value_typeEEERKS9_"
 "_ZN6newton30jacobian_sparse_plus_lowrank_tIvE9as_matrixISt6vectorIdSaIdEEEENS1_19sparse_plus_lowrankINT_10value_typeEEERKS7_"
 "_ZN6newton30jacobian_sparse_plus_lowrank_tIvE9as_matrixISt6vectorIN5TMBad6global6ad_augESaIS6_EEEENS1_19sparse_plus_lowrankINT_10value_typeEEERKSA_"
 "_ZN6newton30jacobian_sparse_plus_lowrank_tIvE9llt_solveERKNS1_19sparse_plus_lowrankIdEERKNS_6matrixIdEE"
 "_ZN6newton30jacobian_sparse_plus_lowrank_tIvEC1ERN5TMBad5ADFunINS2_6global6ad_augEEES7_y"
 "_ZN6newton3TagERKd"
 "_ZN6newton3TagERKN5TMBad6global8ad_plainE"
 "_ZN6newton5sliceIN5TMBad5ADFunINS1_6global6ad_augEEEE8Laplace_ENS_13newton_configE"
 "_ZN6newton6vectorIdEC1ERKSt6vectorIdSaIdEE"
 "_ZN6newton6vectorIN5TMBad6global6ad_augEEC1ERKSt6vectorIS3_SaIS3_EE"
 "_ZN6newton7LaplaceINS_5sliceIN5TMBad5ADFunINS2_6global6ad_augEEEEES5_EET0_RT_RN5Eigen5ArrayIS8_Lin1ELi1ELi0ELin1ELi1EEENS_13newton_configE"
 "_ZN6newton8Laplace_ERN5TMBad5ADFunINS0_6global6ad_augEEERKSt6vectorIjSaIjEENS_13newton_configE"
 "_ZN8RostreamILb0EED0Ev"
 "_ZN8RostreamILb0EED1Ev"
 "_ZN8RostreamILb1EED0Ev"
 "_ZN8RostreamILb1EED1Ev"
 "_ZN8tmbutils6vectorIdEC1ERKSt6vectorIdSaIdEE"
 "_ZN8tmbutils6vectorIdEcvSt6vectorIdSaIdEEEv"
 "_ZNK5Eigen10MatrixBaseINS_3MapIKNS_6MatrixIdLin1ELin1ELi0ELin1ELin1EEELi0ENS_6StrideILi0ELi0EEEEEE11lazyProductINS_9TransposeIS7_EEEEKNS_7ProductIS7_T_Li1EEERKNS0_ISD_EE"
 "_ZNK5Eigen10MatrixBaseINS_3MapIKNS_6MatrixIdLin1ELin1ELi0ELin1ELin1EEELi0ENS_6StrideILi0ELi0EEEEEE11lazyProductIS7_EEKNS_7ProductIS7_T_Li1EEERKNS0_ISB_EE"
 "_ZNK5Eigen10MatrixBaseINS_5BlockINS1_INS_3MapINS_6MatrixIdLin1ELin1ELi0ELin1ELin1EEELi0ENS_6StrideILi0ELi0EEEEELin1ELin1ELb0EEELin1ELin1ELb0EEEE11lazyProductIS9_EEKNS_7ProductIS9_T_Li1EEERKNS0_ISD_EE"
 "_ZNK5Eigen10MatrixBaseINS_9TransposeINS_3MapIKNS_6MatrixIdLin1ELin1ELi0ELin1ELin1EEELi0ENS_6StrideILi0ELi0EEEEEEEE11lazyProductIS8_EEKNS_7ProductIS9_T_Li1EEERKNS0_ISD_EE"
 "_ZNK5Eigen10MatrixBaseINS_9TransposeINS_3MapIKNS_6MatrixIdLin1ELin1ELi0ELin1ELin1EEELi0ENS_6StrideILi0ELi0EEEEEEEE11lazyProductIS9_EEKNS_7ProductIS9_T_Li1EEERKNS0_ISD_EE"
 "_ZNK5Eigen15DenseCoeffsBaseINS_6MatrixIiLin1ELi1ELi0ELin1ELi1EEELi0EEixEx"
 "_ZNK5Eigen18TriangularViewImplIKNS_6MatrixIdLin1ELin1ELi0ELin1ELin1EEELj1ENS_5DenseEE12solveInPlaceILi1ES2_EEvRKNS_10MatrixBaseIT0_EE"
 "_ZNK5Eigen18TriangularViewImplIKNS_6MatrixIdLin1ELin1ELi0ELin1ELin1EEELj2ENS_5DenseEE12solveInPlaceILi1ENS_3MapIS2_Li0ENS_6StrideILi0ELi0EEEEEEEvRKNS_10MatrixBaseIT0_EE"
 "_ZNK5Eigen18TriangularViewImplIKNS_6MatrixIdLin1ELin1ELi0ELin1ELin1EEELj2ENS_5DenseEE12solveInPlaceILi1ES2_EEvRKNS_10MatrixBaseIT0_EE"
 "_ZNK5Eigen18TriangularViewImplIKNS_6MatrixIdLin1ELin1ELi0ELin1ELin1EEELj5ENS_5DenseEE12solveInPlaceILi1ENS_3MapIS2_Li0ENS_6StrideILi0ELi0EEEEEEEvRKNS_10MatrixBaseIT0_EE"
 "_ZNK5Eigen18TriangularViewImplIKNS_6MatrixIdLin1ELin1ELi0ELin1ELin1EEELj5ENS_5DenseEE12solveInPlaceILi1ES2_EEvRKNS_10MatrixBaseIT0_EE"
 "_ZNK5Eigen18TriangularViewImplIKNS_9TransposeIKNS_5BlockINS_6MatrixIdLin1ELin1ELi0ELin1ELin1EEELin1ELin1ELb0EEEEELj2ENS_5DenseEE12solveInPlaceILi2ES5_EEvRKNS_10MatrixBaseIT0_EE"
 "_ZNK5Eigen18TriangularViewImplIKNS_9TransposeIKNS_6MatrixIdLin1ELin1ELi0ELin1ELin1EEEEELj2ENS_5DenseEE12solveInPlaceILi1ES3_EEvRKNS_10MatrixBaseIT0_EE"
 "_ZNK5Eigen18TriangularViewImplIKNS_9TransposeIKNS_6MatrixIdLin1ELin1ELi0ELin1ELin1EEEEELj6ENS_5DenseEE12solveInPlaceILi1ES3_EEvRKNS_10MatrixBaseIT0_EE"
 "_ZNK5Eigen18TriangularViewImplINS_5BlockINS1_INS_3MapINS_6MatrixIdLin1ELin1ELi0ELin1ELin1EEELi0ENS_6StrideILi0ELi0EEEEELin1ELin1ELb0EEELin1ELin1ELb0EEELj5ENS_5DenseEE12solveInPlaceILi1ES9_EEvRKNS_10MatrixBaseIT0_EE"
 "_ZNK5Eigen20SparseCompressedBaseINS_12SparseMatrixIdLi0EiEEE8nonZerosEv"
 "_ZNK5Eigen20SparseCompressedBaseINS_12SparseMatrixIN5TMBad6global6ad_augELi0EiEEE8nonZerosEv"
 "_ZNK5Eigen20SparseCompressedBaseINS_12SparseMatrixIN6atomic7tiny_ad8variableILi1ELi1EdEELi0EiEEE8nonZerosEv"
 "_ZNK5Eigen22SimplicialCholeskyBaseINS_13SimplicialLLTINS_12SparseMatrixIdLi0EiEELi1ENS_11AMDOrderingIiEEEEE11_solve_implINS_6MatrixIdLin1ELin1ELi0ELin1ELin1EEESA_EEvRKNS_10MatrixBaseIT_EERNSB_IT0_EE"
 "_ZNK5Eigen22SimplicialCholeskyBaseINS_13SimplicialLLTINS_12SparseMatrixIdLi0EiEELi1ENS_11AMDOrderingIiEEEEE4infoEv"
 "_ZNK5Eigen3LLTINS_6MatrixIdLin1ELin1ELi0ELin1ELin1EEELi1EE12solveInPlaceIS2_EEvRKNS_10MatrixBaseIT_EE"
 "_ZNK5Eigen4LDLTINS_6MatrixIdLin1ELin1ELi0ELin1ELin1EEELi1EE11_solve_implINS_7ProductINS5_IS2_NS_9TransposeIS2_EELi0EEES2_Li0EEES2_EEvRKT_RT0_"
 "_ZNK5Eigen8internal17product_evaluatorINS_7ProductINS_3MapIKNS_6MatrixIdLin1ELin1ELi0ELin1ELin1EEELi0ENS_6StrideILi0ELi0EEEEENS_9TransposeIS9_EELi1EEELi8ENS_10DenseShapeESD_ddE5coeffExx"
 "_ZNK5Eigen8internal17product_evaluatorINS_7ProductINS_3MapIKNS_6MatrixIdLin1ELin1ELi0ELin1ELin1EEELi0ENS_6StrideILi0ELi0EEEEES9_Li1EEELi8ENS_10DenseShapeESB_ddE5coeffExx"
 "_ZNK5Eigen8internal17product_evaluatorINS_7ProductINS_5BlockINS3_INS_3MapINS_6MatrixIdLin1ELin1ELi0ELin1ELin1EEELi0ENS_6StrideILi0ELi0EEEEELin1ELin1ELb0EEELin1ELin1ELb0EEESB_Li1EEELi8ENS_10DenseShapeESD_ddE5coeffExx"
 "_ZNK5Eigen8internal17product_evaluatorINS_7ProductINS_6MatrixIdLin1ELin1ELi0ELin1ELin1EEENS_5SolveINS_4LDLTIS4_Li1EEENS2_INS2_IS4_NS_9TransposeIS4_EELi0EEES4_Li0EEEEELi1EEELi8ENS_10DenseShapeESE_ddE5coeffExx"
 "_ZNK5Eigen8internal17product_evaluatorINS_7ProductINS_6MatrixIdLin1ELin1ELi0ELin1ELin1EEENS_9TransposeIKS4_EELi1EEELi8ENS_10DenseShapeES9_ddE5coeffExx"
 "_ZNK5Eigen8internal17product_evaluatorINS_7ProductINS_6MatrixIdLin1ELin1ELi0ELin1ELin1EEENS_9TransposeIS4_EELi1EEELi8ENS_10DenseShapeES8_ddE5coeffExx"
 "_ZNK5Eigen8internal17product_evaluatorINS_7ProductINS_6MatrixIdLin1ELin1ELi0ELin1ELin1EEES4_Li1EEELi8ENS_10DenseShapeES6_ddE5coeffExx"
 "_ZNK5Eigen8internal17product_evaluatorINS_7ProductINS2_INS_6MatrixIdLin1ELin1ELi0ELin1ELin1EEENS_9TransposeIKS4_EELi0EEES4_Li1EEELi8ENS_10DenseShapeESA_ddE5coeffExx"
 "_ZNK5Eigen8internal17product_evaluatorINS_7ProductINS2_INS_6MatrixIdLin1ELin1ELi0ELin1ELin1EEENS_9TransposeIS4_EELi0EEES4_Li1EEELi8ENS_10DenseShapeES9_ddE5coeffExx"
 "_ZNK5Eigen9DenseBaseINS_12CwiseUnaryOpINS_8internal13scalar_abs_opIdEEKNS_5ArrayIdLin1ELi1ELi0ELin1ELi1EEEEEE5reduxINS2_13scalar_max_opIddEEEEdRKT_"
 "_ZNK5Eigen9DenseBaseINS_12CwiseUnaryOpINS_8internal13scalar_abs_opIdEEKNS_5BlockINS_8DiagonalINS_6MatrixIdLin1ELin1ELi0ELin1ELin1EEELi0EEELin1ELi1ELb0EEEEEE5visitINS2_17max_coeff_visitorISC_EEEEvRT_"
 "_ZNK5Eigen9DenseBaseINS_12CwiseUnaryOpINS_8internal13scalar_log_opIdEEKNS_12ArrayWrapperIKNS_8DiagonalIKNS_12SparseMatrixIdLi0EiEELi0EEEEEEEE5reduxINS2_13scalar_sum_opIddEEEEdRKT_"
 "_ZNK5Eigen9DenseBaseINS_12CwiseUnaryOpINS_8internal21scalar_score_coeff_opIdEEKNS_5BlockINS5_INS5_INS_3MapINS_6MatrixIdLin1ELin1ELi0ELin1ELin1EEELi0ENS_6StrideILi0ELi0EEEEELin1ELin1ELb0EEELin1ELi1ELb1EEELin1ELi1ELb0EEEEEE5visitINS2_17max_coeff_visitorISG_EEEEvRT_"
 "_ZNK5Eigen9DenseBaseINS_13CwiseBinaryOpINS_8internal17scalar_product_opIddEEKNS_9TransposeIKNS_5BlockIKNS_6MatrixIdLin1ELin1ELi0ELin1ELin1EEELi1ELin1ELb0EEEEEKNS6_IS9_Lin1ELi1ELb1EEEEEE3sumEv"
 "_ZNK5Eigen9DenseBaseINS_5ArrayIdLin1ELi1ELi0ELin1ELi1EEEE5reduxINS_8internal13scalar_min_opIddEEEEdRKT_"
 "_ZNK5TMBad12Dependencies3anyERKSt6vectorIbSaIbEE"
 "_ZNK5TMBad13LogSpaceSumOp10input_sizeEv"
 "_ZNK5TMBad13LogSpaceSumOp11output_sizeEv"
 "_ZNK5TMBad16compressed_input10input_sizeEv"
 "_ZNK5TMBad16compressed_input12forward_initERNS_4ArgsIvEE"
 "_ZNK5TMBad16compressed_input22dependencies_intervalsERNS_4ArgsIvEERSt6vectorIjSaIjEES7_"
 "_ZNK5TMBad16compressed_input24update_increment_patternEv"
 "_ZNK5TMBad16compressed_input9decrementERNS_4ArgsIvEE"
 "_ZNK5TMBad16compressed_input9incrementERNS_4ArgsIvEE"
 "_ZNK5TMBad19LogSpaceSumStrideOp10input_sizeEv"
 "_ZNK5TMBad19LogSpaceSumStrideOp11output_sizeEv"
 "_ZNK5TMBad19LogSpaceSumStrideOp12dependenciesERNS_4ArgsIvEERNS_12DependenciesE"
 "_ZNK5TMBad19LogSpaceSumStrideOp15number_of_termsEv"
 "_ZNK5TMBad5ADFunINS_6global6ad_augEEclERKSt6vectorIS2_SaIS2_EE"
 "_ZNK5TMBad5SumOp10input_sizeEv"
 "_ZNK5TMBad5SumOp11output_sizeEv"
 "_ZNK5TMBad6clique5emptyEv"
 "_ZNK5TMBad6global10hash_sweepEb"
 "_ZNK5TMBad6global10hash_sweepENS0_11hash_configE"
 "_ZNK5TMBad6global18subgraph_cache_ptrEv"
 "_ZNK5TMBad6global26DynamicInputOutputOperator10input_sizeEv"
 "_ZNK5TMBad6global26DynamicInputOutputOperator11output_sizeEv"
 "_ZNK5TMBad6global4hashEv"
 "_ZNK5TMBad6global6ad_aug11override_byERKNS0_8ad_plainE"
 "_ZNK5TMBad6global6ad_aug12bothConstantERKS1_"
 "_ZNK5TMBad6global6ad_aug12identicalOneEv"
 "_ZNK5TMBad6global6ad_aug13identicalZeroEv"
 "_ZNK5TMBad6global6ad_aug16in_context_stackEPS0_"
 "_ZNK5TMBad6global6ad_aug4copyEv"
 "_ZNK5TMBad6global6ad_aug4globEv"
 "_ZNK5TMBad6global6ad_aug5copy0Ev"
 "_ZNK5TMBad6global6ad_aug5ValueEv"
 "_ZNK5TMBad6global6ad_aug6ontapeEv"
 "_ZNK5TMBad6global6ad_aug8constantEv"
 "_ZNK5TMBad6global6ad_aug9addToTapeEv"
 "_ZNK5TMBad6global6ad_aug9identicalERKS1_"
 "_ZNK5TMBad6global6ad_augdvERKS1_"
 "_ZNK5TMBad6global6ad_augmiERKS1_"
 "_ZNK5TMBad6global6ad_augmlERKS1_"
 "_ZNK5TMBad6global6ad_augngEv"
 "_ZNK5TMBad6global6ad_augplERKS1_"
 "_ZNK5TMBad6global8ad_plain11initializedEv"
 "_ZNK5TMBad6global8ad_plain11override_byERKS1_"
 "_ZNK5TMBad6global8ad_plain4copyEv"
 "_ZNK5TMBad6global8ad_plain4globEv"
 "_ZNK5TMBad6global8ad_plain5copy0Ev"
 "_ZNK5TMBad6global8ad_plain5ValOp12dependenciesERNS_4ArgsIvEERNS_12DependenciesE"
 "_ZNK5TMBad6global8ad_plain5ValueEPS0_"
 "_ZNK5TMBad6global8ad_plain5ValueEv"
 "_ZNK5TMBad6global8ad_plain6ontapeEv"
 "_ZNK5TMBad6global8ad_plain9addToTapeEv"
 "_ZNK5TMBad6global8ad_plaindvERKS1_"
 "_ZNK5TMBad6global8ad_plainmiERKS1_"
 "_ZNK5TMBad6global8ad_plainmlERKd"
 "_ZNK5TMBad6global8ad_plainmlERKS1_"
 "_ZNK5TMBad6global8ad_plainngEv"
 "_ZNK5TMBad6global8ad_plainplERKS1_"
 "_ZNK5TMBad6global8ad_range4colsEv"
 "_ZNK5TMBad6global8ad_range4rowsEv"
 "_ZNK5TMBad6global8ad_range4sizeEv"
 "_ZNK5TMBad6global9identicalERKS0_"
 "_ZNK5TMBad7autopar10input_sizeEv"
 "_ZNK5TMBad7autopar11output_sizeEv"
 "_ZNK5TMBad7ParalOp10input_sizeEv"
 "_ZNK5TMBad7ParalOp11output_sizeEv"
 "_ZNK5TMBad7StackOp10input_sizeEv"
 "_ZNK5TMBad7StackOp11output_sizeEv"
 "_ZNK5TMBad7StackOp12dependenciesENS_4ArgsIvEERNS_12DependenciesE"
 "_ZNK5TMBad8adaptiveINS_6global6ad_augEEdvERKS2_"
 "_ZNK5TMBad8adaptiveINS_6global6ad_augEEeqERKS2_"
 "_ZNK5TMBad8adaptiveINS_6global6ad_augEEgtERKS2_"
 "_ZNK5TMBad8adaptiveINS_6global6ad_augEEmiERKS2_"
 "_ZNK5TMBad8adaptiveINS_6global6ad_augEEmlERKS2_"
 "_ZNK5TMBad8adaptiveINS_6global6ad_augEEplERKS2_"
 "_ZNK5TMBad8PositionltERKS0_"
 "_ZNK6atomic7tiny_ad2adINS0_8variableILi1ELi2EdEENS_8tiny_vecIS3_Li2EEEEmiERKS6_"
 "_ZNK6atomic7tiny_ad2adINS0_8variableILi1ELi2EdEENS_8tiny_vecIS3_Li2EEEEplERKS6_"
 "_ZNK6newton6matrixIdE3vecEv"
 "_ZNK6newton6matrixIN5TMBad6global6ad_augEE3vecEv"
 "_ZNK6newton6vectorIdEcvSt6vectorIdSaIdEEEv"
 "_ZNSt10shared_ptrIN5Eigen13SimplicialLLTINS0_12SparseMatrixIdLi0EiEELi1ENS0_11AMDOrderingIiEEEEEC1ISaIS6_EJRS3_EEESt20_Sp_alloc_shared_tagIT_EDpOT0_"
 "_ZNSt10shared_ptrIN5Eigen13SimplicialLLTINS0_12SparseMatrixIN6atomic7tiny_ad8variableILi1ELi1EdEELi0EiEELi1ENS0_11AMDOrderingIiEEEEEC1ISaISA_EJRS7_EEESt20_Sp_alloc_shared_tagIT_EDpOT0_"
 "_ZNSt12_Destroy_auxILb0EE9__destroyIPSt6vectorIjSaIjEEEEvT_S6_"
 "_ZNSt13_Bvector_baseISaIbEE13_M_deallocateEv"
 "_ZNSt16_Sp_counted_baseILN9__gnu_cxx12_Lock_policyE2EE10_M_releaseEv"
 "_ZNSt18_Bit_iterator_base7_M_incrEx"
 "_ZNSt23_Sp_counted_ptr_inplaceIN5Eigen13SimplicialLLTINS0_12SparseMatrixIdLi0EiEELi1ENS0_11AMDOrderingIiEEEESaIS6_ELN9__gnu_cxx12_Lock_policyE2EE10_M_destroyEv"
 "_ZNSt23_Sp_counted_ptr_inplaceIN5Eigen13SimplicialLLTINS0_12SparseMatrixIdLi0EiEELi1ENS0_11AMDOrderingIiEEEESaIS6_ELN9__gnu_cxx12_Lock_policyE2EE10_M_disposeEv"
 "_ZNSt23_Sp_counted_ptr_inplaceIN5Eigen13SimplicialLLTINS0_12SparseMatrixIdLi0EiEELi1ENS0_11AMDOrderingIiEEEESaIS6_ELN9__gnu_cxx12_Lock_policyE2EE14_M_get_deleterERKSt9type_info"
 "_ZNSt23_Sp_counted_ptr_inplaceIN5Eigen13SimplicialLLTINS0_12SparseMatrixIdLi0EiEELi1ENS0_11AMDOrderingIiEEEESaIS6_ELN9__gnu_cxx12_Lock_policyE2EED0Ev"
 "_ZNSt23_Sp_counted_ptr_inplaceIN5Eigen13SimplicialLLTINS0_12SparseMatrixIdLi0EiEELi1ENS0_11AMDOrderingIiEEEESaIS6_ELN9__gnu_cxx12_Lock_policyE2EED1Ev"
 "_ZNSt23_Sp_counted_ptr_inplaceIN5Eigen13SimplicialLLTINS0_12SparseMatrixIN6atomic7tiny_ad8variableILi1ELi1EdEELi0EiEELi1ENS0_11AMDOrderingIiEEEESaISA_ELN9__gnu_cxx12_Lock_policyE2EE10_M_destroyEv"
 "_ZNSt23_Sp_counted_ptr_inplaceIN5Eigen13SimplicialLLTINS0_12SparseMatrixIN6atomic7tiny_ad8variableILi1ELi1EdEELi0EiEELi1ENS0_11AMDOrderingIiEEEESaISA_ELN9__gnu_cxx12_Lock_policyE2EE10_M_disposeEv"
 "_ZNSt23_Sp_counted_ptr_inplaceIN5Eigen13SimplicialLLTINS0_12SparseMatrixIN6atomic7tiny_ad8variableILi1ELi1EdEELi0EiEELi1ENS0_11AMDOrderingIiEEEESaISA_ELN9__gnu_cxx12_Lock_policyE2EE14_M_get_deleterERKSt9type_info"
 "_ZNSt23_Sp_counted_ptr_inplaceIN5Eigen13SimplicialLLTINS0_12SparseMatrixIN6atomic7tiny_ad8variableILi1ELi1EdEELi0EiEELi1ENS0_11AMDOrderingIiEEEESaISA_ELN9__gnu_cxx12_Lock_policyE2EED0Ev"
 "_ZNSt23_Sp_counted_ptr_inplaceIN5Eigen13SimplicialLLTINS0_12SparseMatrixIN6atomic7tiny_ad8variableILi1ELi1EdEELi0EiEELi1ENS0_11AMDOrderingIiEEEESaISA_ELN9__gnu_cxx12_Lock_policyE2EED1Ev"
 "_ZNSt23_Sp_counted_ptr_inplaceIN5Eigen3LLTINS0_6MatrixIdLin1ELin1ELi0ELin1ELin1EEELi1EEESaIS4_ELN9__gnu_cxx12_Lock_policyE2EE10_M_destroyEv"
 "_ZNSt23_Sp_counted_ptr_inplaceIN5Eigen3LLTINS0_6MatrixIdLin1ELin1ELi0ELin1ELin1EEELi1EEESaIS4_ELN9__gnu_cxx12_Lock_policyE2EE10_M_disposeEv"
 "_ZNSt23_Sp_counted_ptr_inplaceIN5Eigen3LLTINS0_6MatrixIdLin1ELin1ELi0ELin1ELin1EEELi1EEESaIS4_ELN9__gnu_cxx12_Lock_policyE2EE14_M_get_deleterERKSt9type_info"
 "_ZNSt23_Sp_counted_ptr_inplaceIN5Eigen3LLTINS0_6MatrixIdLin1ELin1ELi0ELin1ELin1EEELi1EEESaIS4_ELN9__gnu_cxx12_Lock_policyE2EED0Ev"
 "_ZNSt23_Sp_counted_ptr_inplaceIN5Eigen3LLTINS0_6MatrixIdLin1ELin1ELi0ELin1ELin1EEELi1EEESaIS4_ELN9__gnu_cxx12_Lock_policyE2EED1Ev"
 "_ZNSt23_Sp_counted_ptr_inplaceIN5TMBad5ADFunINS0_6global6ad_augEEESaIS4_ELN9__gnu_cxx12_Lock_policyE2EE10_M_destroyEv"
 "_ZNSt23_Sp_counted_ptr_inplaceIN5TMBad5ADFunINS0_6global6ad_augEEESaIS4_ELN9__gnu_cxx12_Lock_policyE2EE10_M_disposeEv"
 "_ZNSt23_Sp_counted_ptr_inplaceIN5TMBad5ADFunINS0_6global6ad_augEEESaIS4_ELN9__gnu_cxx12_Lock_policyE2EE14_M_get_deleterERKSt9type_info"
 "_ZNSt23_Sp_counted_ptr_inplaceIN5TMBad5ADFunINS0_6global6ad_augEEESaIS4_ELN9__gnu_cxx12_Lock_policyE2EED0Ev"
 "_ZNSt23_Sp_counted_ptr_inplaceIN5TMBad5ADFunINS0_6global6ad_augEEESaIS4_ELN9__gnu_cxx12_Lock_policyE2EED1Ev"
 "_ZNSt23_Sp_counted_ptr_inplaceIN6newton16jacobian_dense_tIN5Eigen3LLTINS2_6MatrixIdLin1ELin1ELi0ELin1ELin1EEELi1EEEEESaIS7_ELN9__gnu_cxx12_Lock_policyE2EE10_M_destroyEv"
 "_ZNSt23_Sp_counted_ptr_inplaceIN6newton16jacobian_dense_tIN5Eigen3LLTINS2_6MatrixIdLin1ELin1ELi0ELin1ELin1EEELi1EEEEESaIS7_ELN9__gnu_cxx12_Lock_policyE2EE10_M_disposeEv"
 "_ZNSt23_Sp_counted_ptr_inplaceIN6newton16jacobian_dense_tIN5Eigen3LLTINS2_6MatrixIdLin1ELin1ELi0ELin1ELin1EEELi1EEEEESaIS7_ELN9__gnu_cxx12_Lock_policyE2EE14_M_get_deleterERKSt9type_info"
